ARM GAS  /var/folders/1_/rgbtf7293t93c5kflb58xcy40000gn/T//ccMetEze.s 			page 1


   1              		.cpu cortex-m7
   2              		.arch armv7e-m
   3              		.fpu fpv5-d16
   4              		.eabi_attribute 28, 1
   5              		.eabi_attribute 20, 1
   6              		.eabi_attribute 21, 1
   7              		.eabi_attribute 23, 3
   8              		.eabi_attribute 24, 1
   9              		.eabi_attribute 25, 1
  10              		.eabi_attribute 26, 1
  11              		.eabi_attribute 30, 6
  12              		.eabi_attribute 34, 1
  13              		.eabi_attribute 18, 4
  14              		.file	"FDN_stereo.cpp"
  15              		.text
  16              	.Ltext0:
  17              		.cfi_sections	.debug_frame
  18              		.section	.text._ZSt3absf,"axG",%progbits,_ZSt3absf,comdat
  19              		.align	1
  20              		.weak	_ZSt3absf
  21              		.syntax unified
  22              		.thumb
  23              		.thumb_func
  25              	_ZSt3absf:
  26              	.LFB141:
  27              		.file 1 "/Library/DaisyToolchain/0.2.0/arm/arm-none-eabi/include/c++/10.3.1/bits/std_abs.h"
   1:/Library/DaisyToolchain/0.2.0/arm/arm-none-eabi/include/c++/10.3.1/bits/std_abs.h **** // -*- C++ -*- C library enhancements header.
   2:/Library/DaisyToolchain/0.2.0/arm/arm-none-eabi/include/c++/10.3.1/bits/std_abs.h **** 
   3:/Library/DaisyToolchain/0.2.0/arm/arm-none-eabi/include/c++/10.3.1/bits/std_abs.h **** // Copyright (C) 2016-2020 Free Software Foundation, Inc.
   4:/Library/DaisyToolchain/0.2.0/arm/arm-none-eabi/include/c++/10.3.1/bits/std_abs.h **** //
   5:/Library/DaisyToolchain/0.2.0/arm/arm-none-eabi/include/c++/10.3.1/bits/std_abs.h **** // This file is part of the GNU ISO C++ Library.  This library is free
   6:/Library/DaisyToolchain/0.2.0/arm/arm-none-eabi/include/c++/10.3.1/bits/std_abs.h **** // software; you can redistribute it and/or modify it under the
   7:/Library/DaisyToolchain/0.2.0/arm/arm-none-eabi/include/c++/10.3.1/bits/std_abs.h **** // terms of the GNU General Public License as published by the
   8:/Library/DaisyToolchain/0.2.0/arm/arm-none-eabi/include/c++/10.3.1/bits/std_abs.h **** // Free Software Foundation; either version 3, or (at your option)
   9:/Library/DaisyToolchain/0.2.0/arm/arm-none-eabi/include/c++/10.3.1/bits/std_abs.h **** // any later version.
  10:/Library/DaisyToolchain/0.2.0/arm/arm-none-eabi/include/c++/10.3.1/bits/std_abs.h **** 
  11:/Library/DaisyToolchain/0.2.0/arm/arm-none-eabi/include/c++/10.3.1/bits/std_abs.h **** // This library is distributed in the hope that it will be useful,
  12:/Library/DaisyToolchain/0.2.0/arm/arm-none-eabi/include/c++/10.3.1/bits/std_abs.h **** // but WITHOUT ANY WARRANTY; without even the implied warranty of
  13:/Library/DaisyToolchain/0.2.0/arm/arm-none-eabi/include/c++/10.3.1/bits/std_abs.h **** // MERCHANTABILITY or FITNESS FOR A PARTICULAR PURPOSE.  See the
  14:/Library/DaisyToolchain/0.2.0/arm/arm-none-eabi/include/c++/10.3.1/bits/std_abs.h **** // GNU General Public License for more details.
  15:/Library/DaisyToolchain/0.2.0/arm/arm-none-eabi/include/c++/10.3.1/bits/std_abs.h **** 
  16:/Library/DaisyToolchain/0.2.0/arm/arm-none-eabi/include/c++/10.3.1/bits/std_abs.h **** // Under Section 7 of GPL version 3, you are granted additional
  17:/Library/DaisyToolchain/0.2.0/arm/arm-none-eabi/include/c++/10.3.1/bits/std_abs.h **** // permissions described in the GCC Runtime Library Exception, version
  18:/Library/DaisyToolchain/0.2.0/arm/arm-none-eabi/include/c++/10.3.1/bits/std_abs.h **** // 3.1, as published by the Free Software Foundation.
  19:/Library/DaisyToolchain/0.2.0/arm/arm-none-eabi/include/c++/10.3.1/bits/std_abs.h **** 
  20:/Library/DaisyToolchain/0.2.0/arm/arm-none-eabi/include/c++/10.3.1/bits/std_abs.h **** // You should have received a copy of the GNU General Public License and
  21:/Library/DaisyToolchain/0.2.0/arm/arm-none-eabi/include/c++/10.3.1/bits/std_abs.h **** // a copy of the GCC Runtime Library Exception along with this program;
  22:/Library/DaisyToolchain/0.2.0/arm/arm-none-eabi/include/c++/10.3.1/bits/std_abs.h **** // see the files COPYING3 and COPYING.RUNTIME respectively.  If not, see
  23:/Library/DaisyToolchain/0.2.0/arm/arm-none-eabi/include/c++/10.3.1/bits/std_abs.h **** // <http://www.gnu.org/licenses/>.
  24:/Library/DaisyToolchain/0.2.0/arm/arm-none-eabi/include/c++/10.3.1/bits/std_abs.h **** 
  25:/Library/DaisyToolchain/0.2.0/arm/arm-none-eabi/include/c++/10.3.1/bits/std_abs.h **** /** @file include/bits/std_abs.h
  26:/Library/DaisyToolchain/0.2.0/arm/arm-none-eabi/include/c++/10.3.1/bits/std_abs.h ****  *  This is an internal header file, included by other library headers.
  27:/Library/DaisyToolchain/0.2.0/arm/arm-none-eabi/include/c++/10.3.1/bits/std_abs.h ****  *  Do not attempt to use it directly. @headername{cmath, cstdlib}
  28:/Library/DaisyToolchain/0.2.0/arm/arm-none-eabi/include/c++/10.3.1/bits/std_abs.h ****  */
  29:/Library/DaisyToolchain/0.2.0/arm/arm-none-eabi/include/c++/10.3.1/bits/std_abs.h **** 
  30:/Library/DaisyToolchain/0.2.0/arm/arm-none-eabi/include/c++/10.3.1/bits/std_abs.h **** #ifndef _GLIBCXX_BITS_STD_ABS_H
  31:/Library/DaisyToolchain/0.2.0/arm/arm-none-eabi/include/c++/10.3.1/bits/std_abs.h **** #define _GLIBCXX_BITS_STD_ABS_H
ARM GAS  /var/folders/1_/rgbtf7293t93c5kflb58xcy40000gn/T//ccMetEze.s 			page 2


  32:/Library/DaisyToolchain/0.2.0/arm/arm-none-eabi/include/c++/10.3.1/bits/std_abs.h **** 
  33:/Library/DaisyToolchain/0.2.0/arm/arm-none-eabi/include/c++/10.3.1/bits/std_abs.h **** #pragma GCC system_header
  34:/Library/DaisyToolchain/0.2.0/arm/arm-none-eabi/include/c++/10.3.1/bits/std_abs.h **** 
  35:/Library/DaisyToolchain/0.2.0/arm/arm-none-eabi/include/c++/10.3.1/bits/std_abs.h **** #include <bits/c++config.h>
  36:/Library/DaisyToolchain/0.2.0/arm/arm-none-eabi/include/c++/10.3.1/bits/std_abs.h **** 
  37:/Library/DaisyToolchain/0.2.0/arm/arm-none-eabi/include/c++/10.3.1/bits/std_abs.h **** #define _GLIBCXX_INCLUDE_NEXT_C_HEADERS
  38:/Library/DaisyToolchain/0.2.0/arm/arm-none-eabi/include/c++/10.3.1/bits/std_abs.h **** #include_next <stdlib.h>
  39:/Library/DaisyToolchain/0.2.0/arm/arm-none-eabi/include/c++/10.3.1/bits/std_abs.h **** #ifdef __CORRECT_ISO_CPP_MATH_H_PROTO
  40:/Library/DaisyToolchain/0.2.0/arm/arm-none-eabi/include/c++/10.3.1/bits/std_abs.h **** # include_next <math.h>
  41:/Library/DaisyToolchain/0.2.0/arm/arm-none-eabi/include/c++/10.3.1/bits/std_abs.h **** #endif
  42:/Library/DaisyToolchain/0.2.0/arm/arm-none-eabi/include/c++/10.3.1/bits/std_abs.h **** #undef _GLIBCXX_INCLUDE_NEXT_C_HEADERS
  43:/Library/DaisyToolchain/0.2.0/arm/arm-none-eabi/include/c++/10.3.1/bits/std_abs.h **** 
  44:/Library/DaisyToolchain/0.2.0/arm/arm-none-eabi/include/c++/10.3.1/bits/std_abs.h **** #undef abs
  45:/Library/DaisyToolchain/0.2.0/arm/arm-none-eabi/include/c++/10.3.1/bits/std_abs.h **** 
  46:/Library/DaisyToolchain/0.2.0/arm/arm-none-eabi/include/c++/10.3.1/bits/std_abs.h **** extern "C++"
  47:/Library/DaisyToolchain/0.2.0/arm/arm-none-eabi/include/c++/10.3.1/bits/std_abs.h **** {
  48:/Library/DaisyToolchain/0.2.0/arm/arm-none-eabi/include/c++/10.3.1/bits/std_abs.h **** namespace std _GLIBCXX_VISIBILITY(default)
  49:/Library/DaisyToolchain/0.2.0/arm/arm-none-eabi/include/c++/10.3.1/bits/std_abs.h **** {
  50:/Library/DaisyToolchain/0.2.0/arm/arm-none-eabi/include/c++/10.3.1/bits/std_abs.h **** _GLIBCXX_BEGIN_NAMESPACE_VERSION
  51:/Library/DaisyToolchain/0.2.0/arm/arm-none-eabi/include/c++/10.3.1/bits/std_abs.h **** 
  52:/Library/DaisyToolchain/0.2.0/arm/arm-none-eabi/include/c++/10.3.1/bits/std_abs.h ****   using ::abs;
  53:/Library/DaisyToolchain/0.2.0/arm/arm-none-eabi/include/c++/10.3.1/bits/std_abs.h **** 
  54:/Library/DaisyToolchain/0.2.0/arm/arm-none-eabi/include/c++/10.3.1/bits/std_abs.h **** #ifndef __CORRECT_ISO_CPP_STDLIB_H_PROTO
  55:/Library/DaisyToolchain/0.2.0/arm/arm-none-eabi/include/c++/10.3.1/bits/std_abs.h ****   inline long
  56:/Library/DaisyToolchain/0.2.0/arm/arm-none-eabi/include/c++/10.3.1/bits/std_abs.h ****   abs(long __i) { return __builtin_labs(__i); }
  57:/Library/DaisyToolchain/0.2.0/arm/arm-none-eabi/include/c++/10.3.1/bits/std_abs.h **** #endif
  58:/Library/DaisyToolchain/0.2.0/arm/arm-none-eabi/include/c++/10.3.1/bits/std_abs.h **** 
  59:/Library/DaisyToolchain/0.2.0/arm/arm-none-eabi/include/c++/10.3.1/bits/std_abs.h **** #ifdef _GLIBCXX_USE_LONG_LONG
  60:/Library/DaisyToolchain/0.2.0/arm/arm-none-eabi/include/c++/10.3.1/bits/std_abs.h ****   inline long long
  61:/Library/DaisyToolchain/0.2.0/arm/arm-none-eabi/include/c++/10.3.1/bits/std_abs.h ****   abs(long long __x) { return __builtin_llabs (__x); }
  62:/Library/DaisyToolchain/0.2.0/arm/arm-none-eabi/include/c++/10.3.1/bits/std_abs.h **** #endif
  63:/Library/DaisyToolchain/0.2.0/arm/arm-none-eabi/include/c++/10.3.1/bits/std_abs.h **** 
  64:/Library/DaisyToolchain/0.2.0/arm/arm-none-eabi/include/c++/10.3.1/bits/std_abs.h **** // _GLIBCXX_RESOLVE_LIB_DEFECTS
  65:/Library/DaisyToolchain/0.2.0/arm/arm-none-eabi/include/c++/10.3.1/bits/std_abs.h **** // 2192. Validity and return type of std::abs(0u) is unclear
  66:/Library/DaisyToolchain/0.2.0/arm/arm-none-eabi/include/c++/10.3.1/bits/std_abs.h **** // 2294. <cstdlib> should declare abs(double)
  67:/Library/DaisyToolchain/0.2.0/arm/arm-none-eabi/include/c++/10.3.1/bits/std_abs.h **** // 2735. std::abs(short), std::abs(signed char) and others should return int
  68:/Library/DaisyToolchain/0.2.0/arm/arm-none-eabi/include/c++/10.3.1/bits/std_abs.h **** 
  69:/Library/DaisyToolchain/0.2.0/arm/arm-none-eabi/include/c++/10.3.1/bits/std_abs.h **** #ifndef __CORRECT_ISO_CPP_MATH_H_PROTO
  70:/Library/DaisyToolchain/0.2.0/arm/arm-none-eabi/include/c++/10.3.1/bits/std_abs.h ****   inline _GLIBCXX_CONSTEXPR double
  71:/Library/DaisyToolchain/0.2.0/arm/arm-none-eabi/include/c++/10.3.1/bits/std_abs.h ****   abs(double __x)
  72:/Library/DaisyToolchain/0.2.0/arm/arm-none-eabi/include/c++/10.3.1/bits/std_abs.h ****   { return __builtin_fabs(__x); }
  73:/Library/DaisyToolchain/0.2.0/arm/arm-none-eabi/include/c++/10.3.1/bits/std_abs.h **** 
  74:/Library/DaisyToolchain/0.2.0/arm/arm-none-eabi/include/c++/10.3.1/bits/std_abs.h ****   inline _GLIBCXX_CONSTEXPR float
  75:/Library/DaisyToolchain/0.2.0/arm/arm-none-eabi/include/c++/10.3.1/bits/std_abs.h ****   abs(float __x)
  76:/Library/DaisyToolchain/0.2.0/arm/arm-none-eabi/include/c++/10.3.1/bits/std_abs.h ****   { return __builtin_fabsf(__x); }
  28              		.loc 1 76 3
  29              		.cfi_startproc
  30              		@ args = 0, pretend = 0, frame = 8
  31              		@ frame_needed = 1, uses_anonymous_args = 0
  32              		@ link register save eliminated.
  33 0000 80B4     		push	{r7}
  34              		.cfi_def_cfa_offset 4
  35              		.cfi_offset 7, -4
  36 0002 83B0     		sub	sp, sp, #12
  37              		.cfi_def_cfa_offset 16
  38 0004 00AF     		add	r7, sp, #0
  39              		.cfi_def_cfa_register 7
ARM GAS  /var/folders/1_/rgbtf7293t93c5kflb58xcy40000gn/T//ccMetEze.s 			page 3


  40 0006 87ED010A 		vstr.32	s0, [r7, #4]
  41              		.loc 1 76 31
  42 000a D7ED017A 		vldr.32	s15, [r7, #4]
  43 000e F0EEE77A 		vabs.f32	s15, s15
  44              		.loc 1 76 34
  45 0012 B0EE670A 		vmov.f32	s0, s15
  46 0016 0C37     		adds	r7, r7, #12
  47              		.cfi_def_cfa_offset 4
  48 0018 BD46     		mov	sp, r7
  49              		.cfi_def_cfa_register 13
  50              		@ sp needed
  51 001a 5DF8047B 		ldr	r7, [sp], #4
  52              		.cfi_restore 7
  53              		.cfi_def_cfa_offset 0
  54 001e 7047     		bx	lr
  55              		.cfi_endproc
  56              	.LFE141:
  58              		.section	.text._ZSt4ceilf,"axG",%progbits,_ZSt4ceilf,comdat
  59              		.align	1
  60              		.weak	_ZSt4ceilf
  61              		.syntax unified
  62              		.thumb
  63              		.thumb_func
  65              	_ZSt4ceilf:
  66              	.LFB155:
  67              		.file 2 "/Library/DaisyToolchain/0.2.0/arm/arm-none-eabi/include/c++/10.3.1/cmath"
   1:/Library/DaisyToolchain/0.2.0/arm/arm-none-eabi/include/c++/10.3.1/cmath **** // -*- C++ -*- C forwarding header.
   2:/Library/DaisyToolchain/0.2.0/arm/arm-none-eabi/include/c++/10.3.1/cmath **** 
   3:/Library/DaisyToolchain/0.2.0/arm/arm-none-eabi/include/c++/10.3.1/cmath **** // Copyright (C) 1997-2020 Free Software Foundation, Inc.
   4:/Library/DaisyToolchain/0.2.0/arm/arm-none-eabi/include/c++/10.3.1/cmath **** //
   5:/Library/DaisyToolchain/0.2.0/arm/arm-none-eabi/include/c++/10.3.1/cmath **** // This file is part of the GNU ISO C++ Library.  This library is free
   6:/Library/DaisyToolchain/0.2.0/arm/arm-none-eabi/include/c++/10.3.1/cmath **** // software; you can redistribute it and/or modify it under the
   7:/Library/DaisyToolchain/0.2.0/arm/arm-none-eabi/include/c++/10.3.1/cmath **** // terms of the GNU General Public License as published by the
   8:/Library/DaisyToolchain/0.2.0/arm/arm-none-eabi/include/c++/10.3.1/cmath **** // Free Software Foundation; either version 3, or (at your option)
   9:/Library/DaisyToolchain/0.2.0/arm/arm-none-eabi/include/c++/10.3.1/cmath **** // any later version.
  10:/Library/DaisyToolchain/0.2.0/arm/arm-none-eabi/include/c++/10.3.1/cmath **** 
  11:/Library/DaisyToolchain/0.2.0/arm/arm-none-eabi/include/c++/10.3.1/cmath **** // This library is distributed in the hope that it will be useful,
  12:/Library/DaisyToolchain/0.2.0/arm/arm-none-eabi/include/c++/10.3.1/cmath **** // but WITHOUT ANY WARRANTY; without even the implied warranty of
  13:/Library/DaisyToolchain/0.2.0/arm/arm-none-eabi/include/c++/10.3.1/cmath **** // MERCHANTABILITY or FITNESS FOR A PARTICULAR PURPOSE.  See the
  14:/Library/DaisyToolchain/0.2.0/arm/arm-none-eabi/include/c++/10.3.1/cmath **** // GNU General Public License for more details.
  15:/Library/DaisyToolchain/0.2.0/arm/arm-none-eabi/include/c++/10.3.1/cmath **** 
  16:/Library/DaisyToolchain/0.2.0/arm/arm-none-eabi/include/c++/10.3.1/cmath **** // Under Section 7 of GPL version 3, you are granted additional
  17:/Library/DaisyToolchain/0.2.0/arm/arm-none-eabi/include/c++/10.3.1/cmath **** // permissions described in the GCC Runtime Library Exception, version
  18:/Library/DaisyToolchain/0.2.0/arm/arm-none-eabi/include/c++/10.3.1/cmath **** // 3.1, as published by the Free Software Foundation.
  19:/Library/DaisyToolchain/0.2.0/arm/arm-none-eabi/include/c++/10.3.1/cmath **** 
  20:/Library/DaisyToolchain/0.2.0/arm/arm-none-eabi/include/c++/10.3.1/cmath **** // You should have received a copy of the GNU General Public License and
  21:/Library/DaisyToolchain/0.2.0/arm/arm-none-eabi/include/c++/10.3.1/cmath **** // a copy of the GCC Runtime Library Exception along with this program;
  22:/Library/DaisyToolchain/0.2.0/arm/arm-none-eabi/include/c++/10.3.1/cmath **** // see the files COPYING3 and COPYING.RUNTIME respectively.  If not, see
  23:/Library/DaisyToolchain/0.2.0/arm/arm-none-eabi/include/c++/10.3.1/cmath **** // <http://www.gnu.org/licenses/>.
  24:/Library/DaisyToolchain/0.2.0/arm/arm-none-eabi/include/c++/10.3.1/cmath **** 
  25:/Library/DaisyToolchain/0.2.0/arm/arm-none-eabi/include/c++/10.3.1/cmath **** /** @file include/cmath
  26:/Library/DaisyToolchain/0.2.0/arm/arm-none-eabi/include/c++/10.3.1/cmath ****  *  This is a Standard C++ Library file.  You should @c \#include this file
  27:/Library/DaisyToolchain/0.2.0/arm/arm-none-eabi/include/c++/10.3.1/cmath ****  *  in your programs, rather than any of the @a *.h implementation files.
  28:/Library/DaisyToolchain/0.2.0/arm/arm-none-eabi/include/c++/10.3.1/cmath ****  *
  29:/Library/DaisyToolchain/0.2.0/arm/arm-none-eabi/include/c++/10.3.1/cmath ****  *  This is the C++ version of the Standard C Library header @c math.h,
  30:/Library/DaisyToolchain/0.2.0/arm/arm-none-eabi/include/c++/10.3.1/cmath ****  *  and its contents are (mostly) the same as that header, but are all
  31:/Library/DaisyToolchain/0.2.0/arm/arm-none-eabi/include/c++/10.3.1/cmath ****  *  contained in the namespace @c std (except for names which are defined
ARM GAS  /var/folders/1_/rgbtf7293t93c5kflb58xcy40000gn/T//ccMetEze.s 			page 4


  32:/Library/DaisyToolchain/0.2.0/arm/arm-none-eabi/include/c++/10.3.1/cmath ****  *  as macros in C).
  33:/Library/DaisyToolchain/0.2.0/arm/arm-none-eabi/include/c++/10.3.1/cmath ****  */
  34:/Library/DaisyToolchain/0.2.0/arm/arm-none-eabi/include/c++/10.3.1/cmath **** 
  35:/Library/DaisyToolchain/0.2.0/arm/arm-none-eabi/include/c++/10.3.1/cmath **** //
  36:/Library/DaisyToolchain/0.2.0/arm/arm-none-eabi/include/c++/10.3.1/cmath **** // ISO C++ 14882: 26.5  C library
  37:/Library/DaisyToolchain/0.2.0/arm/arm-none-eabi/include/c++/10.3.1/cmath **** //
  38:/Library/DaisyToolchain/0.2.0/arm/arm-none-eabi/include/c++/10.3.1/cmath **** 
  39:/Library/DaisyToolchain/0.2.0/arm/arm-none-eabi/include/c++/10.3.1/cmath **** #pragma GCC system_header
  40:/Library/DaisyToolchain/0.2.0/arm/arm-none-eabi/include/c++/10.3.1/cmath **** 
  41:/Library/DaisyToolchain/0.2.0/arm/arm-none-eabi/include/c++/10.3.1/cmath **** #include <bits/c++config.h>
  42:/Library/DaisyToolchain/0.2.0/arm/arm-none-eabi/include/c++/10.3.1/cmath **** #include <bits/cpp_type_traits.h>
  43:/Library/DaisyToolchain/0.2.0/arm/arm-none-eabi/include/c++/10.3.1/cmath **** #include <ext/type_traits.h>
  44:/Library/DaisyToolchain/0.2.0/arm/arm-none-eabi/include/c++/10.3.1/cmath **** #define _GLIBCXX_INCLUDE_NEXT_C_HEADERS
  45:/Library/DaisyToolchain/0.2.0/arm/arm-none-eabi/include/c++/10.3.1/cmath **** #include_next <math.h>
  46:/Library/DaisyToolchain/0.2.0/arm/arm-none-eabi/include/c++/10.3.1/cmath **** #undef _GLIBCXX_INCLUDE_NEXT_C_HEADERS
  47:/Library/DaisyToolchain/0.2.0/arm/arm-none-eabi/include/c++/10.3.1/cmath **** #include <bits/std_abs.h>
  48:/Library/DaisyToolchain/0.2.0/arm/arm-none-eabi/include/c++/10.3.1/cmath **** 
  49:/Library/DaisyToolchain/0.2.0/arm/arm-none-eabi/include/c++/10.3.1/cmath **** #ifndef _GLIBCXX_CMATH
  50:/Library/DaisyToolchain/0.2.0/arm/arm-none-eabi/include/c++/10.3.1/cmath **** #define _GLIBCXX_CMATH 1
  51:/Library/DaisyToolchain/0.2.0/arm/arm-none-eabi/include/c++/10.3.1/cmath **** 
  52:/Library/DaisyToolchain/0.2.0/arm/arm-none-eabi/include/c++/10.3.1/cmath **** // Get rid of those macros defined in <math.h> in lieu of real functions.
  53:/Library/DaisyToolchain/0.2.0/arm/arm-none-eabi/include/c++/10.3.1/cmath **** #undef div
  54:/Library/DaisyToolchain/0.2.0/arm/arm-none-eabi/include/c++/10.3.1/cmath **** #undef acos
  55:/Library/DaisyToolchain/0.2.0/arm/arm-none-eabi/include/c++/10.3.1/cmath **** #undef asin
  56:/Library/DaisyToolchain/0.2.0/arm/arm-none-eabi/include/c++/10.3.1/cmath **** #undef atan
  57:/Library/DaisyToolchain/0.2.0/arm/arm-none-eabi/include/c++/10.3.1/cmath **** #undef atan2
  58:/Library/DaisyToolchain/0.2.0/arm/arm-none-eabi/include/c++/10.3.1/cmath **** #undef ceil
  59:/Library/DaisyToolchain/0.2.0/arm/arm-none-eabi/include/c++/10.3.1/cmath **** #undef cos
  60:/Library/DaisyToolchain/0.2.0/arm/arm-none-eabi/include/c++/10.3.1/cmath **** #undef cosh
  61:/Library/DaisyToolchain/0.2.0/arm/arm-none-eabi/include/c++/10.3.1/cmath **** #undef exp
  62:/Library/DaisyToolchain/0.2.0/arm/arm-none-eabi/include/c++/10.3.1/cmath **** #undef fabs
  63:/Library/DaisyToolchain/0.2.0/arm/arm-none-eabi/include/c++/10.3.1/cmath **** #undef floor
  64:/Library/DaisyToolchain/0.2.0/arm/arm-none-eabi/include/c++/10.3.1/cmath **** #undef fmod
  65:/Library/DaisyToolchain/0.2.0/arm/arm-none-eabi/include/c++/10.3.1/cmath **** #undef frexp
  66:/Library/DaisyToolchain/0.2.0/arm/arm-none-eabi/include/c++/10.3.1/cmath **** #undef ldexp
  67:/Library/DaisyToolchain/0.2.0/arm/arm-none-eabi/include/c++/10.3.1/cmath **** #undef log
  68:/Library/DaisyToolchain/0.2.0/arm/arm-none-eabi/include/c++/10.3.1/cmath **** #undef log10
  69:/Library/DaisyToolchain/0.2.0/arm/arm-none-eabi/include/c++/10.3.1/cmath **** #undef modf
  70:/Library/DaisyToolchain/0.2.0/arm/arm-none-eabi/include/c++/10.3.1/cmath **** #undef pow
  71:/Library/DaisyToolchain/0.2.0/arm/arm-none-eabi/include/c++/10.3.1/cmath **** #undef sin
  72:/Library/DaisyToolchain/0.2.0/arm/arm-none-eabi/include/c++/10.3.1/cmath **** #undef sinh
  73:/Library/DaisyToolchain/0.2.0/arm/arm-none-eabi/include/c++/10.3.1/cmath **** #undef sqrt
  74:/Library/DaisyToolchain/0.2.0/arm/arm-none-eabi/include/c++/10.3.1/cmath **** #undef tan
  75:/Library/DaisyToolchain/0.2.0/arm/arm-none-eabi/include/c++/10.3.1/cmath **** #undef tanh
  76:/Library/DaisyToolchain/0.2.0/arm/arm-none-eabi/include/c++/10.3.1/cmath **** 
  77:/Library/DaisyToolchain/0.2.0/arm/arm-none-eabi/include/c++/10.3.1/cmath **** extern "C++"
  78:/Library/DaisyToolchain/0.2.0/arm/arm-none-eabi/include/c++/10.3.1/cmath **** {
  79:/Library/DaisyToolchain/0.2.0/arm/arm-none-eabi/include/c++/10.3.1/cmath **** namespace std _GLIBCXX_VISIBILITY(default)
  80:/Library/DaisyToolchain/0.2.0/arm/arm-none-eabi/include/c++/10.3.1/cmath **** {
  81:/Library/DaisyToolchain/0.2.0/arm/arm-none-eabi/include/c++/10.3.1/cmath **** _GLIBCXX_BEGIN_NAMESPACE_VERSION
  82:/Library/DaisyToolchain/0.2.0/arm/arm-none-eabi/include/c++/10.3.1/cmath **** 
  83:/Library/DaisyToolchain/0.2.0/arm/arm-none-eabi/include/c++/10.3.1/cmath ****   using ::acos;
  84:/Library/DaisyToolchain/0.2.0/arm/arm-none-eabi/include/c++/10.3.1/cmath **** 
  85:/Library/DaisyToolchain/0.2.0/arm/arm-none-eabi/include/c++/10.3.1/cmath **** #ifndef __CORRECT_ISO_CPP_MATH_H_PROTO
  86:/Library/DaisyToolchain/0.2.0/arm/arm-none-eabi/include/c++/10.3.1/cmath ****   inline _GLIBCXX_CONSTEXPR float
  87:/Library/DaisyToolchain/0.2.0/arm/arm-none-eabi/include/c++/10.3.1/cmath ****   acos(float __x)
  88:/Library/DaisyToolchain/0.2.0/arm/arm-none-eabi/include/c++/10.3.1/cmath ****   { return __builtin_acosf(__x); }
ARM GAS  /var/folders/1_/rgbtf7293t93c5kflb58xcy40000gn/T//ccMetEze.s 			page 5


  89:/Library/DaisyToolchain/0.2.0/arm/arm-none-eabi/include/c++/10.3.1/cmath **** 
  90:/Library/DaisyToolchain/0.2.0/arm/arm-none-eabi/include/c++/10.3.1/cmath ****   inline _GLIBCXX_CONSTEXPR long double
  91:/Library/DaisyToolchain/0.2.0/arm/arm-none-eabi/include/c++/10.3.1/cmath ****   acos(long double __x)
  92:/Library/DaisyToolchain/0.2.0/arm/arm-none-eabi/include/c++/10.3.1/cmath ****   { return __builtin_acosl(__x); }
  93:/Library/DaisyToolchain/0.2.0/arm/arm-none-eabi/include/c++/10.3.1/cmath **** #endif
  94:/Library/DaisyToolchain/0.2.0/arm/arm-none-eabi/include/c++/10.3.1/cmath **** 
  95:/Library/DaisyToolchain/0.2.0/arm/arm-none-eabi/include/c++/10.3.1/cmath ****   template<typename _Tp>
  96:/Library/DaisyToolchain/0.2.0/arm/arm-none-eabi/include/c++/10.3.1/cmath ****     inline _GLIBCXX_CONSTEXPR
  97:/Library/DaisyToolchain/0.2.0/arm/arm-none-eabi/include/c++/10.3.1/cmath ****     typename __gnu_cxx::__enable_if<__is_integer<_Tp>::__value, 
  98:/Library/DaisyToolchain/0.2.0/arm/arm-none-eabi/include/c++/10.3.1/cmath ****                                     double>::__type
  99:/Library/DaisyToolchain/0.2.0/arm/arm-none-eabi/include/c++/10.3.1/cmath ****     acos(_Tp __x)
 100:/Library/DaisyToolchain/0.2.0/arm/arm-none-eabi/include/c++/10.3.1/cmath ****     { return __builtin_acos(__x); }
 101:/Library/DaisyToolchain/0.2.0/arm/arm-none-eabi/include/c++/10.3.1/cmath **** 
 102:/Library/DaisyToolchain/0.2.0/arm/arm-none-eabi/include/c++/10.3.1/cmath ****   using ::asin;
 103:/Library/DaisyToolchain/0.2.0/arm/arm-none-eabi/include/c++/10.3.1/cmath **** 
 104:/Library/DaisyToolchain/0.2.0/arm/arm-none-eabi/include/c++/10.3.1/cmath **** #ifndef __CORRECT_ISO_CPP_MATH_H_PROTO
 105:/Library/DaisyToolchain/0.2.0/arm/arm-none-eabi/include/c++/10.3.1/cmath ****   inline _GLIBCXX_CONSTEXPR float
 106:/Library/DaisyToolchain/0.2.0/arm/arm-none-eabi/include/c++/10.3.1/cmath ****   asin(float __x)
 107:/Library/DaisyToolchain/0.2.0/arm/arm-none-eabi/include/c++/10.3.1/cmath ****   { return __builtin_asinf(__x); }
 108:/Library/DaisyToolchain/0.2.0/arm/arm-none-eabi/include/c++/10.3.1/cmath **** 
 109:/Library/DaisyToolchain/0.2.0/arm/arm-none-eabi/include/c++/10.3.1/cmath ****   inline _GLIBCXX_CONSTEXPR long double
 110:/Library/DaisyToolchain/0.2.0/arm/arm-none-eabi/include/c++/10.3.1/cmath ****   asin(long double __x)
 111:/Library/DaisyToolchain/0.2.0/arm/arm-none-eabi/include/c++/10.3.1/cmath ****   { return __builtin_asinl(__x); }
 112:/Library/DaisyToolchain/0.2.0/arm/arm-none-eabi/include/c++/10.3.1/cmath **** #endif
 113:/Library/DaisyToolchain/0.2.0/arm/arm-none-eabi/include/c++/10.3.1/cmath **** 
 114:/Library/DaisyToolchain/0.2.0/arm/arm-none-eabi/include/c++/10.3.1/cmath ****   template<typename _Tp>
 115:/Library/DaisyToolchain/0.2.0/arm/arm-none-eabi/include/c++/10.3.1/cmath ****     inline _GLIBCXX_CONSTEXPR
 116:/Library/DaisyToolchain/0.2.0/arm/arm-none-eabi/include/c++/10.3.1/cmath ****     typename __gnu_cxx::__enable_if<__is_integer<_Tp>::__value,
 117:/Library/DaisyToolchain/0.2.0/arm/arm-none-eabi/include/c++/10.3.1/cmath ****                                     double>::__type
 118:/Library/DaisyToolchain/0.2.0/arm/arm-none-eabi/include/c++/10.3.1/cmath ****     asin(_Tp __x)
 119:/Library/DaisyToolchain/0.2.0/arm/arm-none-eabi/include/c++/10.3.1/cmath ****     { return __builtin_asin(__x); }
 120:/Library/DaisyToolchain/0.2.0/arm/arm-none-eabi/include/c++/10.3.1/cmath **** 
 121:/Library/DaisyToolchain/0.2.0/arm/arm-none-eabi/include/c++/10.3.1/cmath ****   using ::atan;
 122:/Library/DaisyToolchain/0.2.0/arm/arm-none-eabi/include/c++/10.3.1/cmath **** 
 123:/Library/DaisyToolchain/0.2.0/arm/arm-none-eabi/include/c++/10.3.1/cmath **** #ifndef __CORRECT_ISO_CPP_MATH_H_PROTO
 124:/Library/DaisyToolchain/0.2.0/arm/arm-none-eabi/include/c++/10.3.1/cmath ****   inline _GLIBCXX_CONSTEXPR float
 125:/Library/DaisyToolchain/0.2.0/arm/arm-none-eabi/include/c++/10.3.1/cmath ****   atan(float __x)
 126:/Library/DaisyToolchain/0.2.0/arm/arm-none-eabi/include/c++/10.3.1/cmath ****   { return __builtin_atanf(__x); }
 127:/Library/DaisyToolchain/0.2.0/arm/arm-none-eabi/include/c++/10.3.1/cmath **** 
 128:/Library/DaisyToolchain/0.2.0/arm/arm-none-eabi/include/c++/10.3.1/cmath ****   inline _GLIBCXX_CONSTEXPR long double
 129:/Library/DaisyToolchain/0.2.0/arm/arm-none-eabi/include/c++/10.3.1/cmath ****   atan(long double __x)
 130:/Library/DaisyToolchain/0.2.0/arm/arm-none-eabi/include/c++/10.3.1/cmath ****   { return __builtin_atanl(__x); }
 131:/Library/DaisyToolchain/0.2.0/arm/arm-none-eabi/include/c++/10.3.1/cmath **** #endif
 132:/Library/DaisyToolchain/0.2.0/arm/arm-none-eabi/include/c++/10.3.1/cmath **** 
 133:/Library/DaisyToolchain/0.2.0/arm/arm-none-eabi/include/c++/10.3.1/cmath ****   template<typename _Tp>
 134:/Library/DaisyToolchain/0.2.0/arm/arm-none-eabi/include/c++/10.3.1/cmath ****     inline _GLIBCXX_CONSTEXPR
 135:/Library/DaisyToolchain/0.2.0/arm/arm-none-eabi/include/c++/10.3.1/cmath ****     typename __gnu_cxx::__enable_if<__is_integer<_Tp>::__value,
 136:/Library/DaisyToolchain/0.2.0/arm/arm-none-eabi/include/c++/10.3.1/cmath ****                                     double>::__type
 137:/Library/DaisyToolchain/0.2.0/arm/arm-none-eabi/include/c++/10.3.1/cmath ****     atan(_Tp __x)
 138:/Library/DaisyToolchain/0.2.0/arm/arm-none-eabi/include/c++/10.3.1/cmath ****     { return __builtin_atan(__x); }
 139:/Library/DaisyToolchain/0.2.0/arm/arm-none-eabi/include/c++/10.3.1/cmath **** 
 140:/Library/DaisyToolchain/0.2.0/arm/arm-none-eabi/include/c++/10.3.1/cmath ****   using ::atan2;
 141:/Library/DaisyToolchain/0.2.0/arm/arm-none-eabi/include/c++/10.3.1/cmath **** 
 142:/Library/DaisyToolchain/0.2.0/arm/arm-none-eabi/include/c++/10.3.1/cmath **** #ifndef __CORRECT_ISO_CPP_MATH_H_PROTO
 143:/Library/DaisyToolchain/0.2.0/arm/arm-none-eabi/include/c++/10.3.1/cmath ****   inline _GLIBCXX_CONSTEXPR float
 144:/Library/DaisyToolchain/0.2.0/arm/arm-none-eabi/include/c++/10.3.1/cmath ****   atan2(float __y, float __x)
 145:/Library/DaisyToolchain/0.2.0/arm/arm-none-eabi/include/c++/10.3.1/cmath ****   { return __builtin_atan2f(__y, __x); }
ARM GAS  /var/folders/1_/rgbtf7293t93c5kflb58xcy40000gn/T//ccMetEze.s 			page 6


 146:/Library/DaisyToolchain/0.2.0/arm/arm-none-eabi/include/c++/10.3.1/cmath **** 
 147:/Library/DaisyToolchain/0.2.0/arm/arm-none-eabi/include/c++/10.3.1/cmath ****   inline _GLIBCXX_CONSTEXPR long double
 148:/Library/DaisyToolchain/0.2.0/arm/arm-none-eabi/include/c++/10.3.1/cmath ****   atan2(long double __y, long double __x)
 149:/Library/DaisyToolchain/0.2.0/arm/arm-none-eabi/include/c++/10.3.1/cmath ****   { return __builtin_atan2l(__y, __x); }
 150:/Library/DaisyToolchain/0.2.0/arm/arm-none-eabi/include/c++/10.3.1/cmath **** #endif
 151:/Library/DaisyToolchain/0.2.0/arm/arm-none-eabi/include/c++/10.3.1/cmath **** 
 152:/Library/DaisyToolchain/0.2.0/arm/arm-none-eabi/include/c++/10.3.1/cmath ****   template<typename _Tp, typename _Up>
 153:/Library/DaisyToolchain/0.2.0/arm/arm-none-eabi/include/c++/10.3.1/cmath ****     inline _GLIBCXX_CONSTEXPR
 154:/Library/DaisyToolchain/0.2.0/arm/arm-none-eabi/include/c++/10.3.1/cmath ****     typename __gnu_cxx::__promote_2<_Tp, _Up>::__type
 155:/Library/DaisyToolchain/0.2.0/arm/arm-none-eabi/include/c++/10.3.1/cmath ****     atan2(_Tp __y, _Up __x)
 156:/Library/DaisyToolchain/0.2.0/arm/arm-none-eabi/include/c++/10.3.1/cmath ****     {
 157:/Library/DaisyToolchain/0.2.0/arm/arm-none-eabi/include/c++/10.3.1/cmath ****       typedef typename __gnu_cxx::__promote_2<_Tp, _Up>::__type __type;
 158:/Library/DaisyToolchain/0.2.0/arm/arm-none-eabi/include/c++/10.3.1/cmath ****       return atan2(__type(__y), __type(__x));
 159:/Library/DaisyToolchain/0.2.0/arm/arm-none-eabi/include/c++/10.3.1/cmath ****     }
 160:/Library/DaisyToolchain/0.2.0/arm/arm-none-eabi/include/c++/10.3.1/cmath **** 
 161:/Library/DaisyToolchain/0.2.0/arm/arm-none-eabi/include/c++/10.3.1/cmath ****   using ::ceil;
 162:/Library/DaisyToolchain/0.2.0/arm/arm-none-eabi/include/c++/10.3.1/cmath **** 
 163:/Library/DaisyToolchain/0.2.0/arm/arm-none-eabi/include/c++/10.3.1/cmath **** #ifndef __CORRECT_ISO_CPP_MATH_H_PROTO
 164:/Library/DaisyToolchain/0.2.0/arm/arm-none-eabi/include/c++/10.3.1/cmath ****   inline _GLIBCXX_CONSTEXPR float
 165:/Library/DaisyToolchain/0.2.0/arm/arm-none-eabi/include/c++/10.3.1/cmath ****   ceil(float __x)
 166:/Library/DaisyToolchain/0.2.0/arm/arm-none-eabi/include/c++/10.3.1/cmath ****   { return __builtin_ceilf(__x); }
  68              		.loc 2 166 3
  69              		.cfi_startproc
  70              		@ args = 0, pretend = 0, frame = 8
  71              		@ frame_needed = 1, uses_anonymous_args = 0
  72              		@ link register save eliminated.
  73 0000 80B4     		push	{r7}
  74              		.cfi_def_cfa_offset 4
  75              		.cfi_offset 7, -4
  76 0002 83B0     		sub	sp, sp, #12
  77              		.cfi_def_cfa_offset 16
  78 0004 00AF     		add	r7, sp, #0
  79              		.cfi_def_cfa_register 7
  80 0006 87ED010A 		vstr.32	s0, [r7, #4]
  81              		.loc 2 166 27
  82 000a D7ED017A 		vldr.32	s15, [r7, #4]
  83 000e FAFE677A 		vrintp.f32	s15, s15
  84              		.loc 2 166 34
  85 0012 B0EE670A 		vmov.f32	s0, s15
  86 0016 0C37     		adds	r7, r7, #12
  87              		.cfi_def_cfa_offset 4
  88 0018 BD46     		mov	sp, r7
  89              		.cfi_def_cfa_register 13
  90              		@ sp needed
  91 001a 5DF8047B 		ldr	r7, [sp], #4
  92              		.cfi_restore 7
  93              		.cfi_def_cfa_offset 0
  94 001e 7047     		bx	lr
  95              		.cfi_endproc
  96              	.LFE155:
  98              		.section	.text._ZSt5floorf,"axG",%progbits,_ZSt5floorf,comdat
  99              		.align	1
 100              		.weak	_ZSt5floorf
 101              		.syntax unified
 102              		.thumb
 103              		.thumb_func
 105              	_ZSt5floorf:
ARM GAS  /var/folders/1_/rgbtf7293t93c5kflb58xcy40000gn/T//ccMetEze.s 			page 7


 106              	.LFB170:
 167:/Library/DaisyToolchain/0.2.0/arm/arm-none-eabi/include/c++/10.3.1/cmath **** 
 168:/Library/DaisyToolchain/0.2.0/arm/arm-none-eabi/include/c++/10.3.1/cmath ****   inline _GLIBCXX_CONSTEXPR long double
 169:/Library/DaisyToolchain/0.2.0/arm/arm-none-eabi/include/c++/10.3.1/cmath ****   ceil(long double __x)
 170:/Library/DaisyToolchain/0.2.0/arm/arm-none-eabi/include/c++/10.3.1/cmath ****   { return __builtin_ceill(__x); }
 171:/Library/DaisyToolchain/0.2.0/arm/arm-none-eabi/include/c++/10.3.1/cmath **** #endif
 172:/Library/DaisyToolchain/0.2.0/arm/arm-none-eabi/include/c++/10.3.1/cmath **** 
 173:/Library/DaisyToolchain/0.2.0/arm/arm-none-eabi/include/c++/10.3.1/cmath ****   template<typename _Tp>
 174:/Library/DaisyToolchain/0.2.0/arm/arm-none-eabi/include/c++/10.3.1/cmath ****     inline _GLIBCXX_CONSTEXPR
 175:/Library/DaisyToolchain/0.2.0/arm/arm-none-eabi/include/c++/10.3.1/cmath ****     typename __gnu_cxx::__enable_if<__is_integer<_Tp>::__value, 
 176:/Library/DaisyToolchain/0.2.0/arm/arm-none-eabi/include/c++/10.3.1/cmath ****                                     double>::__type
 177:/Library/DaisyToolchain/0.2.0/arm/arm-none-eabi/include/c++/10.3.1/cmath ****     ceil(_Tp __x)
 178:/Library/DaisyToolchain/0.2.0/arm/arm-none-eabi/include/c++/10.3.1/cmath ****     { return __builtin_ceil(__x); }
 179:/Library/DaisyToolchain/0.2.0/arm/arm-none-eabi/include/c++/10.3.1/cmath **** 
 180:/Library/DaisyToolchain/0.2.0/arm/arm-none-eabi/include/c++/10.3.1/cmath ****   using ::cos;
 181:/Library/DaisyToolchain/0.2.0/arm/arm-none-eabi/include/c++/10.3.1/cmath **** 
 182:/Library/DaisyToolchain/0.2.0/arm/arm-none-eabi/include/c++/10.3.1/cmath **** #ifndef __CORRECT_ISO_CPP_MATH_H_PROTO
 183:/Library/DaisyToolchain/0.2.0/arm/arm-none-eabi/include/c++/10.3.1/cmath ****   inline _GLIBCXX_CONSTEXPR float
 184:/Library/DaisyToolchain/0.2.0/arm/arm-none-eabi/include/c++/10.3.1/cmath ****   cos(float __x)
 185:/Library/DaisyToolchain/0.2.0/arm/arm-none-eabi/include/c++/10.3.1/cmath ****   { return __builtin_cosf(__x); }
 186:/Library/DaisyToolchain/0.2.0/arm/arm-none-eabi/include/c++/10.3.1/cmath **** 
 187:/Library/DaisyToolchain/0.2.0/arm/arm-none-eabi/include/c++/10.3.1/cmath ****   inline _GLIBCXX_CONSTEXPR long double
 188:/Library/DaisyToolchain/0.2.0/arm/arm-none-eabi/include/c++/10.3.1/cmath ****   cos(long double __x)
 189:/Library/DaisyToolchain/0.2.0/arm/arm-none-eabi/include/c++/10.3.1/cmath ****   { return __builtin_cosl(__x); }
 190:/Library/DaisyToolchain/0.2.0/arm/arm-none-eabi/include/c++/10.3.1/cmath **** #endif
 191:/Library/DaisyToolchain/0.2.0/arm/arm-none-eabi/include/c++/10.3.1/cmath **** 
 192:/Library/DaisyToolchain/0.2.0/arm/arm-none-eabi/include/c++/10.3.1/cmath ****   template<typename _Tp>
 193:/Library/DaisyToolchain/0.2.0/arm/arm-none-eabi/include/c++/10.3.1/cmath ****     inline _GLIBCXX_CONSTEXPR
 194:/Library/DaisyToolchain/0.2.0/arm/arm-none-eabi/include/c++/10.3.1/cmath ****     typename __gnu_cxx::__enable_if<__is_integer<_Tp>::__value,
 195:/Library/DaisyToolchain/0.2.0/arm/arm-none-eabi/include/c++/10.3.1/cmath ****                                     double>::__type
 196:/Library/DaisyToolchain/0.2.0/arm/arm-none-eabi/include/c++/10.3.1/cmath ****     cos(_Tp __x)
 197:/Library/DaisyToolchain/0.2.0/arm/arm-none-eabi/include/c++/10.3.1/cmath ****     { return __builtin_cos(__x); }
 198:/Library/DaisyToolchain/0.2.0/arm/arm-none-eabi/include/c++/10.3.1/cmath **** 
 199:/Library/DaisyToolchain/0.2.0/arm/arm-none-eabi/include/c++/10.3.1/cmath ****   using ::cosh;
 200:/Library/DaisyToolchain/0.2.0/arm/arm-none-eabi/include/c++/10.3.1/cmath **** 
 201:/Library/DaisyToolchain/0.2.0/arm/arm-none-eabi/include/c++/10.3.1/cmath **** #ifndef __CORRECT_ISO_CPP_MATH_H_PROTO
 202:/Library/DaisyToolchain/0.2.0/arm/arm-none-eabi/include/c++/10.3.1/cmath ****   inline _GLIBCXX_CONSTEXPR float
 203:/Library/DaisyToolchain/0.2.0/arm/arm-none-eabi/include/c++/10.3.1/cmath ****   cosh(float __x)
 204:/Library/DaisyToolchain/0.2.0/arm/arm-none-eabi/include/c++/10.3.1/cmath ****   { return __builtin_coshf(__x); }
 205:/Library/DaisyToolchain/0.2.0/arm/arm-none-eabi/include/c++/10.3.1/cmath **** 
 206:/Library/DaisyToolchain/0.2.0/arm/arm-none-eabi/include/c++/10.3.1/cmath ****   inline _GLIBCXX_CONSTEXPR long double
 207:/Library/DaisyToolchain/0.2.0/arm/arm-none-eabi/include/c++/10.3.1/cmath ****   cosh(long double __x)
 208:/Library/DaisyToolchain/0.2.0/arm/arm-none-eabi/include/c++/10.3.1/cmath ****   { return __builtin_coshl(__x); }
 209:/Library/DaisyToolchain/0.2.0/arm/arm-none-eabi/include/c++/10.3.1/cmath **** #endif
 210:/Library/DaisyToolchain/0.2.0/arm/arm-none-eabi/include/c++/10.3.1/cmath **** 
 211:/Library/DaisyToolchain/0.2.0/arm/arm-none-eabi/include/c++/10.3.1/cmath ****   template<typename _Tp>
 212:/Library/DaisyToolchain/0.2.0/arm/arm-none-eabi/include/c++/10.3.1/cmath ****     inline _GLIBCXX_CONSTEXPR
 213:/Library/DaisyToolchain/0.2.0/arm/arm-none-eabi/include/c++/10.3.1/cmath ****     typename __gnu_cxx::__enable_if<__is_integer<_Tp>::__value,
 214:/Library/DaisyToolchain/0.2.0/arm/arm-none-eabi/include/c++/10.3.1/cmath ****                                     double>::__type
 215:/Library/DaisyToolchain/0.2.0/arm/arm-none-eabi/include/c++/10.3.1/cmath ****     cosh(_Tp __x)
 216:/Library/DaisyToolchain/0.2.0/arm/arm-none-eabi/include/c++/10.3.1/cmath ****     { return __builtin_cosh(__x); }
 217:/Library/DaisyToolchain/0.2.0/arm/arm-none-eabi/include/c++/10.3.1/cmath **** 
 218:/Library/DaisyToolchain/0.2.0/arm/arm-none-eabi/include/c++/10.3.1/cmath ****   using ::exp;
 219:/Library/DaisyToolchain/0.2.0/arm/arm-none-eabi/include/c++/10.3.1/cmath **** 
 220:/Library/DaisyToolchain/0.2.0/arm/arm-none-eabi/include/c++/10.3.1/cmath **** #ifndef __CORRECT_ISO_CPP_MATH_H_PROTO
 221:/Library/DaisyToolchain/0.2.0/arm/arm-none-eabi/include/c++/10.3.1/cmath ****   inline _GLIBCXX_CONSTEXPR float
 222:/Library/DaisyToolchain/0.2.0/arm/arm-none-eabi/include/c++/10.3.1/cmath ****   exp(float __x)
ARM GAS  /var/folders/1_/rgbtf7293t93c5kflb58xcy40000gn/T//ccMetEze.s 			page 8


 223:/Library/DaisyToolchain/0.2.0/arm/arm-none-eabi/include/c++/10.3.1/cmath ****   { return __builtin_expf(__x); }
 224:/Library/DaisyToolchain/0.2.0/arm/arm-none-eabi/include/c++/10.3.1/cmath **** 
 225:/Library/DaisyToolchain/0.2.0/arm/arm-none-eabi/include/c++/10.3.1/cmath ****   inline _GLIBCXX_CONSTEXPR long double
 226:/Library/DaisyToolchain/0.2.0/arm/arm-none-eabi/include/c++/10.3.1/cmath ****   exp(long double __x)
 227:/Library/DaisyToolchain/0.2.0/arm/arm-none-eabi/include/c++/10.3.1/cmath ****   { return __builtin_expl(__x); }
 228:/Library/DaisyToolchain/0.2.0/arm/arm-none-eabi/include/c++/10.3.1/cmath **** #endif
 229:/Library/DaisyToolchain/0.2.0/arm/arm-none-eabi/include/c++/10.3.1/cmath **** 
 230:/Library/DaisyToolchain/0.2.0/arm/arm-none-eabi/include/c++/10.3.1/cmath ****   template<typename _Tp>
 231:/Library/DaisyToolchain/0.2.0/arm/arm-none-eabi/include/c++/10.3.1/cmath ****     inline _GLIBCXX_CONSTEXPR
 232:/Library/DaisyToolchain/0.2.0/arm/arm-none-eabi/include/c++/10.3.1/cmath ****     typename __gnu_cxx::__enable_if<__is_integer<_Tp>::__value,
 233:/Library/DaisyToolchain/0.2.0/arm/arm-none-eabi/include/c++/10.3.1/cmath ****                                     double>::__type
 234:/Library/DaisyToolchain/0.2.0/arm/arm-none-eabi/include/c++/10.3.1/cmath ****     exp(_Tp __x)
 235:/Library/DaisyToolchain/0.2.0/arm/arm-none-eabi/include/c++/10.3.1/cmath ****     { return __builtin_exp(__x); }
 236:/Library/DaisyToolchain/0.2.0/arm/arm-none-eabi/include/c++/10.3.1/cmath **** 
 237:/Library/DaisyToolchain/0.2.0/arm/arm-none-eabi/include/c++/10.3.1/cmath ****   using ::fabs;
 238:/Library/DaisyToolchain/0.2.0/arm/arm-none-eabi/include/c++/10.3.1/cmath **** 
 239:/Library/DaisyToolchain/0.2.0/arm/arm-none-eabi/include/c++/10.3.1/cmath **** #ifndef __CORRECT_ISO_CPP_MATH_H_PROTO
 240:/Library/DaisyToolchain/0.2.0/arm/arm-none-eabi/include/c++/10.3.1/cmath ****   inline _GLIBCXX_CONSTEXPR float
 241:/Library/DaisyToolchain/0.2.0/arm/arm-none-eabi/include/c++/10.3.1/cmath ****   fabs(float __x)
 242:/Library/DaisyToolchain/0.2.0/arm/arm-none-eabi/include/c++/10.3.1/cmath ****   { return __builtin_fabsf(__x); }
 243:/Library/DaisyToolchain/0.2.0/arm/arm-none-eabi/include/c++/10.3.1/cmath **** 
 244:/Library/DaisyToolchain/0.2.0/arm/arm-none-eabi/include/c++/10.3.1/cmath ****   inline _GLIBCXX_CONSTEXPR long double
 245:/Library/DaisyToolchain/0.2.0/arm/arm-none-eabi/include/c++/10.3.1/cmath ****   fabs(long double __x)
 246:/Library/DaisyToolchain/0.2.0/arm/arm-none-eabi/include/c++/10.3.1/cmath ****   { return __builtin_fabsl(__x); }
 247:/Library/DaisyToolchain/0.2.0/arm/arm-none-eabi/include/c++/10.3.1/cmath **** #endif
 248:/Library/DaisyToolchain/0.2.0/arm/arm-none-eabi/include/c++/10.3.1/cmath **** 
 249:/Library/DaisyToolchain/0.2.0/arm/arm-none-eabi/include/c++/10.3.1/cmath ****   template<typename _Tp>
 250:/Library/DaisyToolchain/0.2.0/arm/arm-none-eabi/include/c++/10.3.1/cmath ****     inline _GLIBCXX_CONSTEXPR
 251:/Library/DaisyToolchain/0.2.0/arm/arm-none-eabi/include/c++/10.3.1/cmath ****     typename __gnu_cxx::__enable_if<__is_integer<_Tp>::__value,
 252:/Library/DaisyToolchain/0.2.0/arm/arm-none-eabi/include/c++/10.3.1/cmath ****                                     double>::__type
 253:/Library/DaisyToolchain/0.2.0/arm/arm-none-eabi/include/c++/10.3.1/cmath ****     fabs(_Tp __x)
 254:/Library/DaisyToolchain/0.2.0/arm/arm-none-eabi/include/c++/10.3.1/cmath ****     { return __builtin_fabs(__x); }
 255:/Library/DaisyToolchain/0.2.0/arm/arm-none-eabi/include/c++/10.3.1/cmath **** 
 256:/Library/DaisyToolchain/0.2.0/arm/arm-none-eabi/include/c++/10.3.1/cmath ****   using ::floor;
 257:/Library/DaisyToolchain/0.2.0/arm/arm-none-eabi/include/c++/10.3.1/cmath **** 
 258:/Library/DaisyToolchain/0.2.0/arm/arm-none-eabi/include/c++/10.3.1/cmath **** #ifndef __CORRECT_ISO_CPP_MATH_H_PROTO
 259:/Library/DaisyToolchain/0.2.0/arm/arm-none-eabi/include/c++/10.3.1/cmath ****   inline _GLIBCXX_CONSTEXPR float
 260:/Library/DaisyToolchain/0.2.0/arm/arm-none-eabi/include/c++/10.3.1/cmath ****   floor(float __x)
 261:/Library/DaisyToolchain/0.2.0/arm/arm-none-eabi/include/c++/10.3.1/cmath ****   { return __builtin_floorf(__x); }
 107              		.loc 2 261 3
 108              		.cfi_startproc
 109              		@ args = 0, pretend = 0, frame = 8
 110              		@ frame_needed = 1, uses_anonymous_args = 0
 111              		@ link register save eliminated.
 112 0000 80B4     		push	{r7}
 113              		.cfi_def_cfa_offset 4
 114              		.cfi_offset 7, -4
 115 0002 83B0     		sub	sp, sp, #12
 116              		.cfi_def_cfa_offset 16
 117 0004 00AF     		add	r7, sp, #0
 118              		.cfi_def_cfa_register 7
 119 0006 87ED010A 		vstr.32	s0, [r7, #4]
 120              		.loc 2 261 28
 121 000a D7ED017A 		vldr.32	s15, [r7, #4]
 122 000e FBFE677A 		vrintm.f32	s15, s15
 123              		.loc 2 261 35
 124 0012 B0EE670A 		vmov.f32	s0, s15
ARM GAS  /var/folders/1_/rgbtf7293t93c5kflb58xcy40000gn/T//ccMetEze.s 			page 9


 125 0016 0C37     		adds	r7, r7, #12
 126              		.cfi_def_cfa_offset 4
 127 0018 BD46     		mov	sp, r7
 128              		.cfi_def_cfa_register 13
 129              		@ sp needed
 130 001a 5DF8047B 		ldr	r7, [sp], #4
 131              		.cfi_restore 7
 132              		.cfi_def_cfa_offset 0
 133 001e 7047     		bx	lr
 134              		.cfi_endproc
 135              	.LFE170:
 137              		.section	.rodata._ZStL19piecewise_construct,"a"
 138              		.align	2
 141              	_ZStL19piecewise_construct:
 142 0000 00       		.space	1
 143              		.section	.text._ZL20__gthread_key_deletei,"ax",%progbits
 144              		.align	1
 145              		.syntax unified
 146              		.thumb
 147              		.thumb_func
 149              	_ZL20__gthread_key_deletei:
 150              	.LFB1227:
 151              		.file 3 "/Library/DaisyToolchain/0.2.0/arm/arm-none-eabi/include/c++/10.3.1/arm-none-eabi/thumb/v7
   1:/Library/DaisyToolchain/0.2.0/arm/arm-none-eabi/include/c++/10.3.1/arm-none-eabi/thumb/v7e-m+dp/hard/bits/gthr-default.h **** /* Threads compatibility routines for libgcc2 and libobjc.  */
   2:/Library/DaisyToolchain/0.2.0/arm/arm-none-eabi/include/c++/10.3.1/arm-none-eabi/thumb/v7e-m+dp/hard/bits/gthr-default.h **** /* Compile this one with gcc.  */
   3:/Library/DaisyToolchain/0.2.0/arm/arm-none-eabi/include/c++/10.3.1/arm-none-eabi/thumb/v7e-m+dp/hard/bits/gthr-default.h **** /* Copyright (C) 1997-2020 Free Software Foundation, Inc.
   4:/Library/DaisyToolchain/0.2.0/arm/arm-none-eabi/include/c++/10.3.1/arm-none-eabi/thumb/v7e-m+dp/hard/bits/gthr-default.h **** 
   5:/Library/DaisyToolchain/0.2.0/arm/arm-none-eabi/include/c++/10.3.1/arm-none-eabi/thumb/v7e-m+dp/hard/bits/gthr-default.h **** This file is part of GCC.
   6:/Library/DaisyToolchain/0.2.0/arm/arm-none-eabi/include/c++/10.3.1/arm-none-eabi/thumb/v7e-m+dp/hard/bits/gthr-default.h **** 
   7:/Library/DaisyToolchain/0.2.0/arm/arm-none-eabi/include/c++/10.3.1/arm-none-eabi/thumb/v7e-m+dp/hard/bits/gthr-default.h **** GCC is free software; you can redistribute it and/or modify it under
   8:/Library/DaisyToolchain/0.2.0/arm/arm-none-eabi/include/c++/10.3.1/arm-none-eabi/thumb/v7e-m+dp/hard/bits/gthr-default.h **** the terms of the GNU General Public License as published by the Free
   9:/Library/DaisyToolchain/0.2.0/arm/arm-none-eabi/include/c++/10.3.1/arm-none-eabi/thumb/v7e-m+dp/hard/bits/gthr-default.h **** Software Foundation; either version 3, or (at your option) any later
  10:/Library/DaisyToolchain/0.2.0/arm/arm-none-eabi/include/c++/10.3.1/arm-none-eabi/thumb/v7e-m+dp/hard/bits/gthr-default.h **** version.
  11:/Library/DaisyToolchain/0.2.0/arm/arm-none-eabi/include/c++/10.3.1/arm-none-eabi/thumb/v7e-m+dp/hard/bits/gthr-default.h **** 
  12:/Library/DaisyToolchain/0.2.0/arm/arm-none-eabi/include/c++/10.3.1/arm-none-eabi/thumb/v7e-m+dp/hard/bits/gthr-default.h **** GCC is distributed in the hope that it will be useful, but WITHOUT ANY
  13:/Library/DaisyToolchain/0.2.0/arm/arm-none-eabi/include/c++/10.3.1/arm-none-eabi/thumb/v7e-m+dp/hard/bits/gthr-default.h **** WARRANTY; without even the implied warranty of MERCHANTABILITY or
  14:/Library/DaisyToolchain/0.2.0/arm/arm-none-eabi/include/c++/10.3.1/arm-none-eabi/thumb/v7e-m+dp/hard/bits/gthr-default.h **** FITNESS FOR A PARTICULAR PURPOSE.  See the GNU General Public License
  15:/Library/DaisyToolchain/0.2.0/arm/arm-none-eabi/include/c++/10.3.1/arm-none-eabi/thumb/v7e-m+dp/hard/bits/gthr-default.h **** for more details.
  16:/Library/DaisyToolchain/0.2.0/arm/arm-none-eabi/include/c++/10.3.1/arm-none-eabi/thumb/v7e-m+dp/hard/bits/gthr-default.h **** 
  17:/Library/DaisyToolchain/0.2.0/arm/arm-none-eabi/include/c++/10.3.1/arm-none-eabi/thumb/v7e-m+dp/hard/bits/gthr-default.h **** Under Section 7 of GPL version 3, you are granted additional
  18:/Library/DaisyToolchain/0.2.0/arm/arm-none-eabi/include/c++/10.3.1/arm-none-eabi/thumb/v7e-m+dp/hard/bits/gthr-default.h **** permissions described in the GCC Runtime Library Exception, version
  19:/Library/DaisyToolchain/0.2.0/arm/arm-none-eabi/include/c++/10.3.1/arm-none-eabi/thumb/v7e-m+dp/hard/bits/gthr-default.h **** 3.1, as published by the Free Software Foundation.
  20:/Library/DaisyToolchain/0.2.0/arm/arm-none-eabi/include/c++/10.3.1/arm-none-eabi/thumb/v7e-m+dp/hard/bits/gthr-default.h **** 
  21:/Library/DaisyToolchain/0.2.0/arm/arm-none-eabi/include/c++/10.3.1/arm-none-eabi/thumb/v7e-m+dp/hard/bits/gthr-default.h **** You should have received a copy of the GNU General Public License and
  22:/Library/DaisyToolchain/0.2.0/arm/arm-none-eabi/include/c++/10.3.1/arm-none-eabi/thumb/v7e-m+dp/hard/bits/gthr-default.h **** a copy of the GCC Runtime Library Exception along with this program;
  23:/Library/DaisyToolchain/0.2.0/arm/arm-none-eabi/include/c++/10.3.1/arm-none-eabi/thumb/v7e-m+dp/hard/bits/gthr-default.h **** see the files COPYING3 and COPYING.RUNTIME respectively.  If not, see
  24:/Library/DaisyToolchain/0.2.0/arm/arm-none-eabi/include/c++/10.3.1/arm-none-eabi/thumb/v7e-m+dp/hard/bits/gthr-default.h **** <http://www.gnu.org/licenses/>.  */
  25:/Library/DaisyToolchain/0.2.0/arm/arm-none-eabi/include/c++/10.3.1/arm-none-eabi/thumb/v7e-m+dp/hard/bits/gthr-default.h **** 
  26:/Library/DaisyToolchain/0.2.0/arm/arm-none-eabi/include/c++/10.3.1/arm-none-eabi/thumb/v7e-m+dp/hard/bits/gthr-default.h **** #ifndef _GLIBCXX_GCC_GTHR_SINGLE_H
  27:/Library/DaisyToolchain/0.2.0/arm/arm-none-eabi/include/c++/10.3.1/arm-none-eabi/thumb/v7e-m+dp/hard/bits/gthr-default.h **** #define _GLIBCXX_GCC_GTHR_SINGLE_H
  28:/Library/DaisyToolchain/0.2.0/arm/arm-none-eabi/include/c++/10.3.1/arm-none-eabi/thumb/v7e-m+dp/hard/bits/gthr-default.h **** 
  29:/Library/DaisyToolchain/0.2.0/arm/arm-none-eabi/include/c++/10.3.1/arm-none-eabi/thumb/v7e-m+dp/hard/bits/gthr-default.h **** /* Just provide compatibility for mutex handling.  */
  30:/Library/DaisyToolchain/0.2.0/arm/arm-none-eabi/include/c++/10.3.1/arm-none-eabi/thumb/v7e-m+dp/hard/bits/gthr-default.h **** 
  31:/Library/DaisyToolchain/0.2.0/arm/arm-none-eabi/include/c++/10.3.1/arm-none-eabi/thumb/v7e-m+dp/hard/bits/gthr-default.h **** typedef int __gthread_key_t;
  32:/Library/DaisyToolchain/0.2.0/arm/arm-none-eabi/include/c++/10.3.1/arm-none-eabi/thumb/v7e-m+dp/hard/bits/gthr-default.h **** typedef int __gthread_once_t;
  33:/Library/DaisyToolchain/0.2.0/arm/arm-none-eabi/include/c++/10.3.1/arm-none-eabi/thumb/v7e-m+dp/hard/bits/gthr-default.h **** typedef int __gthread_mutex_t;
  34:/Library/DaisyToolchain/0.2.0/arm/arm-none-eabi/include/c++/10.3.1/arm-none-eabi/thumb/v7e-m+dp/hard/bits/gthr-default.h **** typedef int __gthread_recursive_mutex_t;
ARM GAS  /var/folders/1_/rgbtf7293t93c5kflb58xcy40000gn/T//ccMetEze.s 			page 10


  35:/Library/DaisyToolchain/0.2.0/arm/arm-none-eabi/include/c++/10.3.1/arm-none-eabi/thumb/v7e-m+dp/hard/bits/gthr-default.h **** 
  36:/Library/DaisyToolchain/0.2.0/arm/arm-none-eabi/include/c++/10.3.1/arm-none-eabi/thumb/v7e-m+dp/hard/bits/gthr-default.h **** #define __GTHREAD_ONCE_INIT 0
  37:/Library/DaisyToolchain/0.2.0/arm/arm-none-eabi/include/c++/10.3.1/arm-none-eabi/thumb/v7e-m+dp/hard/bits/gthr-default.h **** #define __GTHREAD_MUTEX_INIT 0
  38:/Library/DaisyToolchain/0.2.0/arm/arm-none-eabi/include/c++/10.3.1/arm-none-eabi/thumb/v7e-m+dp/hard/bits/gthr-default.h **** #define __GTHREAD_MUTEX_INIT_FUNCTION(mx) do {} while (0)
  39:/Library/DaisyToolchain/0.2.0/arm/arm-none-eabi/include/c++/10.3.1/arm-none-eabi/thumb/v7e-m+dp/hard/bits/gthr-default.h **** #define __GTHREAD_RECURSIVE_MUTEX_INIT 0
  40:/Library/DaisyToolchain/0.2.0/arm/arm-none-eabi/include/c++/10.3.1/arm-none-eabi/thumb/v7e-m+dp/hard/bits/gthr-default.h **** 
  41:/Library/DaisyToolchain/0.2.0/arm/arm-none-eabi/include/c++/10.3.1/arm-none-eabi/thumb/v7e-m+dp/hard/bits/gthr-default.h **** #define _GLIBCXX_UNUSED __attribute__((__unused__))
  42:/Library/DaisyToolchain/0.2.0/arm/arm-none-eabi/include/c++/10.3.1/arm-none-eabi/thumb/v7e-m+dp/hard/bits/gthr-default.h **** 
  43:/Library/DaisyToolchain/0.2.0/arm/arm-none-eabi/include/c++/10.3.1/arm-none-eabi/thumb/v7e-m+dp/hard/bits/gthr-default.h **** #ifdef _LIBOBJC
  44:/Library/DaisyToolchain/0.2.0/arm/arm-none-eabi/include/c++/10.3.1/arm-none-eabi/thumb/v7e-m+dp/hard/bits/gthr-default.h **** 
  45:/Library/DaisyToolchain/0.2.0/arm/arm-none-eabi/include/c++/10.3.1/arm-none-eabi/thumb/v7e-m+dp/hard/bits/gthr-default.h **** /* Thread local storage for a single thread */
  46:/Library/DaisyToolchain/0.2.0/arm/arm-none-eabi/include/c++/10.3.1/arm-none-eabi/thumb/v7e-m+dp/hard/bits/gthr-default.h **** static void *thread_local_storage = NULL;
  47:/Library/DaisyToolchain/0.2.0/arm/arm-none-eabi/include/c++/10.3.1/arm-none-eabi/thumb/v7e-m+dp/hard/bits/gthr-default.h **** 
  48:/Library/DaisyToolchain/0.2.0/arm/arm-none-eabi/include/c++/10.3.1/arm-none-eabi/thumb/v7e-m+dp/hard/bits/gthr-default.h **** /* Backend initialization functions */
  49:/Library/DaisyToolchain/0.2.0/arm/arm-none-eabi/include/c++/10.3.1/arm-none-eabi/thumb/v7e-m+dp/hard/bits/gthr-default.h **** 
  50:/Library/DaisyToolchain/0.2.0/arm/arm-none-eabi/include/c++/10.3.1/arm-none-eabi/thumb/v7e-m+dp/hard/bits/gthr-default.h **** /* Initialize the threads subsystem.  */
  51:/Library/DaisyToolchain/0.2.0/arm/arm-none-eabi/include/c++/10.3.1/arm-none-eabi/thumb/v7e-m+dp/hard/bits/gthr-default.h **** static inline int
  52:/Library/DaisyToolchain/0.2.0/arm/arm-none-eabi/include/c++/10.3.1/arm-none-eabi/thumb/v7e-m+dp/hard/bits/gthr-default.h **** __gthread_objc_init_thread_system (void)
  53:/Library/DaisyToolchain/0.2.0/arm/arm-none-eabi/include/c++/10.3.1/arm-none-eabi/thumb/v7e-m+dp/hard/bits/gthr-default.h **** {
  54:/Library/DaisyToolchain/0.2.0/arm/arm-none-eabi/include/c++/10.3.1/arm-none-eabi/thumb/v7e-m+dp/hard/bits/gthr-default.h ****   /* No thread support available */
  55:/Library/DaisyToolchain/0.2.0/arm/arm-none-eabi/include/c++/10.3.1/arm-none-eabi/thumb/v7e-m+dp/hard/bits/gthr-default.h ****   return -1;
  56:/Library/DaisyToolchain/0.2.0/arm/arm-none-eabi/include/c++/10.3.1/arm-none-eabi/thumb/v7e-m+dp/hard/bits/gthr-default.h **** }
  57:/Library/DaisyToolchain/0.2.0/arm/arm-none-eabi/include/c++/10.3.1/arm-none-eabi/thumb/v7e-m+dp/hard/bits/gthr-default.h **** 
  58:/Library/DaisyToolchain/0.2.0/arm/arm-none-eabi/include/c++/10.3.1/arm-none-eabi/thumb/v7e-m+dp/hard/bits/gthr-default.h **** /* Close the threads subsystem.  */
  59:/Library/DaisyToolchain/0.2.0/arm/arm-none-eabi/include/c++/10.3.1/arm-none-eabi/thumb/v7e-m+dp/hard/bits/gthr-default.h **** static inline int
  60:/Library/DaisyToolchain/0.2.0/arm/arm-none-eabi/include/c++/10.3.1/arm-none-eabi/thumb/v7e-m+dp/hard/bits/gthr-default.h **** __gthread_objc_close_thread_system (void)
  61:/Library/DaisyToolchain/0.2.0/arm/arm-none-eabi/include/c++/10.3.1/arm-none-eabi/thumb/v7e-m+dp/hard/bits/gthr-default.h **** {
  62:/Library/DaisyToolchain/0.2.0/arm/arm-none-eabi/include/c++/10.3.1/arm-none-eabi/thumb/v7e-m+dp/hard/bits/gthr-default.h ****   /* No thread support available */
  63:/Library/DaisyToolchain/0.2.0/arm/arm-none-eabi/include/c++/10.3.1/arm-none-eabi/thumb/v7e-m+dp/hard/bits/gthr-default.h ****   return -1;
  64:/Library/DaisyToolchain/0.2.0/arm/arm-none-eabi/include/c++/10.3.1/arm-none-eabi/thumb/v7e-m+dp/hard/bits/gthr-default.h **** }
  65:/Library/DaisyToolchain/0.2.0/arm/arm-none-eabi/include/c++/10.3.1/arm-none-eabi/thumb/v7e-m+dp/hard/bits/gthr-default.h **** 
  66:/Library/DaisyToolchain/0.2.0/arm/arm-none-eabi/include/c++/10.3.1/arm-none-eabi/thumb/v7e-m+dp/hard/bits/gthr-default.h **** /* Backend thread functions */
  67:/Library/DaisyToolchain/0.2.0/arm/arm-none-eabi/include/c++/10.3.1/arm-none-eabi/thumb/v7e-m+dp/hard/bits/gthr-default.h **** 
  68:/Library/DaisyToolchain/0.2.0/arm/arm-none-eabi/include/c++/10.3.1/arm-none-eabi/thumb/v7e-m+dp/hard/bits/gthr-default.h **** /* Create a new thread of execution.  */
  69:/Library/DaisyToolchain/0.2.0/arm/arm-none-eabi/include/c++/10.3.1/arm-none-eabi/thumb/v7e-m+dp/hard/bits/gthr-default.h **** static inline objc_thread_t
  70:/Library/DaisyToolchain/0.2.0/arm/arm-none-eabi/include/c++/10.3.1/arm-none-eabi/thumb/v7e-m+dp/hard/bits/gthr-default.h **** __gthread_objc_thread_detach (void (* func)(void *), void * arg _GLIBCXX_UNUSED)
  71:/Library/DaisyToolchain/0.2.0/arm/arm-none-eabi/include/c++/10.3.1/arm-none-eabi/thumb/v7e-m+dp/hard/bits/gthr-default.h **** {
  72:/Library/DaisyToolchain/0.2.0/arm/arm-none-eabi/include/c++/10.3.1/arm-none-eabi/thumb/v7e-m+dp/hard/bits/gthr-default.h ****   /* No thread support available */
  73:/Library/DaisyToolchain/0.2.0/arm/arm-none-eabi/include/c++/10.3.1/arm-none-eabi/thumb/v7e-m+dp/hard/bits/gthr-default.h ****   return NULL;
  74:/Library/DaisyToolchain/0.2.0/arm/arm-none-eabi/include/c++/10.3.1/arm-none-eabi/thumb/v7e-m+dp/hard/bits/gthr-default.h **** }
  75:/Library/DaisyToolchain/0.2.0/arm/arm-none-eabi/include/c++/10.3.1/arm-none-eabi/thumb/v7e-m+dp/hard/bits/gthr-default.h **** 
  76:/Library/DaisyToolchain/0.2.0/arm/arm-none-eabi/include/c++/10.3.1/arm-none-eabi/thumb/v7e-m+dp/hard/bits/gthr-default.h **** /* Set the current thread's priority.  */
  77:/Library/DaisyToolchain/0.2.0/arm/arm-none-eabi/include/c++/10.3.1/arm-none-eabi/thumb/v7e-m+dp/hard/bits/gthr-default.h **** static inline int
  78:/Library/DaisyToolchain/0.2.0/arm/arm-none-eabi/include/c++/10.3.1/arm-none-eabi/thumb/v7e-m+dp/hard/bits/gthr-default.h **** __gthread_objc_thread_set_priority (int priority _GLIBCXX_UNUSED)
  79:/Library/DaisyToolchain/0.2.0/arm/arm-none-eabi/include/c++/10.3.1/arm-none-eabi/thumb/v7e-m+dp/hard/bits/gthr-default.h **** {
  80:/Library/DaisyToolchain/0.2.0/arm/arm-none-eabi/include/c++/10.3.1/arm-none-eabi/thumb/v7e-m+dp/hard/bits/gthr-default.h ****   /* No thread support available */
  81:/Library/DaisyToolchain/0.2.0/arm/arm-none-eabi/include/c++/10.3.1/arm-none-eabi/thumb/v7e-m+dp/hard/bits/gthr-default.h ****   return -1;
  82:/Library/DaisyToolchain/0.2.0/arm/arm-none-eabi/include/c++/10.3.1/arm-none-eabi/thumb/v7e-m+dp/hard/bits/gthr-default.h **** }
  83:/Library/DaisyToolchain/0.2.0/arm/arm-none-eabi/include/c++/10.3.1/arm-none-eabi/thumb/v7e-m+dp/hard/bits/gthr-default.h **** 
  84:/Library/DaisyToolchain/0.2.0/arm/arm-none-eabi/include/c++/10.3.1/arm-none-eabi/thumb/v7e-m+dp/hard/bits/gthr-default.h **** /* Return the current thread's priority.  */
  85:/Library/DaisyToolchain/0.2.0/arm/arm-none-eabi/include/c++/10.3.1/arm-none-eabi/thumb/v7e-m+dp/hard/bits/gthr-default.h **** static inline int
  86:/Library/DaisyToolchain/0.2.0/arm/arm-none-eabi/include/c++/10.3.1/arm-none-eabi/thumb/v7e-m+dp/hard/bits/gthr-default.h **** __gthread_objc_thread_get_priority (void)
  87:/Library/DaisyToolchain/0.2.0/arm/arm-none-eabi/include/c++/10.3.1/arm-none-eabi/thumb/v7e-m+dp/hard/bits/gthr-default.h **** {
  88:/Library/DaisyToolchain/0.2.0/arm/arm-none-eabi/include/c++/10.3.1/arm-none-eabi/thumb/v7e-m+dp/hard/bits/gthr-default.h ****   return OBJC_THREAD_INTERACTIVE_PRIORITY;
  89:/Library/DaisyToolchain/0.2.0/arm/arm-none-eabi/include/c++/10.3.1/arm-none-eabi/thumb/v7e-m+dp/hard/bits/gthr-default.h **** }
  90:/Library/DaisyToolchain/0.2.0/arm/arm-none-eabi/include/c++/10.3.1/arm-none-eabi/thumb/v7e-m+dp/hard/bits/gthr-default.h **** 
  91:/Library/DaisyToolchain/0.2.0/arm/arm-none-eabi/include/c++/10.3.1/arm-none-eabi/thumb/v7e-m+dp/hard/bits/gthr-default.h **** /* Yield our process time to another thread.  */
ARM GAS  /var/folders/1_/rgbtf7293t93c5kflb58xcy40000gn/T//ccMetEze.s 			page 11


  92:/Library/DaisyToolchain/0.2.0/arm/arm-none-eabi/include/c++/10.3.1/arm-none-eabi/thumb/v7e-m+dp/hard/bits/gthr-default.h **** static inline void
  93:/Library/DaisyToolchain/0.2.0/arm/arm-none-eabi/include/c++/10.3.1/arm-none-eabi/thumb/v7e-m+dp/hard/bits/gthr-default.h **** __gthread_objc_thread_yield (void)
  94:/Library/DaisyToolchain/0.2.0/arm/arm-none-eabi/include/c++/10.3.1/arm-none-eabi/thumb/v7e-m+dp/hard/bits/gthr-default.h **** {
  95:/Library/DaisyToolchain/0.2.0/arm/arm-none-eabi/include/c++/10.3.1/arm-none-eabi/thumb/v7e-m+dp/hard/bits/gthr-default.h ****   return;
  96:/Library/DaisyToolchain/0.2.0/arm/arm-none-eabi/include/c++/10.3.1/arm-none-eabi/thumb/v7e-m+dp/hard/bits/gthr-default.h **** }
  97:/Library/DaisyToolchain/0.2.0/arm/arm-none-eabi/include/c++/10.3.1/arm-none-eabi/thumb/v7e-m+dp/hard/bits/gthr-default.h **** 
  98:/Library/DaisyToolchain/0.2.0/arm/arm-none-eabi/include/c++/10.3.1/arm-none-eabi/thumb/v7e-m+dp/hard/bits/gthr-default.h **** /* Terminate the current thread.  */
  99:/Library/DaisyToolchain/0.2.0/arm/arm-none-eabi/include/c++/10.3.1/arm-none-eabi/thumb/v7e-m+dp/hard/bits/gthr-default.h **** static inline int
 100:/Library/DaisyToolchain/0.2.0/arm/arm-none-eabi/include/c++/10.3.1/arm-none-eabi/thumb/v7e-m+dp/hard/bits/gthr-default.h **** __gthread_objc_thread_exit (void)
 101:/Library/DaisyToolchain/0.2.0/arm/arm-none-eabi/include/c++/10.3.1/arm-none-eabi/thumb/v7e-m+dp/hard/bits/gthr-default.h **** {
 102:/Library/DaisyToolchain/0.2.0/arm/arm-none-eabi/include/c++/10.3.1/arm-none-eabi/thumb/v7e-m+dp/hard/bits/gthr-default.h ****   /* No thread support available */
 103:/Library/DaisyToolchain/0.2.0/arm/arm-none-eabi/include/c++/10.3.1/arm-none-eabi/thumb/v7e-m+dp/hard/bits/gthr-default.h ****   /* Should we really exit the program */
 104:/Library/DaisyToolchain/0.2.0/arm/arm-none-eabi/include/c++/10.3.1/arm-none-eabi/thumb/v7e-m+dp/hard/bits/gthr-default.h ****   /* exit (&__objc_thread_exit_status); */
 105:/Library/DaisyToolchain/0.2.0/arm/arm-none-eabi/include/c++/10.3.1/arm-none-eabi/thumb/v7e-m+dp/hard/bits/gthr-default.h ****   return -1;
 106:/Library/DaisyToolchain/0.2.0/arm/arm-none-eabi/include/c++/10.3.1/arm-none-eabi/thumb/v7e-m+dp/hard/bits/gthr-default.h **** }
 107:/Library/DaisyToolchain/0.2.0/arm/arm-none-eabi/include/c++/10.3.1/arm-none-eabi/thumb/v7e-m+dp/hard/bits/gthr-default.h **** 
 108:/Library/DaisyToolchain/0.2.0/arm/arm-none-eabi/include/c++/10.3.1/arm-none-eabi/thumb/v7e-m+dp/hard/bits/gthr-default.h **** /* Returns an integer value which uniquely describes a thread.  */
 109:/Library/DaisyToolchain/0.2.0/arm/arm-none-eabi/include/c++/10.3.1/arm-none-eabi/thumb/v7e-m+dp/hard/bits/gthr-default.h **** static inline objc_thread_t
 110:/Library/DaisyToolchain/0.2.0/arm/arm-none-eabi/include/c++/10.3.1/arm-none-eabi/thumb/v7e-m+dp/hard/bits/gthr-default.h **** __gthread_objc_thread_id (void)
 111:/Library/DaisyToolchain/0.2.0/arm/arm-none-eabi/include/c++/10.3.1/arm-none-eabi/thumb/v7e-m+dp/hard/bits/gthr-default.h **** {
 112:/Library/DaisyToolchain/0.2.0/arm/arm-none-eabi/include/c++/10.3.1/arm-none-eabi/thumb/v7e-m+dp/hard/bits/gthr-default.h ****   /* No thread support, use 1.  */
 113:/Library/DaisyToolchain/0.2.0/arm/arm-none-eabi/include/c++/10.3.1/arm-none-eabi/thumb/v7e-m+dp/hard/bits/gthr-default.h ****   return (objc_thread_t) 1;
 114:/Library/DaisyToolchain/0.2.0/arm/arm-none-eabi/include/c++/10.3.1/arm-none-eabi/thumb/v7e-m+dp/hard/bits/gthr-default.h **** }
 115:/Library/DaisyToolchain/0.2.0/arm/arm-none-eabi/include/c++/10.3.1/arm-none-eabi/thumb/v7e-m+dp/hard/bits/gthr-default.h **** 
 116:/Library/DaisyToolchain/0.2.0/arm/arm-none-eabi/include/c++/10.3.1/arm-none-eabi/thumb/v7e-m+dp/hard/bits/gthr-default.h **** /* Sets the thread's local storage pointer.  */
 117:/Library/DaisyToolchain/0.2.0/arm/arm-none-eabi/include/c++/10.3.1/arm-none-eabi/thumb/v7e-m+dp/hard/bits/gthr-default.h **** static inline int
 118:/Library/DaisyToolchain/0.2.0/arm/arm-none-eabi/include/c++/10.3.1/arm-none-eabi/thumb/v7e-m+dp/hard/bits/gthr-default.h **** __gthread_objc_thread_set_data (void *value)
 119:/Library/DaisyToolchain/0.2.0/arm/arm-none-eabi/include/c++/10.3.1/arm-none-eabi/thumb/v7e-m+dp/hard/bits/gthr-default.h **** {
 120:/Library/DaisyToolchain/0.2.0/arm/arm-none-eabi/include/c++/10.3.1/arm-none-eabi/thumb/v7e-m+dp/hard/bits/gthr-default.h ****   thread_local_storage = value;
 121:/Library/DaisyToolchain/0.2.0/arm/arm-none-eabi/include/c++/10.3.1/arm-none-eabi/thumb/v7e-m+dp/hard/bits/gthr-default.h ****   return 0;
 122:/Library/DaisyToolchain/0.2.0/arm/arm-none-eabi/include/c++/10.3.1/arm-none-eabi/thumb/v7e-m+dp/hard/bits/gthr-default.h **** }
 123:/Library/DaisyToolchain/0.2.0/arm/arm-none-eabi/include/c++/10.3.1/arm-none-eabi/thumb/v7e-m+dp/hard/bits/gthr-default.h **** 
 124:/Library/DaisyToolchain/0.2.0/arm/arm-none-eabi/include/c++/10.3.1/arm-none-eabi/thumb/v7e-m+dp/hard/bits/gthr-default.h **** /* Returns the thread's local storage pointer.  */
 125:/Library/DaisyToolchain/0.2.0/arm/arm-none-eabi/include/c++/10.3.1/arm-none-eabi/thumb/v7e-m+dp/hard/bits/gthr-default.h **** static inline void *
 126:/Library/DaisyToolchain/0.2.0/arm/arm-none-eabi/include/c++/10.3.1/arm-none-eabi/thumb/v7e-m+dp/hard/bits/gthr-default.h **** __gthread_objc_thread_get_data (void)
 127:/Library/DaisyToolchain/0.2.0/arm/arm-none-eabi/include/c++/10.3.1/arm-none-eabi/thumb/v7e-m+dp/hard/bits/gthr-default.h **** {
 128:/Library/DaisyToolchain/0.2.0/arm/arm-none-eabi/include/c++/10.3.1/arm-none-eabi/thumb/v7e-m+dp/hard/bits/gthr-default.h ****   return thread_local_storage;
 129:/Library/DaisyToolchain/0.2.0/arm/arm-none-eabi/include/c++/10.3.1/arm-none-eabi/thumb/v7e-m+dp/hard/bits/gthr-default.h **** }
 130:/Library/DaisyToolchain/0.2.0/arm/arm-none-eabi/include/c++/10.3.1/arm-none-eabi/thumb/v7e-m+dp/hard/bits/gthr-default.h **** 
 131:/Library/DaisyToolchain/0.2.0/arm/arm-none-eabi/include/c++/10.3.1/arm-none-eabi/thumb/v7e-m+dp/hard/bits/gthr-default.h **** /* Backend mutex functions */
 132:/Library/DaisyToolchain/0.2.0/arm/arm-none-eabi/include/c++/10.3.1/arm-none-eabi/thumb/v7e-m+dp/hard/bits/gthr-default.h **** 
 133:/Library/DaisyToolchain/0.2.0/arm/arm-none-eabi/include/c++/10.3.1/arm-none-eabi/thumb/v7e-m+dp/hard/bits/gthr-default.h **** /* Allocate a mutex.  */
 134:/Library/DaisyToolchain/0.2.0/arm/arm-none-eabi/include/c++/10.3.1/arm-none-eabi/thumb/v7e-m+dp/hard/bits/gthr-default.h **** static inline int
 135:/Library/DaisyToolchain/0.2.0/arm/arm-none-eabi/include/c++/10.3.1/arm-none-eabi/thumb/v7e-m+dp/hard/bits/gthr-default.h **** __gthread_objc_mutex_allocate (objc_mutex_t mutex _GLIBCXX_UNUSED)
 136:/Library/DaisyToolchain/0.2.0/arm/arm-none-eabi/include/c++/10.3.1/arm-none-eabi/thumb/v7e-m+dp/hard/bits/gthr-default.h **** {
 137:/Library/DaisyToolchain/0.2.0/arm/arm-none-eabi/include/c++/10.3.1/arm-none-eabi/thumb/v7e-m+dp/hard/bits/gthr-default.h ****   return 0;
 138:/Library/DaisyToolchain/0.2.0/arm/arm-none-eabi/include/c++/10.3.1/arm-none-eabi/thumb/v7e-m+dp/hard/bits/gthr-default.h **** }
 139:/Library/DaisyToolchain/0.2.0/arm/arm-none-eabi/include/c++/10.3.1/arm-none-eabi/thumb/v7e-m+dp/hard/bits/gthr-default.h **** 
 140:/Library/DaisyToolchain/0.2.0/arm/arm-none-eabi/include/c++/10.3.1/arm-none-eabi/thumb/v7e-m+dp/hard/bits/gthr-default.h **** /* Deallocate a mutex.  */
 141:/Library/DaisyToolchain/0.2.0/arm/arm-none-eabi/include/c++/10.3.1/arm-none-eabi/thumb/v7e-m+dp/hard/bits/gthr-default.h **** static inline int
 142:/Library/DaisyToolchain/0.2.0/arm/arm-none-eabi/include/c++/10.3.1/arm-none-eabi/thumb/v7e-m+dp/hard/bits/gthr-default.h **** __gthread_objc_mutex_deallocate (objc_mutex_t mutex _GLIBCXX_UNUSED)
 143:/Library/DaisyToolchain/0.2.0/arm/arm-none-eabi/include/c++/10.3.1/arm-none-eabi/thumb/v7e-m+dp/hard/bits/gthr-default.h **** {
 144:/Library/DaisyToolchain/0.2.0/arm/arm-none-eabi/include/c++/10.3.1/arm-none-eabi/thumb/v7e-m+dp/hard/bits/gthr-default.h ****   return 0;
 145:/Library/DaisyToolchain/0.2.0/arm/arm-none-eabi/include/c++/10.3.1/arm-none-eabi/thumb/v7e-m+dp/hard/bits/gthr-default.h **** }
 146:/Library/DaisyToolchain/0.2.0/arm/arm-none-eabi/include/c++/10.3.1/arm-none-eabi/thumb/v7e-m+dp/hard/bits/gthr-default.h **** 
 147:/Library/DaisyToolchain/0.2.0/arm/arm-none-eabi/include/c++/10.3.1/arm-none-eabi/thumb/v7e-m+dp/hard/bits/gthr-default.h **** /* Grab a lock on a mutex.  */
 148:/Library/DaisyToolchain/0.2.0/arm/arm-none-eabi/include/c++/10.3.1/arm-none-eabi/thumb/v7e-m+dp/hard/bits/gthr-default.h **** static inline int
ARM GAS  /var/folders/1_/rgbtf7293t93c5kflb58xcy40000gn/T//ccMetEze.s 			page 12


 149:/Library/DaisyToolchain/0.2.0/arm/arm-none-eabi/include/c++/10.3.1/arm-none-eabi/thumb/v7e-m+dp/hard/bits/gthr-default.h **** __gthread_objc_mutex_lock (objc_mutex_t mutex _GLIBCXX_UNUSED)
 150:/Library/DaisyToolchain/0.2.0/arm/arm-none-eabi/include/c++/10.3.1/arm-none-eabi/thumb/v7e-m+dp/hard/bits/gthr-default.h **** {
 151:/Library/DaisyToolchain/0.2.0/arm/arm-none-eabi/include/c++/10.3.1/arm-none-eabi/thumb/v7e-m+dp/hard/bits/gthr-default.h ****   /* There can only be one thread, so we always get the lock */
 152:/Library/DaisyToolchain/0.2.0/arm/arm-none-eabi/include/c++/10.3.1/arm-none-eabi/thumb/v7e-m+dp/hard/bits/gthr-default.h ****   return 0;
 153:/Library/DaisyToolchain/0.2.0/arm/arm-none-eabi/include/c++/10.3.1/arm-none-eabi/thumb/v7e-m+dp/hard/bits/gthr-default.h **** }
 154:/Library/DaisyToolchain/0.2.0/arm/arm-none-eabi/include/c++/10.3.1/arm-none-eabi/thumb/v7e-m+dp/hard/bits/gthr-default.h **** 
 155:/Library/DaisyToolchain/0.2.0/arm/arm-none-eabi/include/c++/10.3.1/arm-none-eabi/thumb/v7e-m+dp/hard/bits/gthr-default.h **** /* Try to grab a lock on a mutex.  */
 156:/Library/DaisyToolchain/0.2.0/arm/arm-none-eabi/include/c++/10.3.1/arm-none-eabi/thumb/v7e-m+dp/hard/bits/gthr-default.h **** static inline int
 157:/Library/DaisyToolchain/0.2.0/arm/arm-none-eabi/include/c++/10.3.1/arm-none-eabi/thumb/v7e-m+dp/hard/bits/gthr-default.h **** __gthread_objc_mutex_trylock (objc_mutex_t mutex _GLIBCXX_UNUSED)
 158:/Library/DaisyToolchain/0.2.0/arm/arm-none-eabi/include/c++/10.3.1/arm-none-eabi/thumb/v7e-m+dp/hard/bits/gthr-default.h **** {
 159:/Library/DaisyToolchain/0.2.0/arm/arm-none-eabi/include/c++/10.3.1/arm-none-eabi/thumb/v7e-m+dp/hard/bits/gthr-default.h ****   /* There can only be one thread, so we always get the lock */
 160:/Library/DaisyToolchain/0.2.0/arm/arm-none-eabi/include/c++/10.3.1/arm-none-eabi/thumb/v7e-m+dp/hard/bits/gthr-default.h ****   return 0;
 161:/Library/DaisyToolchain/0.2.0/arm/arm-none-eabi/include/c++/10.3.1/arm-none-eabi/thumb/v7e-m+dp/hard/bits/gthr-default.h **** }
 162:/Library/DaisyToolchain/0.2.0/arm/arm-none-eabi/include/c++/10.3.1/arm-none-eabi/thumb/v7e-m+dp/hard/bits/gthr-default.h **** 
 163:/Library/DaisyToolchain/0.2.0/arm/arm-none-eabi/include/c++/10.3.1/arm-none-eabi/thumb/v7e-m+dp/hard/bits/gthr-default.h **** /* Unlock the mutex */
 164:/Library/DaisyToolchain/0.2.0/arm/arm-none-eabi/include/c++/10.3.1/arm-none-eabi/thumb/v7e-m+dp/hard/bits/gthr-default.h **** static inline int
 165:/Library/DaisyToolchain/0.2.0/arm/arm-none-eabi/include/c++/10.3.1/arm-none-eabi/thumb/v7e-m+dp/hard/bits/gthr-default.h **** __gthread_objc_mutex_unlock (objc_mutex_t mutex _GLIBCXX_UNUSED)
 166:/Library/DaisyToolchain/0.2.0/arm/arm-none-eabi/include/c++/10.3.1/arm-none-eabi/thumb/v7e-m+dp/hard/bits/gthr-default.h **** {
 167:/Library/DaisyToolchain/0.2.0/arm/arm-none-eabi/include/c++/10.3.1/arm-none-eabi/thumb/v7e-m+dp/hard/bits/gthr-default.h ****   return 0;
 168:/Library/DaisyToolchain/0.2.0/arm/arm-none-eabi/include/c++/10.3.1/arm-none-eabi/thumb/v7e-m+dp/hard/bits/gthr-default.h **** }
 169:/Library/DaisyToolchain/0.2.0/arm/arm-none-eabi/include/c++/10.3.1/arm-none-eabi/thumb/v7e-m+dp/hard/bits/gthr-default.h **** 
 170:/Library/DaisyToolchain/0.2.0/arm/arm-none-eabi/include/c++/10.3.1/arm-none-eabi/thumb/v7e-m+dp/hard/bits/gthr-default.h **** /* Backend condition mutex functions */
 171:/Library/DaisyToolchain/0.2.0/arm/arm-none-eabi/include/c++/10.3.1/arm-none-eabi/thumb/v7e-m+dp/hard/bits/gthr-default.h **** 
 172:/Library/DaisyToolchain/0.2.0/arm/arm-none-eabi/include/c++/10.3.1/arm-none-eabi/thumb/v7e-m+dp/hard/bits/gthr-default.h **** /* Allocate a condition.  */
 173:/Library/DaisyToolchain/0.2.0/arm/arm-none-eabi/include/c++/10.3.1/arm-none-eabi/thumb/v7e-m+dp/hard/bits/gthr-default.h **** static inline int
 174:/Library/DaisyToolchain/0.2.0/arm/arm-none-eabi/include/c++/10.3.1/arm-none-eabi/thumb/v7e-m+dp/hard/bits/gthr-default.h **** __gthread_objc_condition_allocate (objc_condition_t condition _GLIBCXX_UNUSED)
 175:/Library/DaisyToolchain/0.2.0/arm/arm-none-eabi/include/c++/10.3.1/arm-none-eabi/thumb/v7e-m+dp/hard/bits/gthr-default.h **** {
 176:/Library/DaisyToolchain/0.2.0/arm/arm-none-eabi/include/c++/10.3.1/arm-none-eabi/thumb/v7e-m+dp/hard/bits/gthr-default.h ****   return 0;
 177:/Library/DaisyToolchain/0.2.0/arm/arm-none-eabi/include/c++/10.3.1/arm-none-eabi/thumb/v7e-m+dp/hard/bits/gthr-default.h **** }
 178:/Library/DaisyToolchain/0.2.0/arm/arm-none-eabi/include/c++/10.3.1/arm-none-eabi/thumb/v7e-m+dp/hard/bits/gthr-default.h **** 
 179:/Library/DaisyToolchain/0.2.0/arm/arm-none-eabi/include/c++/10.3.1/arm-none-eabi/thumb/v7e-m+dp/hard/bits/gthr-default.h **** /* Deallocate a condition.  */
 180:/Library/DaisyToolchain/0.2.0/arm/arm-none-eabi/include/c++/10.3.1/arm-none-eabi/thumb/v7e-m+dp/hard/bits/gthr-default.h **** static inline int
 181:/Library/DaisyToolchain/0.2.0/arm/arm-none-eabi/include/c++/10.3.1/arm-none-eabi/thumb/v7e-m+dp/hard/bits/gthr-default.h **** __gthread_objc_condition_deallocate (objc_condition_t condition _GLIBCXX_UNUSED)
 182:/Library/DaisyToolchain/0.2.0/arm/arm-none-eabi/include/c++/10.3.1/arm-none-eabi/thumb/v7e-m+dp/hard/bits/gthr-default.h **** {
 183:/Library/DaisyToolchain/0.2.0/arm/arm-none-eabi/include/c++/10.3.1/arm-none-eabi/thumb/v7e-m+dp/hard/bits/gthr-default.h ****   return 0;
 184:/Library/DaisyToolchain/0.2.0/arm/arm-none-eabi/include/c++/10.3.1/arm-none-eabi/thumb/v7e-m+dp/hard/bits/gthr-default.h **** }
 185:/Library/DaisyToolchain/0.2.0/arm/arm-none-eabi/include/c++/10.3.1/arm-none-eabi/thumb/v7e-m+dp/hard/bits/gthr-default.h **** 
 186:/Library/DaisyToolchain/0.2.0/arm/arm-none-eabi/include/c++/10.3.1/arm-none-eabi/thumb/v7e-m+dp/hard/bits/gthr-default.h **** /* Wait on the condition */
 187:/Library/DaisyToolchain/0.2.0/arm/arm-none-eabi/include/c++/10.3.1/arm-none-eabi/thumb/v7e-m+dp/hard/bits/gthr-default.h **** static inline int
 188:/Library/DaisyToolchain/0.2.0/arm/arm-none-eabi/include/c++/10.3.1/arm-none-eabi/thumb/v7e-m+dp/hard/bits/gthr-default.h **** __gthread_objc_condition_wait (objc_condition_t condition _GLIBCXX_UNUSED,
 189:/Library/DaisyToolchain/0.2.0/arm/arm-none-eabi/include/c++/10.3.1/arm-none-eabi/thumb/v7e-m+dp/hard/bits/gthr-default.h **** 			       objc_mutex_t mutex _GLIBCXX_UNUSED)
 190:/Library/DaisyToolchain/0.2.0/arm/arm-none-eabi/include/c++/10.3.1/arm-none-eabi/thumb/v7e-m+dp/hard/bits/gthr-default.h **** {
 191:/Library/DaisyToolchain/0.2.0/arm/arm-none-eabi/include/c++/10.3.1/arm-none-eabi/thumb/v7e-m+dp/hard/bits/gthr-default.h ****   return 0;
 192:/Library/DaisyToolchain/0.2.0/arm/arm-none-eabi/include/c++/10.3.1/arm-none-eabi/thumb/v7e-m+dp/hard/bits/gthr-default.h **** }
 193:/Library/DaisyToolchain/0.2.0/arm/arm-none-eabi/include/c++/10.3.1/arm-none-eabi/thumb/v7e-m+dp/hard/bits/gthr-default.h **** 
 194:/Library/DaisyToolchain/0.2.0/arm/arm-none-eabi/include/c++/10.3.1/arm-none-eabi/thumb/v7e-m+dp/hard/bits/gthr-default.h **** /* Wake up all threads waiting on this condition.  */
 195:/Library/DaisyToolchain/0.2.0/arm/arm-none-eabi/include/c++/10.3.1/arm-none-eabi/thumb/v7e-m+dp/hard/bits/gthr-default.h **** static inline int
 196:/Library/DaisyToolchain/0.2.0/arm/arm-none-eabi/include/c++/10.3.1/arm-none-eabi/thumb/v7e-m+dp/hard/bits/gthr-default.h **** __gthread_objc_condition_broadcast (objc_condition_t condition _GLIBCXX_UNUSED)
 197:/Library/DaisyToolchain/0.2.0/arm/arm-none-eabi/include/c++/10.3.1/arm-none-eabi/thumb/v7e-m+dp/hard/bits/gthr-default.h **** {
 198:/Library/DaisyToolchain/0.2.0/arm/arm-none-eabi/include/c++/10.3.1/arm-none-eabi/thumb/v7e-m+dp/hard/bits/gthr-default.h ****   return 0;
 199:/Library/DaisyToolchain/0.2.0/arm/arm-none-eabi/include/c++/10.3.1/arm-none-eabi/thumb/v7e-m+dp/hard/bits/gthr-default.h **** }
 200:/Library/DaisyToolchain/0.2.0/arm/arm-none-eabi/include/c++/10.3.1/arm-none-eabi/thumb/v7e-m+dp/hard/bits/gthr-default.h **** 
 201:/Library/DaisyToolchain/0.2.0/arm/arm-none-eabi/include/c++/10.3.1/arm-none-eabi/thumb/v7e-m+dp/hard/bits/gthr-default.h **** /* Wake up one thread waiting on this condition.  */
 202:/Library/DaisyToolchain/0.2.0/arm/arm-none-eabi/include/c++/10.3.1/arm-none-eabi/thumb/v7e-m+dp/hard/bits/gthr-default.h **** static inline int
 203:/Library/DaisyToolchain/0.2.0/arm/arm-none-eabi/include/c++/10.3.1/arm-none-eabi/thumb/v7e-m+dp/hard/bits/gthr-default.h **** __gthread_objc_condition_signal (objc_condition_t condition _GLIBCXX_UNUSED)
 204:/Library/DaisyToolchain/0.2.0/arm/arm-none-eabi/include/c++/10.3.1/arm-none-eabi/thumb/v7e-m+dp/hard/bits/gthr-default.h **** {
 205:/Library/DaisyToolchain/0.2.0/arm/arm-none-eabi/include/c++/10.3.1/arm-none-eabi/thumb/v7e-m+dp/hard/bits/gthr-default.h ****   return 0;
ARM GAS  /var/folders/1_/rgbtf7293t93c5kflb58xcy40000gn/T//ccMetEze.s 			page 13


 206:/Library/DaisyToolchain/0.2.0/arm/arm-none-eabi/include/c++/10.3.1/arm-none-eabi/thumb/v7e-m+dp/hard/bits/gthr-default.h **** }
 207:/Library/DaisyToolchain/0.2.0/arm/arm-none-eabi/include/c++/10.3.1/arm-none-eabi/thumb/v7e-m+dp/hard/bits/gthr-default.h **** 
 208:/Library/DaisyToolchain/0.2.0/arm/arm-none-eabi/include/c++/10.3.1/arm-none-eabi/thumb/v7e-m+dp/hard/bits/gthr-default.h **** #else /* _LIBOBJC */
 209:/Library/DaisyToolchain/0.2.0/arm/arm-none-eabi/include/c++/10.3.1/arm-none-eabi/thumb/v7e-m+dp/hard/bits/gthr-default.h **** 
 210:/Library/DaisyToolchain/0.2.0/arm/arm-none-eabi/include/c++/10.3.1/arm-none-eabi/thumb/v7e-m+dp/hard/bits/gthr-default.h **** static inline int
 211:/Library/DaisyToolchain/0.2.0/arm/arm-none-eabi/include/c++/10.3.1/arm-none-eabi/thumb/v7e-m+dp/hard/bits/gthr-default.h **** __gthread_active_p (void)
 212:/Library/DaisyToolchain/0.2.0/arm/arm-none-eabi/include/c++/10.3.1/arm-none-eabi/thumb/v7e-m+dp/hard/bits/gthr-default.h **** {
 213:/Library/DaisyToolchain/0.2.0/arm/arm-none-eabi/include/c++/10.3.1/arm-none-eabi/thumb/v7e-m+dp/hard/bits/gthr-default.h ****   return 0;
 214:/Library/DaisyToolchain/0.2.0/arm/arm-none-eabi/include/c++/10.3.1/arm-none-eabi/thumb/v7e-m+dp/hard/bits/gthr-default.h **** }
 215:/Library/DaisyToolchain/0.2.0/arm/arm-none-eabi/include/c++/10.3.1/arm-none-eabi/thumb/v7e-m+dp/hard/bits/gthr-default.h **** 
 216:/Library/DaisyToolchain/0.2.0/arm/arm-none-eabi/include/c++/10.3.1/arm-none-eabi/thumb/v7e-m+dp/hard/bits/gthr-default.h **** static inline int
 217:/Library/DaisyToolchain/0.2.0/arm/arm-none-eabi/include/c++/10.3.1/arm-none-eabi/thumb/v7e-m+dp/hard/bits/gthr-default.h **** __gthread_once (__gthread_once_t *__once _GLIBCXX_UNUSED, void (*__func) (void) _GLIBCXX_UNUSED)
 218:/Library/DaisyToolchain/0.2.0/arm/arm-none-eabi/include/c++/10.3.1/arm-none-eabi/thumb/v7e-m+dp/hard/bits/gthr-default.h **** {
 219:/Library/DaisyToolchain/0.2.0/arm/arm-none-eabi/include/c++/10.3.1/arm-none-eabi/thumb/v7e-m+dp/hard/bits/gthr-default.h ****   return 0;
 220:/Library/DaisyToolchain/0.2.0/arm/arm-none-eabi/include/c++/10.3.1/arm-none-eabi/thumb/v7e-m+dp/hard/bits/gthr-default.h **** }
 221:/Library/DaisyToolchain/0.2.0/arm/arm-none-eabi/include/c++/10.3.1/arm-none-eabi/thumb/v7e-m+dp/hard/bits/gthr-default.h **** 
 222:/Library/DaisyToolchain/0.2.0/arm/arm-none-eabi/include/c++/10.3.1/arm-none-eabi/thumb/v7e-m+dp/hard/bits/gthr-default.h **** static inline int _GLIBCXX_UNUSED
 223:/Library/DaisyToolchain/0.2.0/arm/arm-none-eabi/include/c++/10.3.1/arm-none-eabi/thumb/v7e-m+dp/hard/bits/gthr-default.h **** __gthread_key_create (__gthread_key_t *__key _GLIBCXX_UNUSED, void (*__func) (void *) _GLIBCXX_UNUS
 224:/Library/DaisyToolchain/0.2.0/arm/arm-none-eabi/include/c++/10.3.1/arm-none-eabi/thumb/v7e-m+dp/hard/bits/gthr-default.h **** {
 225:/Library/DaisyToolchain/0.2.0/arm/arm-none-eabi/include/c++/10.3.1/arm-none-eabi/thumb/v7e-m+dp/hard/bits/gthr-default.h ****   return 0;
 226:/Library/DaisyToolchain/0.2.0/arm/arm-none-eabi/include/c++/10.3.1/arm-none-eabi/thumb/v7e-m+dp/hard/bits/gthr-default.h **** }
 227:/Library/DaisyToolchain/0.2.0/arm/arm-none-eabi/include/c++/10.3.1/arm-none-eabi/thumb/v7e-m+dp/hard/bits/gthr-default.h **** 
 228:/Library/DaisyToolchain/0.2.0/arm/arm-none-eabi/include/c++/10.3.1/arm-none-eabi/thumb/v7e-m+dp/hard/bits/gthr-default.h **** static int _GLIBCXX_UNUSED
 229:/Library/DaisyToolchain/0.2.0/arm/arm-none-eabi/include/c++/10.3.1/arm-none-eabi/thumb/v7e-m+dp/hard/bits/gthr-default.h **** __gthread_key_delete (__gthread_key_t __key _GLIBCXX_UNUSED)
 230:/Library/DaisyToolchain/0.2.0/arm/arm-none-eabi/include/c++/10.3.1/arm-none-eabi/thumb/v7e-m+dp/hard/bits/gthr-default.h **** {
 152              		.loc 3 230 1
 153              		.cfi_startproc
 154              		@ args = 0, pretend = 0, frame = 8
 155              		@ frame_needed = 1, uses_anonymous_args = 0
 156              		@ link register save eliminated.
 157 0000 80B4     		push	{r7}
 158              		.cfi_def_cfa_offset 4
 159              		.cfi_offset 7, -4
 160 0002 83B0     		sub	sp, sp, #12
 161              		.cfi_def_cfa_offset 16
 162 0004 00AF     		add	r7, sp, #0
 163              		.cfi_def_cfa_register 7
 164 0006 7860     		str	r0, [r7, #4]
 231:/Library/DaisyToolchain/0.2.0/arm/arm-none-eabi/include/c++/10.3.1/arm-none-eabi/thumb/v7e-m+dp/hard/bits/gthr-default.h ****   return 0;
 165              		.loc 3 231 10
 166 0008 0023     		movs	r3, #0
 232:/Library/DaisyToolchain/0.2.0/arm/arm-none-eabi/include/c++/10.3.1/arm-none-eabi/thumb/v7e-m+dp/hard/bits/gthr-default.h **** }
 167              		.loc 3 232 1
 168 000a 1846     		mov	r0, r3
 169 000c 0C37     		adds	r7, r7, #12
 170              		.cfi_def_cfa_offset 4
 171 000e BD46     		mov	sp, r7
 172              		.cfi_def_cfa_register 13
 173              		@ sp needed
 174 0010 5DF8047B 		ldr	r7, [sp], #4
 175              		.cfi_restore 7
 176              		.cfi_def_cfa_offset 0
 177 0014 7047     		bx	lr
 178              		.cfi_endproc
 179              	.LFE1227:
 181              		.section	.rodata._ZN7daisyspL9kRandFracE,"a"
 182              		.align	2
ARM GAS  /var/folders/1_/rgbtf7293t93c5kflb58xcy40000gn/T//ccMetEze.s 			page 14


 185              	_ZN7daisyspL9kRandFracE:
 186 0000 00000030 		.word	805306368
 187              		.section	.rodata._ZN7daisyspL11kOneTwelfthE,"a"
 188              		.align	2
 191              	_ZN7daisyspL11kOneTwelfthE:
 192 0000 ABAAAA3D 		.word	1034594987
 193              		.section	.text._ZN7daisysp4fmaxEff,"axG",%progbits,_ZN7daisysp4fmaxEff,comdat
 194              		.align	1
 195              		.weak	_ZN7daisysp4fmaxEff
 196              		.syntax unified
 197              		.thumb
 198              		.thumb_func
 200              	_ZN7daisysp4fmaxEff:
 201              	.LFB2796:
 202              		.file 4 "../DaisyExamples/DaisySP//Source/Utility/dsp.h"
   1:../DaisyExamples/DaisySP//Source/Utility/dsp.h **** /*
   2:../DaisyExamples/DaisySP//Source/Utility/dsp.h **** Copyright (c) 2020 Electrosmith, Corp, Emilie Gillet
   3:../DaisyExamples/DaisySP//Source/Utility/dsp.h **** 
   4:../DaisyExamples/DaisySP//Source/Utility/dsp.h **** Use of this source code is governed by an MIT-style
   5:../DaisyExamples/DaisySP//Source/Utility/dsp.h **** license that can be found in the LICENSE file or at
   6:../DaisyExamples/DaisySP//Source/Utility/dsp.h **** https://opensource.org/licenses/MIT.
   7:../DaisyExamples/DaisySP//Source/Utility/dsp.h **** */
   8:../DaisyExamples/DaisySP//Source/Utility/dsp.h **** 
   9:../DaisyExamples/DaisySP//Source/Utility/dsp.h **** /** Helpful defines, functions, and other utilities for use in/with daisysp modules.
  10:../DaisyExamples/DaisySP//Source/Utility/dsp.h **** */
  11:../DaisyExamples/DaisySP//Source/Utility/dsp.h **** #pragma once
  12:../DaisyExamples/DaisySP//Source/Utility/dsp.h **** #ifndef DSY_CORE_DSP
  13:../DaisyExamples/DaisySP//Source/Utility/dsp.h **** #define DSY_CORE_DSP
  14:../DaisyExamples/DaisySP//Source/Utility/dsp.h **** #include <cassert>
  15:../DaisyExamples/DaisySP//Source/Utility/dsp.h **** #include <cstdint>
  16:../DaisyExamples/DaisySP//Source/Utility/dsp.h **** #include <random>
  17:../DaisyExamples/DaisySP//Source/Utility/dsp.h **** #include <cmath>
  18:../DaisyExamples/DaisySP//Source/Utility/dsp.h **** 
  19:../DaisyExamples/DaisySP//Source/Utility/dsp.h **** /** PIs
  20:../DaisyExamples/DaisySP//Source/Utility/dsp.h **** */
  21:../DaisyExamples/DaisySP//Source/Utility/dsp.h **** #define PI_F 3.1415927410125732421875f
  22:../DaisyExamples/DaisySP//Source/Utility/dsp.h **** #define TWOPI_F (2.0f * PI_F)
  23:../DaisyExamples/DaisySP//Source/Utility/dsp.h **** #define HALFPI_F (PI_F * 0.5f)
  24:../DaisyExamples/DaisySP//Source/Utility/dsp.h **** #define DSY_MIN(in, mn) (in < mn ? in : mn)
  25:../DaisyExamples/DaisySP//Source/Utility/dsp.h **** #define DSY_MAX(in, mx) (in > mx ? in : mx)
  26:../DaisyExamples/DaisySP//Source/Utility/dsp.h **** #define DSY_CLAMP(in, mn, mx) (DSY_MIN(DSY_MAX(in, mn), mx))
  27:../DaisyExamples/DaisySP//Source/Utility/dsp.h **** #define DSY_COUNTOF(_arr) (sizeof(_arr) / sizeof(_arr[0]))
  28:../DaisyExamples/DaisySP//Source/Utility/dsp.h **** 
  29:../DaisyExamples/DaisySP//Source/Utility/dsp.h **** namespace daisysp
  30:../DaisyExamples/DaisySP//Source/Utility/dsp.h **** {
  31:../DaisyExamples/DaisySP//Source/Utility/dsp.h **** //Avoids division for random floats. e.g. rand() * kRandFrac
  32:../DaisyExamples/DaisySP//Source/Utility/dsp.h **** static constexpr float kRandFrac = 1.f / (float)RAND_MAX;
  33:../DaisyExamples/DaisySP//Source/Utility/dsp.h **** 
  34:../DaisyExamples/DaisySP//Source/Utility/dsp.h **** //Convert from semitones to other units. e.g. 2 ^ (kOneTwelfth * x)
  35:../DaisyExamples/DaisySP//Source/Utility/dsp.h **** static constexpr float kOneTwelfth = 1.f / 12.f;
  36:../DaisyExamples/DaisySP//Source/Utility/dsp.h **** 
  37:../DaisyExamples/DaisySP//Source/Utility/dsp.h **** /** efficient floating point min/max
  38:../DaisyExamples/DaisySP//Source/Utility/dsp.h **** c/o stephen mccaul
  39:../DaisyExamples/DaisySP//Source/Utility/dsp.h **** */
  40:../DaisyExamples/DaisySP//Source/Utility/dsp.h **** inline float fmax(float a, float b)
  41:../DaisyExamples/DaisySP//Source/Utility/dsp.h **** {
 203              		.loc 4 41 1
ARM GAS  /var/folders/1_/rgbtf7293t93c5kflb58xcy40000gn/T//ccMetEze.s 			page 15


 204              		.cfi_startproc
 205              		@ args = 0, pretend = 0, frame = 16
 206              		@ frame_needed = 1, uses_anonymous_args = 0
 207              		@ link register save eliminated.
 208 0000 80B4     		push	{r7}
 209              		.cfi_def_cfa_offset 4
 210              		.cfi_offset 7, -4
 211 0002 85B0     		sub	sp, sp, #20
 212              		.cfi_def_cfa_offset 24
 213 0004 00AF     		add	r7, sp, #0
 214              		.cfi_def_cfa_register 7
 215 0006 87ED010A 		vstr.32	s0, [r7, #4]
 216 000a C7ED000A 		vstr.32	s1, [r7]
  42:../DaisyExamples/DaisySP//Source/Utility/dsp.h ****     float r;
  43:../DaisyExamples/DaisySP//Source/Utility/dsp.h **** #ifdef __arm__
  44:../DaisyExamples/DaisySP//Source/Utility/dsp.h ****     asm("vmaxnm.f32 %[d], %[n], %[m]" : [d] "=t"(r) : [n] "t"(a), [m] "t"(b) :);
 217              		.loc 4 44 5
 218 000e D7ED017A 		vldr.32	s15, [r7, #4]
 219 0012 97ED007A 		vldr.32	s14, [r7]
 220              		.syntax unified
 221              	@ 44 "../DaisyExamples/DaisySP//Source/Utility/dsp.h" 1
 222 0016 C7FE877A 		vmaxnm.f32 s15, s15, s14
 223              	@ 0 "" 2
 224              		.thumb
 225              		.syntax unified
 226 001a C7ED037A 		vstr.32	s15, [r7, #12]
  45:../DaisyExamples/DaisySP//Source/Utility/dsp.h **** #else
  46:../DaisyExamples/DaisySP//Source/Utility/dsp.h ****     r = (a > b) ? a : b;
  47:../DaisyExamples/DaisySP//Source/Utility/dsp.h **** #endif // __arm__
  48:../DaisyExamples/DaisySP//Source/Utility/dsp.h ****     return r;
 227              		.loc 4 48 12
 228 001e FB68     		ldr	r3, [r7, #12]	@ float
 229 0020 07EE903A 		vmov	s15, r3
  49:../DaisyExamples/DaisySP//Source/Utility/dsp.h **** }
 230              		.loc 4 49 1
 231 0024 B0EE670A 		vmov.f32	s0, s15
 232 0028 1437     		adds	r7, r7, #20
 233              		.cfi_def_cfa_offset 4
 234 002a BD46     		mov	sp, r7
 235              		.cfi_def_cfa_register 13
 236              		@ sp needed
 237 002c 5DF8047B 		ldr	r7, [sp], #4
 238              		.cfi_restore 7
 239              		.cfi_def_cfa_offset 0
 240 0030 7047     		bx	lr
 241              		.cfi_endproc
 242              	.LFE2796:
 244              		.section	.text._ZN7daisysp4fminEff,"axG",%progbits,_ZN7daisysp4fminEff,comdat
 245              		.align	1
 246              		.weak	_ZN7daisysp4fminEff
 247              		.syntax unified
 248              		.thumb
 249              		.thumb_func
 251              	_ZN7daisysp4fminEff:
 252              	.LFB2797:
  50:../DaisyExamples/DaisySP//Source/Utility/dsp.h **** 
  51:../DaisyExamples/DaisySP//Source/Utility/dsp.h **** inline float fmin(float a, float b)
ARM GAS  /var/folders/1_/rgbtf7293t93c5kflb58xcy40000gn/T//ccMetEze.s 			page 16


  52:../DaisyExamples/DaisySP//Source/Utility/dsp.h **** {
 253              		.loc 4 52 1
 254              		.cfi_startproc
 255              		@ args = 0, pretend = 0, frame = 16
 256              		@ frame_needed = 1, uses_anonymous_args = 0
 257              		@ link register save eliminated.
 258 0000 80B4     		push	{r7}
 259              		.cfi_def_cfa_offset 4
 260              		.cfi_offset 7, -4
 261 0002 85B0     		sub	sp, sp, #20
 262              		.cfi_def_cfa_offset 24
 263 0004 00AF     		add	r7, sp, #0
 264              		.cfi_def_cfa_register 7
 265 0006 87ED010A 		vstr.32	s0, [r7, #4]
 266 000a C7ED000A 		vstr.32	s1, [r7]
  53:../DaisyExamples/DaisySP//Source/Utility/dsp.h ****     float r;
  54:../DaisyExamples/DaisySP//Source/Utility/dsp.h **** #ifdef __arm__
  55:../DaisyExamples/DaisySP//Source/Utility/dsp.h ****     asm("vminnm.f32 %[d], %[n], %[m]" : [d] "=t"(r) : [n] "t"(a), [m] "t"(b) :);
 267              		.loc 4 55 5
 268 000e D7ED017A 		vldr.32	s15, [r7, #4]
 269 0012 97ED007A 		vldr.32	s14, [r7]
 270              		.syntax unified
 271              	@ 55 "../DaisyExamples/DaisySP//Source/Utility/dsp.h" 1
 272 0016 C7FEC77A 		vminnm.f32 s15, s15, s14
 273              	@ 0 "" 2
 274              		.thumb
 275              		.syntax unified
 276 001a C7ED037A 		vstr.32	s15, [r7, #12]
  56:../DaisyExamples/DaisySP//Source/Utility/dsp.h **** #else
  57:../DaisyExamples/DaisySP//Source/Utility/dsp.h ****     r = (a < b) ? a : b;
  58:../DaisyExamples/DaisySP//Source/Utility/dsp.h **** #endif // __arm__
  59:../DaisyExamples/DaisySP//Source/Utility/dsp.h ****     return r;
 277              		.loc 4 59 12
 278 001e FB68     		ldr	r3, [r7, #12]	@ float
 279 0020 07EE903A 		vmov	s15, r3
  60:../DaisyExamples/DaisySP//Source/Utility/dsp.h **** }
 280              		.loc 4 60 1
 281 0024 B0EE670A 		vmov.f32	s0, s15
 282 0028 1437     		adds	r7, r7, #20
 283              		.cfi_def_cfa_offset 4
 284 002a BD46     		mov	sp, r7
 285              		.cfi_def_cfa_register 13
 286              		@ sp needed
 287 002c 5DF8047B 		ldr	r7, [sp], #4
 288              		.cfi_restore 7
 289              		.cfi_def_cfa_offset 0
 290 0030 7047     		bx	lr
 291              		.cfi_endproc
 292              	.LFE2797:
 294              		.section	.text._ZN7daisysp6fclampEfff,"axG",%progbits,_ZN7daisysp6fclampEfff,comdat
 295              		.align	1
 296              		.weak	_ZN7daisysp6fclampEfff
 297              		.syntax unified
 298              		.thumb
 299              		.thumb_func
 301              	_ZN7daisysp6fclampEfff:
 302              	.LFB2798:
ARM GAS  /var/folders/1_/rgbtf7293t93c5kflb58xcy40000gn/T//ccMetEze.s 			page 17


  61:../DaisyExamples/DaisySP//Source/Utility/dsp.h **** 
  62:../DaisyExamples/DaisySP//Source/Utility/dsp.h **** /** quick fp clamp
  63:../DaisyExamples/DaisySP//Source/Utility/dsp.h **** */
  64:../DaisyExamples/DaisySP//Source/Utility/dsp.h **** inline float fclamp(float in, float min, float max)
  65:../DaisyExamples/DaisySP//Source/Utility/dsp.h **** {
 303              		.loc 4 65 1
 304              		.cfi_startproc
 305              		@ args = 0, pretend = 0, frame = 16
 306              		@ frame_needed = 1, uses_anonymous_args = 0
 307 0000 80B5     		push	{r7, lr}
 308              		.cfi_def_cfa_offset 8
 309              		.cfi_offset 7, -8
 310              		.cfi_offset 14, -4
 311 0002 84B0     		sub	sp, sp, #16
 312              		.cfi_def_cfa_offset 24
 313 0004 00AF     		add	r7, sp, #0
 314              		.cfi_def_cfa_register 7
 315 0006 87ED030A 		vstr.32	s0, [r7, #12]
 316 000a C7ED020A 		vstr.32	s1, [r7, #8]
 317 000e 87ED011A 		vstr.32	s2, [r7, #4]
  66:../DaisyExamples/DaisySP//Source/Utility/dsp.h ****     return fmin(fmax(in, min), max);
 318              		.loc 4 66 16
 319 0012 D7ED020A 		vldr.32	s1, [r7, #8]
 320 0016 97ED030A 		vldr.32	s0, [r7, #12]
 321 001a FFF7FEFF 		bl	_ZN7daisysp4fmaxEff
 322 001e F0EE407A 		vmov.f32	s15, s0
 323 0022 D7ED010A 		vldr.32	s1, [r7, #4]
 324 0026 B0EE670A 		vmov.f32	s0, s15
 325 002a FFF7FEFF 		bl	_ZN7daisysp4fminEff
 326 002e F0EE407A 		vmov.f32	s15, s0
  67:../DaisyExamples/DaisySP//Source/Utility/dsp.h **** }
 327              		.loc 4 67 1
 328 0032 B0EE670A 		vmov.f32	s0, s15
 329 0036 1037     		adds	r7, r7, #16
 330              		.cfi_def_cfa_offset 8
 331 0038 BD46     		mov	sp, r7
 332              		.cfi_def_cfa_register 13
 333              		@ sp needed
 334 003a 80BD     		pop	{r7, pc}
 335              		.cfi_endproc
 336              	.LFE2798:
 338              		.section	.text._ZN7daisysp4fmapEfffNS_7MappingE,"axG",%progbits,_ZN7daisysp4fmapEfffNS_7MappingE,c
 339              		.align	1
 340              		.weak	_ZN7daisysp4fmapEfffNS_7MappingE
 341              		.syntax unified
 342              		.thumb
 343              		.thumb_func
 345              	_ZN7daisysp4fmapEfffNS_7MappingE:
 346              	.LFB2807:
  68:../DaisyExamples/DaisySP//Source/Utility/dsp.h **** 
  69:../DaisyExamples/DaisySP//Source/Utility/dsp.h **** /** From Musicdsp.org "Fast power and root estimates for 32bit floats)
  70:../DaisyExamples/DaisySP//Source/Utility/dsp.h **** Original code by Stefan Stenzel
  71:../DaisyExamples/DaisySP//Source/Utility/dsp.h **** These are approximations
  72:../DaisyExamples/DaisySP//Source/Utility/dsp.h **** */
  73:../DaisyExamples/DaisySP//Source/Utility/dsp.h **** inline float fastpower(float f, int n)
  74:../DaisyExamples/DaisySP//Source/Utility/dsp.h **** {
  75:../DaisyExamples/DaisySP//Source/Utility/dsp.h ****     long *lp, l;
ARM GAS  /var/folders/1_/rgbtf7293t93c5kflb58xcy40000gn/T//ccMetEze.s 			page 18


  76:../DaisyExamples/DaisySP//Source/Utility/dsp.h ****     lp = (long *)(&f);
  77:../DaisyExamples/DaisySP//Source/Utility/dsp.h ****     l  = *lp;
  78:../DaisyExamples/DaisySP//Source/Utility/dsp.h ****     l -= 0x3F800000;
  79:../DaisyExamples/DaisySP//Source/Utility/dsp.h ****     l <<= (n - 1);
  80:../DaisyExamples/DaisySP//Source/Utility/dsp.h ****     l += 0x3F800000;
  81:../DaisyExamples/DaisySP//Source/Utility/dsp.h ****     *lp = l;
  82:../DaisyExamples/DaisySP//Source/Utility/dsp.h ****     return f;
  83:../DaisyExamples/DaisySP//Source/Utility/dsp.h **** }
  84:../DaisyExamples/DaisySP//Source/Utility/dsp.h **** 
  85:../DaisyExamples/DaisySP//Source/Utility/dsp.h **** inline float fastroot(float f, int n)
  86:../DaisyExamples/DaisySP//Source/Utility/dsp.h **** {
  87:../DaisyExamples/DaisySP//Source/Utility/dsp.h ****     long *lp, l;
  88:../DaisyExamples/DaisySP//Source/Utility/dsp.h ****     lp = (long *)(&f);
  89:../DaisyExamples/DaisySP//Source/Utility/dsp.h ****     l  = *lp;
  90:../DaisyExamples/DaisySP//Source/Utility/dsp.h ****     l -= 0x3F800000;
  91:../DaisyExamples/DaisySP//Source/Utility/dsp.h ****     l >>= (n - 1);
  92:../DaisyExamples/DaisySP//Source/Utility/dsp.h ****     l += 0x3F800000;
  93:../DaisyExamples/DaisySP//Source/Utility/dsp.h ****     *lp = l;
  94:../DaisyExamples/DaisySP//Source/Utility/dsp.h ****     return f;
  95:../DaisyExamples/DaisySP//Source/Utility/dsp.h **** }
  96:../DaisyExamples/DaisySP//Source/Utility/dsp.h **** 
  97:../DaisyExamples/DaisySP//Source/Utility/dsp.h **** /** Significantly more efficient than fmodf(x, 1.0f) for calculating
  98:../DaisyExamples/DaisySP//Source/Utility/dsp.h ****  *  the decimal part of a floating point value.
  99:../DaisyExamples/DaisySP//Source/Utility/dsp.h ****  */
 100:../DaisyExamples/DaisySP//Source/Utility/dsp.h **** inline float fastmod1f(float x)
 101:../DaisyExamples/DaisySP//Source/Utility/dsp.h **** {
 102:../DaisyExamples/DaisySP//Source/Utility/dsp.h ****     return x - static_cast<int>(x);
 103:../DaisyExamples/DaisySP//Source/Utility/dsp.h **** }
 104:../DaisyExamples/DaisySP//Source/Utility/dsp.h **** 
 105:../DaisyExamples/DaisySP//Source/Utility/dsp.h **** /** From http://openaudio.blogspot.com/2017/02/faster-log10-and-pow.html
 106:../DaisyExamples/DaisySP//Source/Utility/dsp.h **** No approximation, pow10f(x) gives a 90% speed increase over powf(10.f, x)
 107:../DaisyExamples/DaisySP//Source/Utility/dsp.h **** */
 108:../DaisyExamples/DaisySP//Source/Utility/dsp.h **** inline float pow10f(float f)
 109:../DaisyExamples/DaisySP//Source/Utility/dsp.h **** {
 110:../DaisyExamples/DaisySP//Source/Utility/dsp.h ****     return expf(2.302585092994046f * f);
 111:../DaisyExamples/DaisySP//Source/Utility/dsp.h **** }
 112:../DaisyExamples/DaisySP//Source/Utility/dsp.h **** 
 113:../DaisyExamples/DaisySP//Source/Utility/dsp.h **** /* Original code for fastlog2f by Dr. Paul Beckmann from the ARM community forum, adapted from the 
 114:../DaisyExamples/DaisySP//Source/Utility/dsp.h **** About 25% performance increase over std::log10f
 115:../DaisyExamples/DaisySP//Source/Utility/dsp.h **** */
 116:../DaisyExamples/DaisySP//Source/Utility/dsp.h **** inline float fastlog2f(float f)
 117:../DaisyExamples/DaisySP//Source/Utility/dsp.h **** {
 118:../DaisyExamples/DaisySP//Source/Utility/dsp.h ****     float frac;
 119:../DaisyExamples/DaisySP//Source/Utility/dsp.h ****     int   exp;
 120:../DaisyExamples/DaisySP//Source/Utility/dsp.h ****     frac = frexpf(fabsf(f), &exp);
 121:../DaisyExamples/DaisySP//Source/Utility/dsp.h ****     f    = 1.23149591368684f;
 122:../DaisyExamples/DaisySP//Source/Utility/dsp.h ****     f *= frac;
 123:../DaisyExamples/DaisySP//Source/Utility/dsp.h ****     f += -4.11852516267426f;
 124:../DaisyExamples/DaisySP//Source/Utility/dsp.h ****     f *= frac;
 125:../DaisyExamples/DaisySP//Source/Utility/dsp.h ****     f += 6.02197014179219f;
 126:../DaisyExamples/DaisySP//Source/Utility/dsp.h ****     f *= frac;
 127:../DaisyExamples/DaisySP//Source/Utility/dsp.h ****     f += -3.13396450166353f;
 128:../DaisyExamples/DaisySP//Source/Utility/dsp.h ****     f += exp;
 129:../DaisyExamples/DaisySP//Source/Utility/dsp.h ****     return (f);
 130:../DaisyExamples/DaisySP//Source/Utility/dsp.h **** }
 131:../DaisyExamples/DaisySP//Source/Utility/dsp.h **** 
 132:../DaisyExamples/DaisySP//Source/Utility/dsp.h **** inline float fastlog10f(float f)
ARM GAS  /var/folders/1_/rgbtf7293t93c5kflb58xcy40000gn/T//ccMetEze.s 			page 19


 133:../DaisyExamples/DaisySP//Source/Utility/dsp.h **** {
 134:../DaisyExamples/DaisySP//Source/Utility/dsp.h ****     return fastlog2f(f) * 0.3010299956639812f;
 135:../DaisyExamples/DaisySP//Source/Utility/dsp.h **** }
 136:../DaisyExamples/DaisySP//Source/Utility/dsp.h **** 
 137:../DaisyExamples/DaisySP//Source/Utility/dsp.h **** /** Midi to frequency helper
 138:../DaisyExamples/DaisySP//Source/Utility/dsp.h **** */
 139:../DaisyExamples/DaisySP//Source/Utility/dsp.h **** inline float mtof(float m)
 140:../DaisyExamples/DaisySP//Source/Utility/dsp.h **** {
 141:../DaisyExamples/DaisySP//Source/Utility/dsp.h ****     return powf(2, (m - 69.0f) / 12.0f) * 440.0f;
 142:../DaisyExamples/DaisySP//Source/Utility/dsp.h **** }
 143:../DaisyExamples/DaisySP//Source/Utility/dsp.h **** 
 144:../DaisyExamples/DaisySP//Source/Utility/dsp.h **** 
 145:../DaisyExamples/DaisySP//Source/Utility/dsp.h **** /** one pole lpf
 146:../DaisyExamples/DaisySP//Source/Utility/dsp.h **** out is passed by reference, and must be retained between
 147:../DaisyExamples/DaisySP//Source/Utility/dsp.h **** calls to properly filter the signal
 148:../DaisyExamples/DaisySP//Source/Utility/dsp.h **** coeff can be calculated:
 149:../DaisyExamples/DaisySP//Source/Utility/dsp.h **** coeff = 1.0 / (time * sample_rate) ; where time is in seconds
 150:../DaisyExamples/DaisySP//Source/Utility/dsp.h **** */
 151:../DaisyExamples/DaisySP//Source/Utility/dsp.h **** inline void fonepole(float &out, float in, float coeff)
 152:../DaisyExamples/DaisySP//Source/Utility/dsp.h **** {
 153:../DaisyExamples/DaisySP//Source/Utility/dsp.h ****     out += coeff * (in - out);
 154:../DaisyExamples/DaisySP//Source/Utility/dsp.h **** }
 155:../DaisyExamples/DaisySP//Source/Utility/dsp.h **** 
 156:../DaisyExamples/DaisySP//Source/Utility/dsp.h **** /** Curves to use with the fmap function */
 157:../DaisyExamples/DaisySP//Source/Utility/dsp.h **** enum class Mapping
 158:../DaisyExamples/DaisySP//Source/Utility/dsp.h **** {
 159:../DaisyExamples/DaisySP//Source/Utility/dsp.h ****     LINEAR,
 160:../DaisyExamples/DaisySP//Source/Utility/dsp.h ****     EXP,
 161:../DaisyExamples/DaisySP//Source/Utility/dsp.h ****     LOG,
 162:../DaisyExamples/DaisySP//Source/Utility/dsp.h **** };
 163:../DaisyExamples/DaisySP//Source/Utility/dsp.h **** 
 164:../DaisyExamples/DaisySP//Source/Utility/dsp.h **** /** Maps a float between a specified range, using a specified curve.
 165:../DaisyExamples/DaisySP//Source/Utility/dsp.h ****  *
 166:../DaisyExamples/DaisySP//Source/Utility/dsp.h ****  *  \param in a value between 0 to 1 that will be mapped to the new range.
 167:../DaisyExamples/DaisySP//Source/Utility/dsp.h ****  *  \param min the new minimum value
 168:../DaisyExamples/DaisySP//Source/Utility/dsp.h ****  *  \param max the new maxmimum value
 169:../DaisyExamples/DaisySP//Source/Utility/dsp.h ****  *  \param curve a Mapping Value to adjust the response curve of the transformation
 170:../DaisyExamples/DaisySP//Source/Utility/dsp.h ****  *               defaults to Linear. @see Mapping
 171:../DaisyExamples/DaisySP//Source/Utility/dsp.h ****  *
 172:../DaisyExamples/DaisySP//Source/Utility/dsp.h ****  *  When using the log curve min and max, must be greater than zero.
 173:../DaisyExamples/DaisySP//Source/Utility/dsp.h ****  *
 174:../DaisyExamples/DaisySP//Source/Utility/dsp.h ****  *  \retval returns the transformed float within the new range.
 175:../DaisyExamples/DaisySP//Source/Utility/dsp.h **** */
 176:../DaisyExamples/DaisySP//Source/Utility/dsp.h **** inline float
 177:../DaisyExamples/DaisySP//Source/Utility/dsp.h **** fmap(float in, float min, float max, Mapping curve = Mapping::LINEAR)
 178:../DaisyExamples/DaisySP//Source/Utility/dsp.h **** {
 347              		.loc 4 178 1
 348              		.cfi_startproc
 349              		@ args = 0, pretend = 0, frame = 24
 350              		@ frame_needed = 1, uses_anonymous_args = 0
 351 0000 80B5     		push	{r7, lr}
 352              		.cfi_def_cfa_offset 8
 353              		.cfi_offset 7, -8
 354              		.cfi_offset 14, -4
 355 0002 86B0     		sub	sp, sp, #24
 356              		.cfi_def_cfa_offset 32
 357 0004 00AF     		add	r7, sp, #0
ARM GAS  /var/folders/1_/rgbtf7293t93c5kflb58xcy40000gn/T//ccMetEze.s 			page 20


 358              		.cfi_def_cfa_register 7
 359 0006 87ED030A 		vstr.32	s0, [r7, #12]
 360 000a C7ED020A 		vstr.32	s1, [r7, #8]
 361 000e 87ED011A 		vstr.32	s2, [r7, #4]
 362 0012 3860     		str	r0, [r7]
 363              	.LBB2:
 179:../DaisyExamples/DaisySP//Source/Utility/dsp.h ****     switch(curve)
 364              		.loc 4 179 5
 365 0014 3B68     		ldr	r3, [r7]
 366 0016 012B     		cmp	r3, #1
 367 0018 03D0     		beq	.L16
 368 001a 3B68     		ldr	r3, [r7]
 369 001c 022B     		cmp	r3, #2
 370 001e 1BD0     		beq	.L17
 371 0020 49E0     		b	.L20
 372              	.L16:
 373              	.LBB3:
 180:../DaisyExamples/DaisySP//Source/Utility/dsp.h ****     {
 181:../DaisyExamples/DaisySP//Source/Utility/dsp.h ****         case Mapping::EXP:
 182:../DaisyExamples/DaisySP//Source/Utility/dsp.h ****             return fclamp(min + (in * in) * (max - min), min, max);
 374              		.loc 4 182 37
 375 0022 D7ED037A 		vldr.32	s15, [r7, #12]
 376 0026 27EEA77A 		vmul.f32	s14, s15, s15
 377              		.loc 4 182 50
 378 002a D7ED016A 		vldr.32	s13, [r7, #4]
 379 002e D7ED027A 		vldr.32	s15, [r7, #8]
 380 0032 76EEE77A 		vsub.f32	s15, s13, s15
 381              		.loc 4 182 43
 382 0036 27EE277A 		vmul.f32	s14, s14, s15
 383              		.loc 4 182 26
 384 003a D7ED027A 		vldr.32	s15, [r7, #8]
 385 003e 77EE277A 		vadd.f32	s15, s14, s15
 386 0042 97ED011A 		vldr.32	s2, [r7, #4]
 387 0046 D7ED020A 		vldr.32	s1, [r7, #8]
 388 004a B0EE670A 		vmov.f32	s0, s15
 389 004e FFF7FEFF 		bl	_ZN7daisysp6fclampEfff
 390 0052 F0EE407A 		vmov.f32	s15, s0
 391              		.loc 4 182 66
 392 0056 47E0     		b	.L19
 393              	.L17:
 394              	.LBB4:
 183:../DaisyExamples/DaisySP//Source/Utility/dsp.h ****         case Mapping::LOG:
 184:../DaisyExamples/DaisySP//Source/Utility/dsp.h ****         {
 185:../DaisyExamples/DaisySP//Source/Utility/dsp.h ****             const float a = 1.f / log10f(max / min);
 395              		.loc 4 185 41
 396 0058 97ED017A 		vldr.32	s14, [r7, #4]
 397 005c D7ED027A 		vldr.32	s15, [r7, #8]
 398 0060 C7EE276A 		vdiv.f32	s13, s14, s15
 399 0064 B0EE660A 		vmov.f32	s0, s13
 400 0068 FFF7FEFF 		bl	log10f
 401 006c B0EE407A 		vmov.f32	s14, s0
 402              		.loc 4 185 51
 403 0070 F7EE006A 		vmov.f32	s13, #1.0e+0
 404 0074 C6EE877A 		vdiv.f32	s15, s13, s14
 405 0078 C7ED057A 		vstr.32	s15, [r7, #20]
 186:../DaisyExamples/DaisySP//Source/Utility/dsp.h ****             return fclamp(min * powf(10, in / a), min, max);
 406              		.loc 4 186 37
ARM GAS  /var/folders/1_/rgbtf7293t93c5kflb58xcy40000gn/T//ccMetEze.s 			page 21


 407 007c 97ED037A 		vldr.32	s14, [r7, #12]
 408 0080 D7ED057A 		vldr.32	s15, [r7, #20]
 409 0084 C7EE276A 		vdiv.f32	s13, s14, s15
 410 0088 F0EE660A 		vmov.f32	s1, s13
 411 008c B2EE040A 		vmov.f32	s0, #1.0e+1
 412 0090 FFF7FEFF 		bl	powf
 413 0094 B0EE407A 		vmov.f32	s14, s0
 414              		.loc 4 186 26
 415 0098 D7ED027A 		vldr.32	s15, [r7, #8]
 416 009c 67EE277A 		vmul.f32	s15, s14, s15
 417 00a0 97ED011A 		vldr.32	s2, [r7, #4]
 418 00a4 D7ED020A 		vldr.32	s1, [r7, #8]
 419 00a8 B0EE670A 		vmov.f32	s0, s15
 420 00ac FFF7FEFF 		bl	_ZN7daisysp6fclampEfff
 421 00b0 F0EE407A 		vmov.f32	s15, s0
 422              		.loc 4 186 59
 423 00b4 18E0     		b	.L19
 424              	.L20:
 425              	.LBE4:
 187:../DaisyExamples/DaisySP//Source/Utility/dsp.h ****         }
 188:../DaisyExamples/DaisySP//Source/Utility/dsp.h ****         case Mapping::LINEAR:
 189:../DaisyExamples/DaisySP//Source/Utility/dsp.h ****         default: return fclamp(min + in * (max - min), min, max);
 426              		.loc 4 189 48
 427 00b6 97ED017A 		vldr.32	s14, [r7, #4]
 428 00ba D7ED027A 		vldr.32	s15, [r7, #8]
 429 00be 37EE677A 		vsub.f32	s14, s14, s15
 430              		.loc 4 189 41
 431 00c2 D7ED037A 		vldr.32	s15, [r7, #12]
 432 00c6 27EE277A 		vmul.f32	s14, s14, s15
 433              		.loc 4 189 31
 434 00ca D7ED027A 		vldr.32	s15, [r7, #8]
 435 00ce 77EE277A 		vadd.f32	s15, s14, s15
 436 00d2 97ED011A 		vldr.32	s2, [r7, #4]
 437 00d6 D7ED020A 		vldr.32	s1, [r7, #8]
 438 00da B0EE670A 		vmov.f32	s0, s15
 439 00de FFF7FEFF 		bl	_ZN7daisysp6fclampEfff
 440 00e2 F0EE407A 		vmov.f32	s15, s0
 441              		.loc 4 189 64
 442 00e6 00BF     		nop
 443              	.L19:
 444              	.LBE3:
 445              	.LBE2:
 190:../DaisyExamples/DaisySP//Source/Utility/dsp.h ****     }
 191:../DaisyExamples/DaisySP//Source/Utility/dsp.h **** }
 446              		.loc 4 191 1
 447 00e8 B0EE670A 		vmov.f32	s0, s15
 448 00ec 1837     		adds	r7, r7, #24
 449              		.cfi_def_cfa_offset 8
 450 00ee BD46     		mov	sp, r7
 451              		.cfi_def_cfa_register 13
 452              		@ sp needed
 453 00f0 80BD     		pop	{r7, pc}
 454              		.cfi_endproc
 455              	.LFE2807:
 457              		.section	.text._ZN5daisy3PinC2Ev,"axG",%progbits,_ZN5daisy3PinC5Ev,comdat
 458              		.align	1
 459              		.weak	_ZN5daisy3PinC2Ev
ARM GAS  /var/folders/1_/rgbtf7293t93c5kflb58xcy40000gn/T//ccMetEze.s 			page 22


 460              		.syntax unified
 461              		.thumb
 462              		.thumb_func
 464              	_ZN5daisy3PinC2Ev:
 465              	.LFB3524:
 466              		.file 5 "../DaisyExamples/libDaisy//src/daisy_core.h"
   1:../DaisyExamples/libDaisy//src/daisy_core.h **** #pragma once
   2:../DaisyExamples/libDaisy//src/daisy_core.h **** #ifndef DSY_CORE_HW_H
   3:../DaisyExamples/libDaisy//src/daisy_core.h **** #define DSY_CORE_HW_H /**< & */
   4:../DaisyExamples/libDaisy//src/daisy_core.h **** #include <stdint.h>
   5:../DaisyExamples/libDaisy//src/daisy_core.h **** #include <stdlib.h>
   6:../DaisyExamples/libDaisy//src/daisy_core.h **** 
   7:../DaisyExamples/libDaisy//src/daisy_core.h **** #if defined(_MSC_VER)
   8:../DaisyExamples/libDaisy//src/daisy_core.h **** #define FORCE_INLINE __forceinline /**< & */
   9:../DaisyExamples/libDaisy//src/daisy_core.h **** #elif defined(__clang__)
  10:../DaisyExamples/libDaisy//src/daisy_core.h **** #define FORCE_INLINE inline __attribute__((always_inline)) /**< & */
  11:../DaisyExamples/libDaisy//src/daisy_core.h **** #pragma clang diagnostic ignored "-Wduplicate-decl-specifier"
  12:../DaisyExamples/libDaisy//src/daisy_core.h **** #elif defined(__GNUC__)
  13:../DaisyExamples/libDaisy//src/daisy_core.h **** #define FORCE_INLINE inline __attribute__((always_inline)) /**< & */
  14:../DaisyExamples/libDaisy//src/daisy_core.h **** #else
  15:../DaisyExamples/libDaisy//src/daisy_core.h **** #error unknown compiler
  16:../DaisyExamples/libDaisy//src/daisy_core.h **** #endif
  17:../DaisyExamples/libDaisy//src/daisy_core.h **** 
  18:../DaisyExamples/libDaisy//src/daisy_core.h **** /** @addtogroup utility
  19:../DaisyExamples/libDaisy//src/daisy_core.h ****     @{
  20:../DaisyExamples/libDaisy//src/daisy_core.h **** */
  21:../DaisyExamples/libDaisy//src/daisy_core.h **** 
  22:../DaisyExamples/libDaisy//src/daisy_core.h **** /** Macro for area of memory that is configured as cacheless
  23:../DaisyExamples/libDaisy//src/daisy_core.h **** This should be used primarily for DMA buffers, and the like.
  24:../DaisyExamples/libDaisy//src/daisy_core.h **** */
  25:../DaisyExamples/libDaisy//src/daisy_core.h **** #define DMA_BUFFER_MEM_SECTION __attribute__((section(".sram1_bss")))
  26:../DaisyExamples/libDaisy//src/daisy_core.h **** /** 
  27:../DaisyExamples/libDaisy//src/daisy_core.h **** THE DTCM RAM section is also non-cached. However, is not suitable 
  28:../DaisyExamples/libDaisy//src/daisy_core.h **** for DMA transfers. Performance is on par with internal SRAM w/ 
  29:../DaisyExamples/libDaisy//src/daisy_core.h **** cache enabled.
  30:../DaisyExamples/libDaisy//src/daisy_core.h **** */
  31:../DaisyExamples/libDaisy//src/daisy_core.h **** #define DTCM_MEM_SECTION __attribute__((section(".dtcmram_bss")))
  32:../DaisyExamples/libDaisy//src/daisy_core.h **** 
  33:../DaisyExamples/libDaisy//src/daisy_core.h **** #define FBIPMAX 0.999985f             /**< close to 1.0f-LSB at 16 bit */
  34:../DaisyExamples/libDaisy//src/daisy_core.h **** #define FBIPMIN (-FBIPMAX)            /**< - (1 - LSB) */
  35:../DaisyExamples/libDaisy//src/daisy_core.h **** #define U82F_SCALE 0.0078740f         /**< 1 / 127 */
  36:../DaisyExamples/libDaisy//src/daisy_core.h **** #define F2U8_SCALE 127.0f             /**< 128 - 1 */
  37:../DaisyExamples/libDaisy//src/daisy_core.h **** #define S82F_SCALE 0.0078125f         /**< 1 / (2**7) */
  38:../DaisyExamples/libDaisy//src/daisy_core.h **** #define F2S8_SCALE 127.0f             /**< (2 ** 7) - 1 */
  39:../DaisyExamples/libDaisy//src/daisy_core.h **** #define S162F_SCALE 3.0517578125e-05f /**< 1 / (2** 15) */
  40:../DaisyExamples/libDaisy//src/daisy_core.h **** #define F2S16_SCALE 32767.0f          /**< (2 ** 15) - 1 */
  41:../DaisyExamples/libDaisy//src/daisy_core.h **** #define F2S24_SCALE 8388608.0f        /**< 2 ** 23 */
  42:../DaisyExamples/libDaisy//src/daisy_core.h **** #define S242F_SCALE 1.192092896e-07f  /**< 1 / (2 ** 23) */
  43:../DaisyExamples/libDaisy//src/daisy_core.h **** #define S24SIGN 0x800000              /**< 2 ** 23 */
  44:../DaisyExamples/libDaisy//src/daisy_core.h **** #define S322F_SCALE 4.6566129e-10f    /**< 1 / (2** 31) */
  45:../DaisyExamples/libDaisy//src/daisy_core.h **** #define F2S32_SCALE 2147483647.f      /**< (2 ** 31) - 1 */
  46:../DaisyExamples/libDaisy//src/daisy_core.h **** 
  47:../DaisyExamples/libDaisy//src/daisy_core.h **** 
  48:../DaisyExamples/libDaisy//src/daisy_core.h **** /** shorthand macro for simplifying the reading of the left 
  49:../DaisyExamples/libDaisy//src/daisy_core.h ****  *  channel of a non-interleaved output buffer named out */
  50:../DaisyExamples/libDaisy//src/daisy_core.h **** #define OUT_L out[0]
  51:../DaisyExamples/libDaisy//src/daisy_core.h **** 
ARM GAS  /var/folders/1_/rgbtf7293t93c5kflb58xcy40000gn/T//ccMetEze.s 			page 23


  52:../DaisyExamples/libDaisy//src/daisy_core.h **** /** shorthand macro for simplifying the reading of the right 
  53:../DaisyExamples/libDaisy//src/daisy_core.h ****  *  channel of a non-interleaved output buffer named out */
  54:../DaisyExamples/libDaisy//src/daisy_core.h **** #define OUT_R out[1]
  55:../DaisyExamples/libDaisy//src/daisy_core.h **** 
  56:../DaisyExamples/libDaisy//src/daisy_core.h **** /** shorthand macro for simplifying the reading of the left 
  57:../DaisyExamples/libDaisy//src/daisy_core.h ****  *  channel of a non-interleaved input buffer named in */
  58:../DaisyExamples/libDaisy//src/daisy_core.h **** #define IN_L in[0]
  59:../DaisyExamples/libDaisy//src/daisy_core.h **** 
  60:../DaisyExamples/libDaisy//src/daisy_core.h **** /** shorthand macro for simplifying the reading of the right 
  61:../DaisyExamples/libDaisy//src/daisy_core.h ****  *  channel of a non-interleaved input buffer named in */
  62:../DaisyExamples/libDaisy//src/daisy_core.h **** #define IN_R in[1]
  63:../DaisyExamples/libDaisy//src/daisy_core.h **** 
  64:../DaisyExamples/libDaisy//src/daisy_core.h **** /** 
  65:../DaisyExamples/libDaisy//src/daisy_core.h ****     Computes cube.
  66:../DaisyExamples/libDaisy//src/daisy_core.h ****     \param x Number to be cubed
  67:../DaisyExamples/libDaisy//src/daisy_core.h ****     \return x ^ 3
  68:../DaisyExamples/libDaisy//src/daisy_core.h **** */
  69:../DaisyExamples/libDaisy//src/daisy_core.h **** FORCE_INLINE float cube(float x)
  70:../DaisyExamples/libDaisy//src/daisy_core.h **** {
  71:../DaisyExamples/libDaisy//src/daisy_core.h ****     return (x * x) * x;
  72:../DaisyExamples/libDaisy//src/daisy_core.h **** }
  73:../DaisyExamples/libDaisy//src/daisy_core.h **** 
  74:../DaisyExamples/libDaisy//src/daisy_core.h **** /** 
  75:../DaisyExamples/libDaisy//src/daisy_core.h ****     Converts unsigned 8-bit to float
  76:../DaisyExamples/libDaisy//src/daisy_core.h ****     \param x Number to be scaled.
  77:../DaisyExamples/libDaisy//src/daisy_core.h ****     \return Scaled number.
  78:../DaisyExamples/libDaisy//src/daisy_core.h **** */
  79:../DaisyExamples/libDaisy//src/daisy_core.h **** FORCE_INLINE float u82f(uint8_t x)
  80:../DaisyExamples/libDaisy//src/daisy_core.h **** {
  81:../DaisyExamples/libDaisy//src/daisy_core.h ****     return ((float)x - 127.f) * U82F_SCALE;
  82:../DaisyExamples/libDaisy//src/daisy_core.h **** }
  83:../DaisyExamples/libDaisy//src/daisy_core.h **** 
  84:../DaisyExamples/libDaisy//src/daisy_core.h **** /**
  85:../DaisyExamples/libDaisy//src/daisy_core.h ****     Converts float to unsigned 8-bit
  86:../DaisyExamples/libDaisy//src/daisy_core.h **** */
  87:../DaisyExamples/libDaisy//src/daisy_core.h **** FORCE_INLINE uint8_t f2u8(float x)
  88:../DaisyExamples/libDaisy//src/daisy_core.h **** {
  89:../DaisyExamples/libDaisy//src/daisy_core.h ****     x = x <= FBIPMIN ? FBIPMIN : x;
  90:../DaisyExamples/libDaisy//src/daisy_core.h ****     x = x >= FBIPMAX ? FBIPMAX : x;
  91:../DaisyExamples/libDaisy//src/daisy_core.h ****     return (uint8_t)((x * F2U8_SCALE) + F2U8_SCALE);
  92:../DaisyExamples/libDaisy//src/daisy_core.h **** }
  93:../DaisyExamples/libDaisy//src/daisy_core.h **** 
  94:../DaisyExamples/libDaisy//src/daisy_core.h **** 
  95:../DaisyExamples/libDaisy//src/daisy_core.h **** /** 
  96:../DaisyExamples/libDaisy//src/daisy_core.h ****     Converts Signed 8-bit to float
  97:../DaisyExamples/libDaisy//src/daisy_core.h ****     \param x Number to be scaled.
  98:../DaisyExamples/libDaisy//src/daisy_core.h ****     \return Scaled number.
  99:../DaisyExamples/libDaisy//src/daisy_core.h **** */
 100:../DaisyExamples/libDaisy//src/daisy_core.h **** FORCE_INLINE float s82f(int8_t x)
 101:../DaisyExamples/libDaisy//src/daisy_core.h **** {
 102:../DaisyExamples/libDaisy//src/daisy_core.h ****     return (float)x * S82F_SCALE;
 103:../DaisyExamples/libDaisy//src/daisy_core.h **** }
 104:../DaisyExamples/libDaisy//src/daisy_core.h **** 
 105:../DaisyExamples/libDaisy//src/daisy_core.h **** /**
 106:../DaisyExamples/libDaisy//src/daisy_core.h ****     Converts float to Signed 8-bit
 107:../DaisyExamples/libDaisy//src/daisy_core.h **** */
 108:../DaisyExamples/libDaisy//src/daisy_core.h **** FORCE_INLINE int8_t f2s8(float x)
ARM GAS  /var/folders/1_/rgbtf7293t93c5kflb58xcy40000gn/T//ccMetEze.s 			page 24


 109:../DaisyExamples/libDaisy//src/daisy_core.h **** {
 110:../DaisyExamples/libDaisy//src/daisy_core.h ****     x = x <= FBIPMIN ? FBIPMIN : x;
 111:../DaisyExamples/libDaisy//src/daisy_core.h ****     x = x >= FBIPMAX ? FBIPMAX : x;
 112:../DaisyExamples/libDaisy//src/daisy_core.h ****     return (int32_t)(x * F2S8_SCALE);
 113:../DaisyExamples/libDaisy//src/daisy_core.h **** }
 114:../DaisyExamples/libDaisy//src/daisy_core.h **** 
 115:../DaisyExamples/libDaisy//src/daisy_core.h **** /** 
 116:../DaisyExamples/libDaisy//src/daisy_core.h ****     Converts Signed 16-bit to float
 117:../DaisyExamples/libDaisy//src/daisy_core.h ****     \param x Number to be scaled.
 118:../DaisyExamples/libDaisy//src/daisy_core.h ****     \return Scaled number.
 119:../DaisyExamples/libDaisy//src/daisy_core.h **** */
 120:../DaisyExamples/libDaisy//src/daisy_core.h **** FORCE_INLINE float s162f(int16_t x)
 121:../DaisyExamples/libDaisy//src/daisy_core.h **** {
 122:../DaisyExamples/libDaisy//src/daisy_core.h ****     return (float)x * S162F_SCALE;
 123:../DaisyExamples/libDaisy//src/daisy_core.h **** }
 124:../DaisyExamples/libDaisy//src/daisy_core.h **** 
 125:../DaisyExamples/libDaisy//src/daisy_core.h **** /**
 126:../DaisyExamples/libDaisy//src/daisy_core.h ****     Converts float to Signed 16-bit
 127:../DaisyExamples/libDaisy//src/daisy_core.h **** */
 128:../DaisyExamples/libDaisy//src/daisy_core.h **** FORCE_INLINE int16_t f2s16(float x)
 129:../DaisyExamples/libDaisy//src/daisy_core.h **** {
 130:../DaisyExamples/libDaisy//src/daisy_core.h ****     x = x <= FBIPMIN ? FBIPMIN : x;
 131:../DaisyExamples/libDaisy//src/daisy_core.h ****     x = x >= FBIPMAX ? FBIPMAX : x;
 132:../DaisyExamples/libDaisy//src/daisy_core.h ****     return (int32_t)(x * F2S16_SCALE);
 133:../DaisyExamples/libDaisy//src/daisy_core.h **** }
 134:../DaisyExamples/libDaisy//src/daisy_core.h **** 
 135:../DaisyExamples/libDaisy//src/daisy_core.h **** /**
 136:../DaisyExamples/libDaisy//src/daisy_core.h ****     Converts Signed 24-bit to float
 137:../DaisyExamples/libDaisy//src/daisy_core.h ****  */
 138:../DaisyExamples/libDaisy//src/daisy_core.h **** FORCE_INLINE float s242f(int32_t x)
 139:../DaisyExamples/libDaisy//src/daisy_core.h **** {
 140:../DaisyExamples/libDaisy//src/daisy_core.h ****     x = (x ^ S24SIGN) - S24SIGN; //sign extend aka ((x<<8)>>8)
 141:../DaisyExamples/libDaisy//src/daisy_core.h ****     return (float)x * S242F_SCALE;
 142:../DaisyExamples/libDaisy//src/daisy_core.h **** }
 143:../DaisyExamples/libDaisy//src/daisy_core.h **** /**
 144:../DaisyExamples/libDaisy//src/daisy_core.h ****     Converts float to Signed 24-bit
 145:../DaisyExamples/libDaisy//src/daisy_core.h ****  */
 146:../DaisyExamples/libDaisy//src/daisy_core.h **** FORCE_INLINE int32_t f2s24(float x)
 147:../DaisyExamples/libDaisy//src/daisy_core.h **** {
 148:../DaisyExamples/libDaisy//src/daisy_core.h ****     x = x <= FBIPMIN ? FBIPMIN : x;
 149:../DaisyExamples/libDaisy//src/daisy_core.h ****     x = x >= FBIPMAX ? FBIPMAX : x;
 150:../DaisyExamples/libDaisy//src/daisy_core.h ****     return (int32_t)(x * F2S24_SCALE);
 151:../DaisyExamples/libDaisy//src/daisy_core.h **** }
 152:../DaisyExamples/libDaisy//src/daisy_core.h **** 
 153:../DaisyExamples/libDaisy//src/daisy_core.h **** /**
 154:../DaisyExamples/libDaisy//src/daisy_core.h ****     Converts Signed 32-bit to float
 155:../DaisyExamples/libDaisy//src/daisy_core.h ****  */
 156:../DaisyExamples/libDaisy//src/daisy_core.h **** FORCE_INLINE float s322f(int32_t x)
 157:../DaisyExamples/libDaisy//src/daisy_core.h **** {
 158:../DaisyExamples/libDaisy//src/daisy_core.h ****     return (float)x * S322F_SCALE;
 159:../DaisyExamples/libDaisy//src/daisy_core.h **** }
 160:../DaisyExamples/libDaisy//src/daisy_core.h **** /**
 161:../DaisyExamples/libDaisy//src/daisy_core.h ****     Converts float to Signed 24-bit
 162:../DaisyExamples/libDaisy//src/daisy_core.h ****  */
 163:../DaisyExamples/libDaisy//src/daisy_core.h **** FORCE_INLINE int32_t f2s32(float x)
 164:../DaisyExamples/libDaisy//src/daisy_core.h **** {
 165:../DaisyExamples/libDaisy//src/daisy_core.h ****     x = x <= FBIPMIN ? FBIPMIN : x;
ARM GAS  /var/folders/1_/rgbtf7293t93c5kflb58xcy40000gn/T//ccMetEze.s 			page 25


 166:../DaisyExamples/libDaisy//src/daisy_core.h ****     x = x >= FBIPMAX ? FBIPMAX : x;
 167:../DaisyExamples/libDaisy//src/daisy_core.h ****     return (int32_t)(x * F2S32_SCALE);
 168:../DaisyExamples/libDaisy//src/daisy_core.h **** }
 169:../DaisyExamples/libDaisy//src/daisy_core.h **** 
 170:../DaisyExamples/libDaisy//src/daisy_core.h **** 
 171:../DaisyExamples/libDaisy//src/daisy_core.h **** /** Enums and a simple struct for defining a hardware pin on the MCU
 172:../DaisyExamples/libDaisy//src/daisy_core.h ****  *  These correlate with the stm32 datasheet, and are used to configure
 173:../DaisyExamples/libDaisy//src/daisy_core.h ****  *  the hardware.
 174:../DaisyExamples/libDaisy//src/daisy_core.h ****  * 
 175:../DaisyExamples/libDaisy//src/daisy_core.h ****  *  This along with the dsy_gpio_pin class should no longer be used.
 176:../DaisyExamples/libDaisy//src/daisy_core.h ****  *  They are available for backwards compatability. 
 177:../DaisyExamples/libDaisy//src/daisy_core.h ****  * 
 178:../DaisyExamples/libDaisy//src/daisy_core.h ****  *  Please use GPIOPort enum and the Pin struct instead.
 179:../DaisyExamples/libDaisy//src/daisy_core.h ****  */
 180:../DaisyExamples/libDaisy//src/daisy_core.h **** typedef enum
 181:../DaisyExamples/libDaisy//src/daisy_core.h **** {
 182:../DaisyExamples/libDaisy//src/daisy_core.h ****     DSY_GPIOA, /**< & */
 183:../DaisyExamples/libDaisy//src/daisy_core.h ****     DSY_GPIOB, /**< & */
 184:../DaisyExamples/libDaisy//src/daisy_core.h ****     DSY_GPIOC, /**< & */
 185:../DaisyExamples/libDaisy//src/daisy_core.h ****     DSY_GPIOD, /**< & */
 186:../DaisyExamples/libDaisy//src/daisy_core.h ****     DSY_GPIOE, /**< & */
 187:../DaisyExamples/libDaisy//src/daisy_core.h ****     DSY_GPIOF, /**< & */
 188:../DaisyExamples/libDaisy//src/daisy_core.h ****     DSY_GPIOG, /**< & */
 189:../DaisyExamples/libDaisy//src/daisy_core.h ****     DSY_GPIOH, /**< & */
 190:../DaisyExamples/libDaisy//src/daisy_core.h ****     DSY_GPIOI, /**< & */
 191:../DaisyExamples/libDaisy//src/daisy_core.h ****     DSY_GPIOJ, /**< & */
 192:../DaisyExamples/libDaisy//src/daisy_core.h ****     DSY_GPIOK, /**< & */
 193:../DaisyExamples/libDaisy//src/daisy_core.h ****     DSY_GPIOX, /** This is a non-existant port for unsupported bits of hardware. */
 194:../DaisyExamples/libDaisy//src/daisy_core.h ****     DSY_GPIO_LAST, /** Final enum member */
 195:../DaisyExamples/libDaisy//src/daisy_core.h **** } dsy_gpio_port;
 196:../DaisyExamples/libDaisy//src/daisy_core.h **** 
 197:../DaisyExamples/libDaisy//src/daisy_core.h **** /** Hardware define pins 
 198:../DaisyExamples/libDaisy//src/daisy_core.h ****  *  
 199:../DaisyExamples/libDaisy//src/daisy_core.h ****  *  The dsy_gpio_pin struct should no longer be used, and is only available for
 200:../DaisyExamples/libDaisy//src/daisy_core.h ****  *  backwards compatability.
 201:../DaisyExamples/libDaisy//src/daisy_core.h ****  * 
 202:../DaisyExamples/libDaisy//src/daisy_core.h ****  *  Please use Pin struct instead.
 203:../DaisyExamples/libDaisy//src/daisy_core.h ****  */
 204:../DaisyExamples/libDaisy//src/daisy_core.h **** typedef struct
 205:../DaisyExamples/libDaisy//src/daisy_core.h **** {
 206:../DaisyExamples/libDaisy//src/daisy_core.h ****     dsy_gpio_port port; /**< & */
 207:../DaisyExamples/libDaisy//src/daisy_core.h ****     uint8_t       pin;  /**< number 0-15 */
 208:../DaisyExamples/libDaisy//src/daisy_core.h **** } dsy_gpio_pin;
 209:../DaisyExamples/libDaisy//src/daisy_core.h **** 
 210:../DaisyExamples/libDaisy//src/daisy_core.h **** /** Helper for creating pins from port/pin combos easily
 211:../DaisyExamples/libDaisy//src/daisy_core.h ****  * 
 212:../DaisyExamples/libDaisy//src/daisy_core.h ****  *  The dsy_gpio_pin struct should no longer be used, and is only available for
 213:../DaisyExamples/libDaisy//src/daisy_core.h ****  *  backwards compatability.
 214:../DaisyExamples/libDaisy//src/daisy_core.h ****  * 
 215:../DaisyExamples/libDaisy//src/daisy_core.h ****  *  Please use Pin struct instead.
 216:../DaisyExamples/libDaisy//src/daisy_core.h **** */
 217:../DaisyExamples/libDaisy//src/daisy_core.h **** FORCE_INLINE dsy_gpio_pin dsy_pin(dsy_gpio_port port, uint8_t pin)
 218:../DaisyExamples/libDaisy//src/daisy_core.h **** {
 219:../DaisyExamples/libDaisy//src/daisy_core.h ****     dsy_gpio_pin p;
 220:../DaisyExamples/libDaisy//src/daisy_core.h ****     p.port = port;
 221:../DaisyExamples/libDaisy//src/daisy_core.h ****     p.pin  = pin;
 222:../DaisyExamples/libDaisy//src/daisy_core.h ****     return p;
ARM GAS  /var/folders/1_/rgbtf7293t93c5kflb58xcy40000gn/T//ccMetEze.s 			page 26


 223:../DaisyExamples/libDaisy//src/daisy_core.h **** }
 224:../DaisyExamples/libDaisy//src/daisy_core.h **** 
 225:../DaisyExamples/libDaisy//src/daisy_core.h **** /** Helper for testing sameness of two dsy_gpio_pins
 226:../DaisyExamples/libDaisy//src/daisy_core.h ****  *  \return    1 if same, 0 if different
 227:../DaisyExamples/libDaisy//src/daisy_core.h ****  * 
 228:../DaisyExamples/libDaisy//src/daisy_core.h ****  *  The dsy_gpio_pin struct should no longer be used, and is only available for
 229:../DaisyExamples/libDaisy//src/daisy_core.h ****  *  backwards compatability.
 230:../DaisyExamples/libDaisy//src/daisy_core.h ****  * 
 231:../DaisyExamples/libDaisy//src/daisy_core.h ****  *  Please use Pin struct instead.
 232:../DaisyExamples/libDaisy//src/daisy_core.h ****  */
 233:../DaisyExamples/libDaisy//src/daisy_core.h **** FORCE_INLINE uint8_t dsy_pin_cmp(dsy_gpio_pin *a, dsy_gpio_pin *b)
 234:../DaisyExamples/libDaisy//src/daisy_core.h **** {
 235:../DaisyExamples/libDaisy//src/daisy_core.h ****     return ((a->port == b->port) && (a->pin == b->pin));
 236:../DaisyExamples/libDaisy//src/daisy_core.h **** }
 237:../DaisyExamples/libDaisy//src/daisy_core.h **** 
 238:../DaisyExamples/libDaisy//src/daisy_core.h **** #ifdef __cplusplus
 239:../DaisyExamples/libDaisy//src/daisy_core.h **** 
 240:../DaisyExamples/libDaisy//src/daisy_core.h **** namespace daisy
 241:../DaisyExamples/libDaisy//src/daisy_core.h **** {
 242:../DaisyExamples/libDaisy//src/daisy_core.h **** /** @brief GPIO Port names */
 243:../DaisyExamples/libDaisy//src/daisy_core.h **** enum GPIOPort
 244:../DaisyExamples/libDaisy//src/daisy_core.h **** {
 245:../DaisyExamples/libDaisy//src/daisy_core.h ****     PORTA, /**< Port A */
 246:../DaisyExamples/libDaisy//src/daisy_core.h ****     PORTB, /**< Port B */
 247:../DaisyExamples/libDaisy//src/daisy_core.h ****     PORTC, /**< Port C */
 248:../DaisyExamples/libDaisy//src/daisy_core.h ****     PORTD, /**< Port D */
 249:../DaisyExamples/libDaisy//src/daisy_core.h ****     PORTE, /**< Port E */
 250:../DaisyExamples/libDaisy//src/daisy_core.h ****     PORTF, /**< Port F */
 251:../DaisyExamples/libDaisy//src/daisy_core.h ****     PORTG, /**< Port G */
 252:../DaisyExamples/libDaisy//src/daisy_core.h ****     PORTH, /**< Port H */
 253:../DaisyExamples/libDaisy//src/daisy_core.h ****     PORTI, /**< Port I */
 254:../DaisyExamples/libDaisy//src/daisy_core.h ****     PORTJ, /**< Port J */
 255:../DaisyExamples/libDaisy//src/daisy_core.h ****     PORTK, /**< Port K */
 256:../DaisyExamples/libDaisy//src/daisy_core.h ****     PORTX, /**< Used as a dummy port to signal an invalid pin. */
 257:../DaisyExamples/libDaisy//src/daisy_core.h **** };
 258:../DaisyExamples/libDaisy//src/daisy_core.h **** 
 259:../DaisyExamples/libDaisy//src/daisy_core.h **** /** @brief representation of hardware port/pin combination */
 260:../DaisyExamples/libDaisy//src/daisy_core.h **** struct Pin
 261:../DaisyExamples/libDaisy//src/daisy_core.h **** {
 262:../DaisyExamples/libDaisy//src/daisy_core.h ****     GPIOPort port;
 263:../DaisyExamples/libDaisy//src/daisy_core.h ****     uint8_t  pin;
 264:../DaisyExamples/libDaisy//src/daisy_core.h **** 
 265:../DaisyExamples/libDaisy//src/daisy_core.h ****     /** @brief Constructor creates a valid pin. 
 266:../DaisyExamples/libDaisy//src/daisy_core.h ****      *  @param pt GPIOPort between PA, and PK corresponding to STM32 Port.
 267:../DaisyExamples/libDaisy//src/daisy_core.h ****      *  @param pn pin number in range of 0-15
 268:../DaisyExamples/libDaisy//src/daisy_core.h ****     */
 269:../DaisyExamples/libDaisy//src/daisy_core.h ****     constexpr Pin(const GPIOPort pt, const uint8_t pn) : port(pt), pin(pn) {}
 270:../DaisyExamples/libDaisy//src/daisy_core.h **** 
 271:../DaisyExamples/libDaisy//src/daisy_core.h ****     /** @brief Basic Constructor creates an invalid Pin object */
 272:../DaisyExamples/libDaisy//src/daisy_core.h ****     constexpr Pin() : port(PORTX), pin(255) {}
 467              		.loc 5 272 15
 468              		.cfi_startproc
 469              		@ args = 0, pretend = 0, frame = 8
 470              		@ frame_needed = 1, uses_anonymous_args = 0
 471              		@ link register save eliminated.
 472 0000 80B4     		push	{r7}
 473              		.cfi_def_cfa_offset 4
ARM GAS  /var/folders/1_/rgbtf7293t93c5kflb58xcy40000gn/T//ccMetEze.s 			page 27


 474              		.cfi_offset 7, -4
 475 0002 83B0     		sub	sp, sp, #12
 476              		.cfi_def_cfa_offset 16
 477 0004 00AF     		add	r7, sp, #0
 478              		.cfi_def_cfa_register 7
 479 0006 7860     		str	r0, [r7, #4]
 480              	.LBB5:
 481              		.loc 5 272 43
 482 0008 7B68     		ldr	r3, [r7, #4]
 483 000a 0B22     		movs	r2, #11
 484 000c 1A70     		strb	r2, [r3]
 485 000e 7B68     		ldr	r3, [r7, #4]
 486 0010 FF22     		movs	r2, #255
 487 0012 5A70     		strb	r2, [r3, #1]
 488              	.LBE5:
 489              		.loc 5 272 46
 490 0014 7B68     		ldr	r3, [r7, #4]
 491 0016 1846     		mov	r0, r3
 492 0018 0C37     		adds	r7, r7, #12
 493              		.cfi_def_cfa_offset 4
 494 001a BD46     		mov	sp, r7
 495              		.cfi_def_cfa_register 13
 496              		@ sp needed
 497 001c 5DF8047B 		ldr	r7, [sp], #4
 498              		.cfi_restore 7
 499              		.cfi_def_cfa_offset 0
 500 0020 7047     		bx	lr
 501              		.cfi_endproc
 502              	.LFE3524:
 504              		.weak	_ZN5daisy3PinC1Ev
 505              		.thumb_set _ZN5daisy3PinC1Ev,_ZN5daisy3PinC2Ev
 506              		.section	.text._ZN5daisy6SystemC2Ev,"axG",%progbits,_ZN5daisy6SystemC5Ev,comdat
 507              		.align	1
 508              		.weak	_ZN5daisy6SystemC2Ev
 509              		.syntax unified
 510              		.thumb
 511              		.thumb_func
 513              	_ZN5daisy6SystemC2Ev:
 514              	.LFB3542:
 515              		.file 6 "../DaisyExamples/libDaisy//src/sys/system.h"
   1:../DaisyExamples/libDaisy//src/sys/system.h **** #ifndef DSY_SYSTEM_H
   2:../DaisyExamples/libDaisy//src/sys/system.h **** #define DSY_SYSTEM_H
   3:../DaisyExamples/libDaisy//src/sys/system.h **** 
   4:../DaisyExamples/libDaisy//src/sys/system.h **** #ifndef UNIT_TEST // for unit tests, a dummy implementation is provided below
   5:../DaisyExamples/libDaisy//src/sys/system.h **** 
   6:../DaisyExamples/libDaisy//src/sys/system.h **** #include <cstdint>
   7:../DaisyExamples/libDaisy//src/sys/system.h **** #include "per/tim.h"
   8:../DaisyExamples/libDaisy//src/sys/system.h **** 
   9:../DaisyExamples/libDaisy//src/sys/system.h **** namespace daisy
  10:../DaisyExamples/libDaisy//src/sys/system.h **** {
  11:../DaisyExamples/libDaisy//src/sys/system.h **** /** A handle for interacting with the Core System.
  12:../DaisyExamples/libDaisy//src/sys/system.h ****  ** This includes the Clock tree, MPU, global DMA initialization,
  13:../DaisyExamples/libDaisy//src/sys/system.h ****  ** cache handling, and any other necessary global initiailzation
  14:../DaisyExamples/libDaisy//src/sys/system.h ****  **
  15:../DaisyExamples/libDaisy//src/sys/system.h ****  ** @author shensley
  16:../DaisyExamples/libDaisy//src/sys/system.h ****  ** @ingroup system
  17:../DaisyExamples/libDaisy//src/sys/system.h ****  */
ARM GAS  /var/folders/1_/rgbtf7293t93c5kflb58xcy40000gn/T//ccMetEze.s 			page 28


  18:../DaisyExamples/libDaisy//src/sys/system.h **** class System
  19:../DaisyExamples/libDaisy//src/sys/system.h **** {
  20:../DaisyExamples/libDaisy//src/sys/system.h ****   public:
  21:../DaisyExamples/libDaisy//src/sys/system.h ****     /** Contains settings for initializing the System */
  22:../DaisyExamples/libDaisy//src/sys/system.h ****     struct Config
  23:../DaisyExamples/libDaisy//src/sys/system.h ****     {
  24:../DaisyExamples/libDaisy//src/sys/system.h ****         /** Specifies the system clock frequency that feeds APB/AHB clocks, etc. */
  25:../DaisyExamples/libDaisy//src/sys/system.h ****         enum class SysClkFreq
  26:../DaisyExamples/libDaisy//src/sys/system.h ****         {
  27:../DaisyExamples/libDaisy//src/sys/system.h ****             FREQ_400MHZ,
  28:../DaisyExamples/libDaisy//src/sys/system.h ****             FREQ_480MHZ,
  29:../DaisyExamples/libDaisy//src/sys/system.h ****         };
  30:../DaisyExamples/libDaisy//src/sys/system.h **** 
  31:../DaisyExamples/libDaisy//src/sys/system.h ****         /** Method to call on the struct to set to defaults
  32:../DaisyExamples/libDaisy//src/sys/system.h ****          ** CPU Freq set to 400MHz
  33:../DaisyExamples/libDaisy//src/sys/system.h ****          ** Cache Enabled
  34:../DaisyExamples/libDaisy//src/sys/system.h ****          ** */
  35:../DaisyExamples/libDaisy//src/sys/system.h ****         void Defaults()
  36:../DaisyExamples/libDaisy//src/sys/system.h ****         {
  37:../DaisyExamples/libDaisy//src/sys/system.h ****             cpu_freq    = SysClkFreq::FREQ_400MHZ;
  38:../DaisyExamples/libDaisy//src/sys/system.h ****             use_dcache  = true;
  39:../DaisyExamples/libDaisy//src/sys/system.h ****             use_icache  = true;
  40:../DaisyExamples/libDaisy//src/sys/system.h ****             skip_clocks = false;
  41:../DaisyExamples/libDaisy//src/sys/system.h ****         }
  42:../DaisyExamples/libDaisy//src/sys/system.h **** 
  43:../DaisyExamples/libDaisy//src/sys/system.h ****         /** Method to call on the struct to set to boost mode:
  44:../DaisyExamples/libDaisy//src/sys/system.h ****          ** CPU Freq set to 480MHz
  45:../DaisyExamples/libDaisy//src/sys/system.h ****          ** Cache Enabled
  46:../DaisyExamples/libDaisy//src/sys/system.h ****          ** */
  47:../DaisyExamples/libDaisy//src/sys/system.h ****         void Boost()
  48:../DaisyExamples/libDaisy//src/sys/system.h ****         {
  49:../DaisyExamples/libDaisy//src/sys/system.h ****             cpu_freq    = SysClkFreq::FREQ_480MHZ;
  50:../DaisyExamples/libDaisy//src/sys/system.h ****             use_dcache  = true;
  51:../DaisyExamples/libDaisy//src/sys/system.h ****             use_icache  = true;
  52:../DaisyExamples/libDaisy//src/sys/system.h ****             skip_clocks = false;
  53:../DaisyExamples/libDaisy//src/sys/system.h ****         }
  54:../DaisyExamples/libDaisy//src/sys/system.h **** 
  55:../DaisyExamples/libDaisy//src/sys/system.h ****         SysClkFreq cpu_freq;
  56:../DaisyExamples/libDaisy//src/sys/system.h ****         bool       use_dcache;
  57:../DaisyExamples/libDaisy//src/sys/system.h ****         bool       use_icache;
  58:../DaisyExamples/libDaisy//src/sys/system.h ****         bool       skip_clocks;
  59:../DaisyExamples/libDaisy//src/sys/system.h ****     };
  60:../DaisyExamples/libDaisy//src/sys/system.h **** 
  61:../DaisyExamples/libDaisy//src/sys/system.h ****     /** Describes the different regions of memory available to the Daisy */
  62:../DaisyExamples/libDaisy//src/sys/system.h ****     enum MemoryRegion
  63:../DaisyExamples/libDaisy//src/sys/system.h ****     {
  64:../DaisyExamples/libDaisy//src/sys/system.h ****         INTERNAL_FLASH = 0,
  65:../DaisyExamples/libDaisy//src/sys/system.h ****         ITCMRAM,
  66:../DaisyExamples/libDaisy//src/sys/system.h ****         DTCMRAM,
  67:../DaisyExamples/libDaisy//src/sys/system.h ****         SRAM_D1,
  68:../DaisyExamples/libDaisy//src/sys/system.h ****         SRAM_D2,
  69:../DaisyExamples/libDaisy//src/sys/system.h ****         SRAM_D3,
  70:../DaisyExamples/libDaisy//src/sys/system.h ****         SDRAM,
  71:../DaisyExamples/libDaisy//src/sys/system.h ****         QSPI,
  72:../DaisyExamples/libDaisy//src/sys/system.h ****         INVALID_ADDRESS,
  73:../DaisyExamples/libDaisy//src/sys/system.h ****     };
  74:../DaisyExamples/libDaisy//src/sys/system.h **** 
ARM GAS  /var/folders/1_/rgbtf7293t93c5kflb58xcy40000gn/T//ccMetEze.s 			page 29


  75:../DaisyExamples/libDaisy//src/sys/system.h ****     /** Bootloader struct for controlling bootloading parameters */
  76:../DaisyExamples/libDaisy//src/sys/system.h ****     struct BootInfo
  77:../DaisyExamples/libDaisy//src/sys/system.h ****     {
  78:../DaisyExamples/libDaisy//src/sys/system.h ****         enum class Type : uint32_t
  79:../DaisyExamples/libDaisy//src/sys/system.h ****         {
  80:../DaisyExamples/libDaisy//src/sys/system.h ****             INVALID      = 0x00000000,
  81:../DaisyExamples/libDaisy//src/sys/system.h ****             JUMP         = 0xDEADBEEF,
  82:../DaisyExamples/libDaisy//src/sys/system.h ****             SKIP_TIMEOUT = 0x5AFEB007,
  83:../DaisyExamples/libDaisy//src/sys/system.h ****             INF_TIMEOUT  = 0xB0074EFA,
  84:../DaisyExamples/libDaisy//src/sys/system.h ****         } status;
  85:../DaisyExamples/libDaisy//src/sys/system.h ****         uint32_t data;
  86:../DaisyExamples/libDaisy//src/sys/system.h ****         enum class Version : uint32_t
  87:../DaisyExamples/libDaisy//src/sys/system.h ****         {
  88:../DaisyExamples/libDaisy//src/sys/system.h ****             LT_v6_0 = 0, // Less than v6.0
  89:../DaisyExamples/libDaisy//src/sys/system.h ****             NONE,        // No bootloader present
  90:../DaisyExamples/libDaisy//src/sys/system.h ****             v6_0,        // v6.0
  91:../DaisyExamples/libDaisy//src/sys/system.h ****             v6_1,        // v6.1 or greater
  92:../DaisyExamples/libDaisy//src/sys/system.h ****             LAST
  93:../DaisyExamples/libDaisy//src/sys/system.h ****         } version;
  94:../DaisyExamples/libDaisy//src/sys/system.h ****     };
  95:../DaisyExamples/libDaisy//src/sys/system.h **** 
  96:../DaisyExamples/libDaisy//src/sys/system.h ****     System() {}
 516              		.loc 6 96 5
 517              		.cfi_startproc
 518              		@ args = 0, pretend = 0, frame = 8
 519              		@ frame_needed = 1, uses_anonymous_args = 0
 520              		@ link register save eliminated.
 521 0000 80B4     		push	{r7}
 522              		.cfi_def_cfa_offset 4
 523              		.cfi_offset 7, -4
 524 0002 83B0     		sub	sp, sp, #12
 525              		.cfi_def_cfa_offset 16
 526 0004 00AF     		add	r7, sp, #0
 527              		.cfi_def_cfa_register 7
 528 0006 7860     		str	r0, [r7, #4]
 529              		.loc 6 96 15
 530 0008 7B68     		ldr	r3, [r7, #4]
 531 000a 1846     		mov	r0, r3
 532 000c 0C37     		adds	r7, r7, #12
 533              		.cfi_def_cfa_offset 4
 534 000e BD46     		mov	sp, r7
 535              		.cfi_def_cfa_register 13
 536              		@ sp needed
 537 0010 5DF8047B 		ldr	r7, [sp], #4
 538              		.cfi_restore 7
 539              		.cfi_def_cfa_offset 0
 540 0014 7047     		bx	lr
 541              		.cfi_endproc
 542              	.LFE3542:
 544              		.weak	_ZN5daisy6SystemC1Ev
 545              		.thumb_set _ZN5daisy6SystemC1Ev,_ZN5daisy6SystemC2Ev
 546              		.section	.text._ZN5daisy6SystemD2Ev,"axG",%progbits,_ZN5daisy6SystemD5Ev,comdat
 547              		.align	1
 548              		.weak	_ZN5daisy6SystemD2Ev
 549              		.syntax unified
 550              		.thumb
 551              		.thumb_func
ARM GAS  /var/folders/1_/rgbtf7293t93c5kflb58xcy40000gn/T//ccMetEze.s 			page 30


 553              	_ZN5daisy6SystemD2Ev:
 554              	.LFB3545:
  97:../DaisyExamples/libDaisy//src/sys/system.h ****     ~System() {}
 555              		.loc 6 97 5
 556              		.cfi_startproc
 557              		@ args = 0, pretend = 0, frame = 8
 558              		@ frame_needed = 1, uses_anonymous_args = 0
 559              		@ link register save eliminated.
 560 0000 80B4     		push	{r7}
 561              		.cfi_def_cfa_offset 4
 562              		.cfi_offset 7, -4
 563 0002 83B0     		sub	sp, sp, #12
 564              		.cfi_def_cfa_offset 16
 565 0004 00AF     		add	r7, sp, #0
 566              		.cfi_def_cfa_register 7
 567 0006 7860     		str	r0, [r7, #4]
 568              		.loc 6 97 16
 569 0008 7B68     		ldr	r3, [r7, #4]
 570 000a 1846     		mov	r0, r3
 571 000c 0C37     		adds	r7, r7, #12
 572              		.cfi_def_cfa_offset 4
 573 000e BD46     		mov	sp, r7
 574              		.cfi_def_cfa_register 13
 575              		@ sp needed
 576 0010 5DF8047B 		ldr	r7, [sp], #4
 577              		.cfi_restore 7
 578              		.cfi_def_cfa_offset 0
 579 0014 7047     		bx	lr
 580              		.cfi_endproc
 581              	.LFE3545:
 583              		.weak	_ZN5daisy6SystemD1Ev
 584              		.thumb_set _ZN5daisy6SystemD1Ev,_ZN5daisy6SystemD2Ev
 585              		.section	.text._ZN5daisy10QSPIHandleC2Ev,"axG",%progbits,_ZN5daisy10QSPIHandleC5Ev,comdat
 586              		.align	1
 587              		.weak	_ZN5daisy10QSPIHandleC2Ev
 588              		.syntax unified
 589              		.thumb
 590              		.thumb_func
 592              	_ZN5daisy10QSPIHandleC2Ev:
 593              	.LFB3549:
 594              		.file 7 "../DaisyExamples/libDaisy//src/per/qspi.h"
   1:../DaisyExamples/libDaisy//src/per/qspi.h **** #ifndef DSY_QSPI
   2:../DaisyExamples/libDaisy//src/per/qspi.h **** #define DSY_QSPI /**< Macro */
   3:../DaisyExamples/libDaisy//src/per/qspi.h **** 
   4:../DaisyExamples/libDaisy//src/per/qspi.h **** #ifndef UNIT_TEST // for unit tests, a dummy implementation
   5:../DaisyExamples/libDaisy//src/per/qspi.h **** 
   6:../DaisyExamples/libDaisy//src/per/qspi.h **** #include <cstdint>
   7:../DaisyExamples/libDaisy//src/per/qspi.h **** #include "daisy_core.h" // Added for dsy_gpio_pin typedef
   8:../DaisyExamples/libDaisy//src/per/qspi.h **** 
   9:../DaisyExamples/libDaisy//src/per/qspi.h **** #define DSY_QSPI_TEXT       \
  10:../DaisyExamples/libDaisy//src/per/qspi.h ****     __attribute__((section( \
  11:../DaisyExamples/libDaisy//src/per/qspi.h ****         ".qspiflash_text"))) /**< used for reading memory in memory_mapped mode. */
  12:../DaisyExamples/libDaisy//src/per/qspi.h **** #define DSY_QSPI_DATA       \
  13:../DaisyExamples/libDaisy//src/per/qspi.h ****     __attribute__((section( \
  14:../DaisyExamples/libDaisy//src/per/qspi.h ****         ".qspiflash_data"))) /**< used for reading memory in memory_mapped mode. */
  15:../DaisyExamples/libDaisy//src/per/qspi.h **** #define DSY_QSPI_BSS        \
  16:../DaisyExamples/libDaisy//src/per/qspi.h ****     __attribute__((section( \
ARM GAS  /var/folders/1_/rgbtf7293t93c5kflb58xcy40000gn/T//ccMetEze.s 			page 31


  17:../DaisyExamples/libDaisy//src/per/qspi.h ****         ".qspiflash_bss"))) /**< used for reading memory in memory_mapped mode. */
  18:../DaisyExamples/libDaisy//src/per/qspi.h **** 
  19:../DaisyExamples/libDaisy//src/per/qspi.h **** namespace daisy
  20:../DaisyExamples/libDaisy//src/per/qspi.h **** {
  21:../DaisyExamples/libDaisy//src/per/qspi.h **** /** @addtogroup serial
  22:../DaisyExamples/libDaisy//src/per/qspi.h **** @{
  23:../DaisyExamples/libDaisy//src/per/qspi.h **** */
  24:../DaisyExamples/libDaisy//src/per/qspi.h **** 
  25:../DaisyExamples/libDaisy//src/per/qspi.h **** /** 
  26:../DaisyExamples/libDaisy//src/per/qspi.h ****  Driver for QSPI peripheral to interface with external flash memory. \n 
  27:../DaisyExamples/libDaisy//src/per/qspi.h ****     Currently supported QSPI Devices: \n 
  28:../DaisyExamples/libDaisy//src/per/qspi.h ****     * IS25LP080D
  29:../DaisyExamples/libDaisy//src/per/qspi.h **** */
  30:../DaisyExamples/libDaisy//src/per/qspi.h **** class QSPIHandle
  31:../DaisyExamples/libDaisy//src/per/qspi.h **** {
  32:../DaisyExamples/libDaisy//src/per/qspi.h ****   public:
  33:../DaisyExamples/libDaisy//src/per/qspi.h ****     enum Result
  34:../DaisyExamples/libDaisy//src/per/qspi.h ****     {
  35:../DaisyExamples/libDaisy//src/per/qspi.h ****         OK = 0,
  36:../DaisyExamples/libDaisy//src/per/qspi.h ****         ERR
  37:../DaisyExamples/libDaisy//src/per/qspi.h ****     };
  38:../DaisyExamples/libDaisy//src/per/qspi.h **** 
  39:../DaisyExamples/libDaisy//src/per/qspi.h ****     /** Indicates the current status of the module. 
  40:../DaisyExamples/libDaisy//src/per/qspi.h ****          *  Warnings are indicated by a leading W.
  41:../DaisyExamples/libDaisy//src/per/qspi.h ****          *  Errors are indicated by a leading E and cause an immediate exit.
  42:../DaisyExamples/libDaisy//src/per/qspi.h ****          * 
  43:../DaisyExamples/libDaisy//src/per/qspi.h ****          *  \param GOOD - No errors have been reported.
  44:../DaisyExamples/libDaisy//src/per/qspi.h ****          *  \param E_HAL_ERROR - HAL code did not return HAL_OK.
  45:../DaisyExamples/libDaisy//src/per/qspi.h ****          *  \param E_SWITCHING_MODES - An error was encountered while switching QSPI peripheral mod
  46:../DaisyExamples/libDaisy//src/per/qspi.h ****          *  \param E_INVALID_MODE - QSPI should not be written to while the program is executing fr
  47:../DaisyExamples/libDaisy//src/per/qspi.h ****          */
  48:../DaisyExamples/libDaisy//src/per/qspi.h ****     enum Status
  49:../DaisyExamples/libDaisy//src/per/qspi.h ****     {
  50:../DaisyExamples/libDaisy//src/per/qspi.h ****         GOOD = 0,
  51:../DaisyExamples/libDaisy//src/per/qspi.h ****         E_HAL_ERROR,
  52:../DaisyExamples/libDaisy//src/per/qspi.h ****         E_SWITCHING_MODES,
  53:../DaisyExamples/libDaisy//src/per/qspi.h ****         E_INVALID_MODE,
  54:../DaisyExamples/libDaisy//src/per/qspi.h ****     };
  55:../DaisyExamples/libDaisy//src/per/qspi.h **** 
  56:../DaisyExamples/libDaisy//src/per/qspi.h ****     /** Configuration structure for interfacing with QSPI Driver */
  57:../DaisyExamples/libDaisy//src/per/qspi.h ****     struct Config
  58:../DaisyExamples/libDaisy//src/per/qspi.h ****     {
  59:../DaisyExamples/libDaisy//src/per/qspi.h ****         /** Flash Devices supported. (Both of these are more-or-less the same, just different sizes
  60:../DaisyExamples/libDaisy//src/per/qspi.h ****         enum Device
  61:../DaisyExamples/libDaisy//src/per/qspi.h ****         {
  62:../DaisyExamples/libDaisy//src/per/qspi.h ****             IS25LP080D,  /**< & */
  63:../DaisyExamples/libDaisy//src/per/qspi.h ****             IS25LP064A,  /**< & */
  64:../DaisyExamples/libDaisy//src/per/qspi.h ****             DEVICE_LAST, /**< & */
  65:../DaisyExamples/libDaisy//src/per/qspi.h ****         };
  66:../DaisyExamples/libDaisy//src/per/qspi.h **** 
  67:../DaisyExamples/libDaisy//src/per/qspi.h ****         /** 
  68:../DaisyExamples/libDaisy//src/per/qspi.h ****         Modes of operation.
  69:../DaisyExamples/libDaisy//src/per/qspi.h ****         Memory Mapped mode: QSPI configured so that the QSPI can be
  70:../DaisyExamples/libDaisy//src/per/qspi.h ****         read from starting address 0x90000000. Writing is not
  71:../DaisyExamples/libDaisy//src/per/qspi.h ****         possible in this mode. \n 
  72:../DaisyExamples/libDaisy//src/per/qspi.h ****         Indirect Polling mode: Device driver enabled. 
  73:../DaisyExamples/libDaisy//src/per/qspi.h ****         */
ARM GAS  /var/folders/1_/rgbtf7293t93c5kflb58xcy40000gn/T//ccMetEze.s 			page 32


  74:../DaisyExamples/libDaisy//src/per/qspi.h ****         enum Mode
  75:../DaisyExamples/libDaisy//src/per/qspi.h ****         {
  76:../DaisyExamples/libDaisy//src/per/qspi.h ****             MEMORY_MAPPED,    /**< & */
  77:../DaisyExamples/libDaisy//src/per/qspi.h ****             INDIRECT_POLLING, /**< & */
  78:../DaisyExamples/libDaisy//src/per/qspi.h ****             MODE_LAST,
  79:../DaisyExamples/libDaisy//src/per/qspi.h ****         };
  80:../DaisyExamples/libDaisy//src/per/qspi.h **** 
  81:../DaisyExamples/libDaisy//src/per/qspi.h ****         //SCK,  CE# (active low)
  82:../DaisyExamples/libDaisy//src/per/qspi.h ****         struct
  83:../DaisyExamples/libDaisy//src/per/qspi.h ****         {
  84:../DaisyExamples/libDaisy//src/per/qspi.h ****             dsy_gpio_pin io0; /**< & */
  85:../DaisyExamples/libDaisy//src/per/qspi.h ****             dsy_gpio_pin io1; /**< & */
  86:../DaisyExamples/libDaisy//src/per/qspi.h ****             dsy_gpio_pin io2; /**< & */
  87:../DaisyExamples/libDaisy//src/per/qspi.h ****             dsy_gpio_pin io3; /**< & */
  88:../DaisyExamples/libDaisy//src/per/qspi.h ****             dsy_gpio_pin clk; /**< & */
  89:../DaisyExamples/libDaisy//src/per/qspi.h ****             dsy_gpio_pin ncs; /**< & */
  90:../DaisyExamples/libDaisy//src/per/qspi.h ****         } pin_config;
  91:../DaisyExamples/libDaisy//src/per/qspi.h **** 
  92:../DaisyExamples/libDaisy//src/per/qspi.h ****         Device device;
  93:../DaisyExamples/libDaisy//src/per/qspi.h ****         Mode   mode;
  94:../DaisyExamples/libDaisy//src/per/qspi.h ****     };
  95:../DaisyExamples/libDaisy//src/per/qspi.h **** 
  96:../DaisyExamples/libDaisy//src/per/qspi.h ****     /** 
  97:../DaisyExamples/libDaisy//src/per/qspi.h ****         Initializes QSPI peripheral, and Resets, and prepares memory for access.
  98:../DaisyExamples/libDaisy//src/per/qspi.h ****         \param config should be populated with the mode, device and pin_config before calling this 
  99:../DaisyExamples/libDaisy//src/per/qspi.h ****         \return Result::OK or Result::ERR
 100:../DaisyExamples/libDaisy//src/per/qspi.h ****         */
 101:../DaisyExamples/libDaisy//src/per/qspi.h ****     Result Init(const Config& config);
 102:../DaisyExamples/libDaisy//src/per/qspi.h **** 
 103:../DaisyExamples/libDaisy//src/per/qspi.h ****     /** Returns the current config. */
 104:../DaisyExamples/libDaisy//src/per/qspi.h ****     const Config& GetConfig() const;
 105:../DaisyExamples/libDaisy//src/per/qspi.h **** 
 106:../DaisyExamples/libDaisy//src/per/qspi.h ****     // Couldn't this just be called before anything else in init? That
 107:../DaisyExamples/libDaisy//src/per/qspi.h ****     // would make manually calling it unnecessary.
 108:../DaisyExamples/libDaisy//src/per/qspi.h ****     /** 
 109:../DaisyExamples/libDaisy//src/per/qspi.h ****         Deinitializes the peripheral
 110:../DaisyExamples/libDaisy//src/per/qspi.h ****         This should be called before reinitializing QSPI in a different mode.
 111:../DaisyExamples/libDaisy//src/per/qspi.h ****         \return Result::OK or Result::ERR
 112:../DaisyExamples/libDaisy//src/per/qspi.h ****         */
 113:../DaisyExamples/libDaisy//src/per/qspi.h ****     Result DeInit();
 114:../DaisyExamples/libDaisy//src/per/qspi.h **** 
 115:../DaisyExamples/libDaisy//src/per/qspi.h ****     /** 
 116:../DaisyExamples/libDaisy//src/per/qspi.h ****         Writes a single page to to the specified address on the QSPI chip.
 117:../DaisyExamples/libDaisy//src/per/qspi.h ****         For IS25LP*, page size is 256 bytes.
 118:../DaisyExamples/libDaisy//src/per/qspi.h ****         \param address Address to write to
 119:../DaisyExamples/libDaisy//src/per/qspi.h ****         \param size Buffer size
 120:../DaisyExamples/libDaisy//src/per/qspi.h ****         \param buffer Buffer to write
 121:../DaisyExamples/libDaisy//src/per/qspi.h ****         \return Result::OK or Result::ERR
 122:../DaisyExamples/libDaisy//src/per/qspi.h ****         */
 123:../DaisyExamples/libDaisy//src/per/qspi.h ****     Result WritePage(uint32_t address, uint32_t size, uint8_t* buffer);
 124:../DaisyExamples/libDaisy//src/per/qspi.h **** 
 125:../DaisyExamples/libDaisy//src/per/qspi.h ****     /** 
 126:../DaisyExamples/libDaisy//src/per/qspi.h ****         Writes data in buffer to to the QSPI. Starting at address to address+size 
 127:../DaisyExamples/libDaisy//src/per/qspi.h ****         \param address Address to write to
 128:../DaisyExamples/libDaisy//src/per/qspi.h ****         \param size Buffer size
 129:../DaisyExamples/libDaisy//src/per/qspi.h ****         \param buffer Buffer to write
 130:../DaisyExamples/libDaisy//src/per/qspi.h ****         \return Result::OK or Result::ERR
ARM GAS  /var/folders/1_/rgbtf7293t93c5kflb58xcy40000gn/T//ccMetEze.s 			page 33


 131:../DaisyExamples/libDaisy//src/per/qspi.h ****         */
 132:../DaisyExamples/libDaisy//src/per/qspi.h ****     Result Write(uint32_t address, uint32_t size, uint8_t* buffer);
 133:../DaisyExamples/libDaisy//src/per/qspi.h **** 
 134:../DaisyExamples/libDaisy//src/per/qspi.h ****     /** 
 135:../DaisyExamples/libDaisy//src/per/qspi.h ****         Erases the area specified on the chip.
 136:../DaisyExamples/libDaisy//src/per/qspi.h ****         Erasures will happen by 4K, 32K or 64K increments.
 137:../DaisyExamples/libDaisy//src/per/qspi.h ****         Smallest erase possible is 4kB at a time. (on IS25LP*)
 138:../DaisyExamples/libDaisy//src/per/qspi.h ****         \param start_addr Address to begin erasing from
 139:../DaisyExamples/libDaisy//src/per/qspi.h ****         \param end_addr  Address to stop erasing at
 140:../DaisyExamples/libDaisy//src/per/qspi.h ****         \return Result::OK or Result::ERR
 141:../DaisyExamples/libDaisy//src/per/qspi.h ****         */
 142:../DaisyExamples/libDaisy//src/per/qspi.h ****     Result Erase(uint32_t start_addr, uint32_t end_addr);
 143:../DaisyExamples/libDaisy//src/per/qspi.h **** 
 144:../DaisyExamples/libDaisy//src/per/qspi.h ****     /**  
 145:../DaisyExamples/libDaisy//src/per/qspi.h ****          Erases a single sector of the chip.  
 146:../DaisyExamples/libDaisy//src/per/qspi.h ****         TODO: Document the size of this function. 
 147:../DaisyExamples/libDaisy//src/per/qspi.h ****         \param address Address of sector to erase
 148:../DaisyExamples/libDaisy//src/per/qspi.h ****         \return Result::OK or Result::ERR
 149:../DaisyExamples/libDaisy//src/per/qspi.h ****         */
 150:../DaisyExamples/libDaisy//src/per/qspi.h ****     Result EraseSector(uint32_t address);
 151:../DaisyExamples/libDaisy//src/per/qspi.h **** 
 152:../DaisyExamples/libDaisy//src/per/qspi.h ****     /** Returns the current class status. Useful for debugging.
 153:../DaisyExamples/libDaisy//src/per/qspi.h ****      *  \returns Status
 154:../DaisyExamples/libDaisy//src/per/qspi.h ****      */
 155:../DaisyExamples/libDaisy//src/per/qspi.h ****     Status GetStatus();
 156:../DaisyExamples/libDaisy//src/per/qspi.h **** 
 157:../DaisyExamples/libDaisy//src/per/qspi.h ****     /** Returns a pointer to the actual memory used 
 158:../DaisyExamples/libDaisy//src/per/qspi.h ****      *  The memory at this address is read-only
 159:../DaisyExamples/libDaisy//src/per/qspi.h ****      *  to write to it use the Write function.
 160:../DaisyExamples/libDaisy//src/per/qspi.h ****      * 
 161:../DaisyExamples/libDaisy//src/per/qspi.h ****      *  \param offset returns the pointer starting this 
 162:../DaisyExamples/libDaisy//src/per/qspi.h ****      *                many bytes into the memory
 163:../DaisyExamples/libDaisy//src/per/qspi.h ****     */
 164:../DaisyExamples/libDaisy//src/per/qspi.h ****     void* GetData(uint32_t offset = 0);
 165:../DaisyExamples/libDaisy//src/per/qspi.h **** 
 166:../DaisyExamples/libDaisy//src/per/qspi.h ****     QSPIHandle() : pimpl_(nullptr) {}
 595              		.loc 7 166 5
 596              		.cfi_startproc
 597              		@ args = 0, pretend = 0, frame = 8
 598              		@ frame_needed = 1, uses_anonymous_args = 0
 599              		@ link register save eliminated.
 600 0000 80B4     		push	{r7}
 601              		.cfi_def_cfa_offset 4
 602              		.cfi_offset 7, -4
 603 0002 83B0     		sub	sp, sp, #12
 604              		.cfi_def_cfa_offset 16
 605 0004 00AF     		add	r7, sp, #0
 606              		.cfi_def_cfa_register 7
 607 0006 7860     		str	r0, [r7, #4]
 608              	.LBB6:
 609              		.loc 7 166 34
 610 0008 7B68     		ldr	r3, [r7, #4]
 611 000a 0022     		movs	r2, #0
 612 000c 1A60     		str	r2, [r3]
 613              	.LBE6:
 614              		.loc 7 166 37
 615 000e 7B68     		ldr	r3, [r7, #4]
ARM GAS  /var/folders/1_/rgbtf7293t93c5kflb58xcy40000gn/T//ccMetEze.s 			page 34


 616 0010 1846     		mov	r0, r3
 617 0012 0C37     		adds	r7, r7, #12
 618              		.cfi_def_cfa_offset 4
 619 0014 BD46     		mov	sp, r7
 620              		.cfi_def_cfa_register 13
 621              		@ sp needed
 622 0016 5DF8047B 		ldr	r7, [sp], #4
 623              		.cfi_restore 7
 624              		.cfi_def_cfa_offset 0
 625 001a 7047     		bx	lr
 626              		.cfi_endproc
 627              	.LFE3549:
 629              		.weak	_ZN5daisy10QSPIHandleC1Ev
 630              		.thumb_set _ZN5daisy10QSPIHandleC1Ev,_ZN5daisy10QSPIHandleC2Ev
 631              		.section	.text._ZN5daisy9DacHandleC2Ev,"axG",%progbits,_ZN5daisy9DacHandleC5Ev,comdat
 632              		.align	1
 633              		.weak	_ZN5daisy9DacHandleC2Ev
 634              		.syntax unified
 635              		.thumb
 636              		.thumb_func
 638              	_ZN5daisy9DacHandleC2Ev:
 639              	.LFB3552:
 640              		.file 8 "../DaisyExamples/libDaisy//src/per/dac.h"
   1:../DaisyExamples/libDaisy//src/per/dac.h **** #pragma once
   2:../DaisyExamples/libDaisy//src/per/dac.h **** #ifndef DSY_DAC_H
   3:../DaisyExamples/libDaisy//src/per/dac.h **** #define DSY_DAC_H
   4:../DaisyExamples/libDaisy//src/per/dac.h **** 
   5:../DaisyExamples/libDaisy//src/per/dac.h **** #include "daisy_core.h"
   6:../DaisyExamples/libDaisy//src/per/dac.h **** 
   7:../DaisyExamples/libDaisy//src/per/dac.h **** namespace daisy
   8:../DaisyExamples/libDaisy//src/per/dac.h **** {
   9:../DaisyExamples/libDaisy//src/per/dac.h **** /** @brief DAC handle for Built-in DAC Peripheral 
  10:../DaisyExamples/libDaisy//src/per/dac.h ****  *  @ingroup per_analog
  11:../DaisyExamples/libDaisy//src/per/dac.h ****  ** 
  12:../DaisyExamples/libDaisy//src/per/dac.h ****  ** For now only Normal Mode is supported,
  13:../DaisyExamples/libDaisy//src/per/dac.h ****  ** Sample and hold mode provides reduced power consumption, but requires a bit more setup.
  14:../DaisyExamples/libDaisy//src/per/dac.h ****  **
  15:../DaisyExamples/libDaisy//src/per/dac.h ****  ** For now connecting the DAC through other internal peripherals is also not supported.
  16:../DaisyExamples/libDaisy//src/per/dac.h ****  **
  17:../DaisyExamples/libDaisy//src/per/dac.h ****  ** Since the DAC channels have dedicated pins we don't need to pass in a pin config like with
  18:../DaisyExamples/libDaisy//src/per/dac.h ****  ** other modules. However, it is still important to not try to use the DAC pins for anything else.
  19:../DaisyExamples/libDaisy//src/per/dac.h ****  ** DAC Channel 1 is on PA4, and DAC Channel 2 is on PA5
  20:../DaisyExamples/libDaisy//src/per/dac.h ****  ***/
  21:../DaisyExamples/libDaisy//src/per/dac.h **** class DacHandle
  22:../DaisyExamples/libDaisy//src/per/dac.h **** {
  23:../DaisyExamples/libDaisy//src/per/dac.h ****   public:
  24:../DaisyExamples/libDaisy//src/per/dac.h ****     /** Return Values for the DacHandle class */
  25:../DaisyExamples/libDaisy//src/per/dac.h ****     enum class Result
  26:../DaisyExamples/libDaisy//src/per/dac.h ****     {
  27:../DaisyExamples/libDaisy//src/per/dac.h ****         OK,
  28:../DaisyExamples/libDaisy//src/per/dac.h ****         ERR,
  29:../DaisyExamples/libDaisy//src/per/dac.h ****     };
  30:../DaisyExamples/libDaisy//src/per/dac.h **** 
  31:../DaisyExamples/libDaisy//src/per/dac.h ****     /** Selects which channel(s) will be configured for use. */
  32:../DaisyExamples/libDaisy//src/per/dac.h ****     enum class Channel
  33:../DaisyExamples/libDaisy//src/per/dac.h ****     {
  34:../DaisyExamples/libDaisy//src/per/dac.h ****         ONE,
ARM GAS  /var/folders/1_/rgbtf7293t93c5kflb58xcy40000gn/T//ccMetEze.s 			page 35


  35:../DaisyExamples/libDaisy//src/per/dac.h ****         TWO,
  36:../DaisyExamples/libDaisy//src/per/dac.h ****         BOTH,
  37:../DaisyExamples/libDaisy//src/per/dac.h ****     };
  38:../DaisyExamples/libDaisy//src/per/dac.h **** 
  39:../DaisyExamples/libDaisy//src/per/dac.h ****     /** Sets the Mode for the DAC channels.
  40:../DaisyExamples/libDaisy//src/per/dac.h ****      **
  41:../DaisyExamples/libDaisy//src/per/dac.h ****      ** Polling mode uses the blocking mode to transmit a single value at a time.
  42:../DaisyExamples/libDaisy//src/per/dac.h ****      **
  43:../DaisyExamples/libDaisy//src/per/dac.h ****      ** DMA mode uses a buffer, and periodically transmits it triggering a 
  44:../DaisyExamples/libDaisy//src/per/dac.h ****      ** callback to fill the buffer when it is ready for more samples.
  45:../DaisyExamples/libDaisy//src/per/dac.h ****      ***/
  46:../DaisyExamples/libDaisy//src/per/dac.h ****     enum class Mode
  47:../DaisyExamples/libDaisy//src/per/dac.h ****     {
  48:../DaisyExamples/libDaisy//src/per/dac.h ****         POLLING,
  49:../DaisyExamples/libDaisy//src/per/dac.h ****         DMA,
  50:../DaisyExamples/libDaisy//src/per/dac.h ****     };
  51:../DaisyExamples/libDaisy//src/per/dac.h **** 
  52:../DaisyExamples/libDaisy//src/per/dac.h ****     /** Sets the number of bits per sample transmitted out of the DAC.
  53:../DaisyExamples/libDaisy//src/per/dac.h ****      ** The output range will be: 0V - VDDA
  54:../DaisyExamples/libDaisy//src/per/dac.h ****      ** The resolution will be roughly: bitdepth / (VDDA - 0V) 
  55:../DaisyExamples/libDaisy//src/per/dac.h ****      ***/
  56:../DaisyExamples/libDaisy//src/per/dac.h ****     enum class BitDepth
  57:../DaisyExamples/libDaisy//src/per/dac.h ****     {
  58:../DaisyExamples/libDaisy//src/per/dac.h ****         BITS_8,
  59:../DaisyExamples/libDaisy//src/per/dac.h ****         BITS_12
  60:../DaisyExamples/libDaisy//src/per/dac.h ****     };
  61:../DaisyExamples/libDaisy//src/per/dac.h **** 
  62:../DaisyExamples/libDaisy//src/per/dac.h ****     /** Sets whether the DAC output is buffered for higher drive ability. */
  63:../DaisyExamples/libDaisy//src/per/dac.h ****     enum class BufferState
  64:../DaisyExamples/libDaisy//src/per/dac.h ****     {
  65:../DaisyExamples/libDaisy//src/per/dac.h ****         ENABLED,
  66:../DaisyExamples/libDaisy//src/per/dac.h ****         DISABLED,
  67:../DaisyExamples/libDaisy//src/per/dac.h ****     };
  68:../DaisyExamples/libDaisy//src/per/dac.h **** 
  69:../DaisyExamples/libDaisy//src/per/dac.h ****     /** Configuration structure for initializing the DAC structure. */
  70:../DaisyExamples/libDaisy//src/per/dac.h ****     struct Config
  71:../DaisyExamples/libDaisy//src/per/dac.h ****     {
  72:../DaisyExamples/libDaisy//src/per/dac.h ****         /** Target Samplerate in Hz used to configure the internal 
  73:../DaisyExamples/libDaisy//src/per/dac.h ****          ** timebase for DMA mode. Does nothing in POLLING mode.
  74:../DaisyExamples/libDaisy//src/per/dac.h ****          ** If the value is 0 at Init time this will default to 48000Hz 
  75:../DaisyExamples/libDaisy//src/per/dac.h ****          ** otherwise the driver will attempt meet the target.*/
  76:../DaisyExamples/libDaisy//src/per/dac.h ****         uint32_t target_samplerate;
  77:../DaisyExamples/libDaisy//src/per/dac.h **** 
  78:../DaisyExamples/libDaisy//src/per/dac.h ****         Channel     chn;
  79:../DaisyExamples/libDaisy//src/per/dac.h ****         Mode        mode;
  80:../DaisyExamples/libDaisy//src/per/dac.h ****         BitDepth    bitdepth;
  81:../DaisyExamples/libDaisy//src/per/dac.h ****         BufferState buff_state;
  82:../DaisyExamples/libDaisy//src/per/dac.h ****     };
  83:../DaisyExamples/libDaisy//src/per/dac.h **** 
  84:../DaisyExamples/libDaisy//src/per/dac.h ****     DacHandle() : pimpl_(nullptr) {}
 641              		.loc 8 84 5
 642              		.cfi_startproc
 643              		@ args = 0, pretend = 0, frame = 8
 644              		@ frame_needed = 1, uses_anonymous_args = 0
 645              		@ link register save eliminated.
 646 0000 80B4     		push	{r7}
 647              		.cfi_def_cfa_offset 4
ARM GAS  /var/folders/1_/rgbtf7293t93c5kflb58xcy40000gn/T//ccMetEze.s 			page 36


 648              		.cfi_offset 7, -4
 649 0002 83B0     		sub	sp, sp, #12
 650              		.cfi_def_cfa_offset 16
 651 0004 00AF     		add	r7, sp, #0
 652              		.cfi_def_cfa_register 7
 653 0006 7860     		str	r0, [r7, #4]
 654              	.LBB7:
 655              		.loc 8 84 33
 656 0008 7B68     		ldr	r3, [r7, #4]
 657 000a 0022     		movs	r2, #0
 658 000c 1A60     		str	r2, [r3]
 659              	.LBE7:
 660              		.loc 8 84 36
 661 000e 7B68     		ldr	r3, [r7, #4]
 662 0010 1846     		mov	r0, r3
 663 0012 0C37     		adds	r7, r7, #12
 664              		.cfi_def_cfa_offset 4
 665 0014 BD46     		mov	sp, r7
 666              		.cfi_def_cfa_register 13
 667              		@ sp needed
 668 0016 5DF8047B 		ldr	r7, [sp], #4
 669              		.cfi_restore 7
 670              		.cfi_def_cfa_offset 0
 671 001a 7047     		bx	lr
 672              		.cfi_endproc
 673              	.LFE3552:
 675              		.weak	_ZN5daisy9DacHandleC1Ev
 676              		.thumb_set _ZN5daisy9DacHandleC1Ev,_ZN5daisy9DacHandleC2Ev
 677              		.section	.text._ZN5daisy4GPIO6ConfigC2Ev,"axG",%progbits,_ZN5daisy4GPIO6ConfigC5Ev,comdat
 678              		.align	1
 679              		.weak	_ZN5daisy4GPIO6ConfigC2Ev
 680              		.syntax unified
 681              		.thumb
 682              		.thumb_func
 684              	_ZN5daisy4GPIO6ConfigC2Ev:
 685              	.LFB3555:
 686              		.file 9 "../DaisyExamples/libDaisy//src/per/gpio.h"
   1:../DaisyExamples/libDaisy//src/per/gpio.h **** #pragma once
   2:../DaisyExamples/libDaisy//src/per/gpio.h **** #ifndef DSY_GPIO_H
   3:../DaisyExamples/libDaisy//src/per/gpio.h **** #define DSY_GPIO_H
   4:../DaisyExamples/libDaisy//src/per/gpio.h **** #include "daisy_core.h"
   5:../DaisyExamples/libDaisy//src/per/gpio.h **** 
   6:../DaisyExamples/libDaisy//src/per/gpio.h **** #ifdef __cplusplus
   7:../DaisyExamples/libDaisy//src/per/gpio.h **** 
   8:../DaisyExamples/libDaisy//src/per/gpio.h **** namespace daisy
   9:../DaisyExamples/libDaisy//src/per/gpio.h **** {
  10:../DaisyExamples/libDaisy//src/per/gpio.h **** /** @brief General Purpose I/O control 
  11:../DaisyExamples/libDaisy//src/per/gpio.h ****  *  @details peripheral control over a single GPIO
  12:../DaisyExamples/libDaisy//src/per/gpio.h ****  *  @ingroup peripheral
  13:../DaisyExamples/libDaisy//src/per/gpio.h ****  *   
  14:../DaisyExamples/libDaisy//src/per/gpio.h ****  *  Button Input (with internal Pullup resistor)
  15:../DaisyExamples/libDaisy//src/per/gpio.h ****  *  @include GPIO_Input.cpp 
  16:../DaisyExamples/libDaisy//src/per/gpio.h ****  * 
  17:../DaisyExamples/libDaisy//src/per/gpio.h ****  *  Output Example (perfect for blinking an LED)
  18:../DaisyExamples/libDaisy//src/per/gpio.h ****  *  @include GPIO_Output.cpp
  19:../DaisyExamples/libDaisy//src/per/gpio.h ****  * 
  20:../DaisyExamples/libDaisy//src/per/gpio.h **** */
ARM GAS  /var/folders/1_/rgbtf7293t93c5kflb58xcy40000gn/T//ccMetEze.s 			page 37


  21:../DaisyExamples/libDaisy//src/per/gpio.h **** class GPIO
  22:../DaisyExamples/libDaisy//src/per/gpio.h **** {
  23:../DaisyExamples/libDaisy//src/per/gpio.h ****   public:
  24:../DaisyExamples/libDaisy//src/per/gpio.h ****     /** @brief Mode of operation for the specified GPIO */
  25:../DaisyExamples/libDaisy//src/per/gpio.h ****     enum class Mode
  26:../DaisyExamples/libDaisy//src/per/gpio.h ****     {
  27:../DaisyExamples/libDaisy//src/per/gpio.h ****         INPUT,     /**< Input for reading state of pin */
  28:../DaisyExamples/libDaisy//src/per/gpio.h ****         OUTPUT,    /**< Output w/ push-pull configuration */
  29:../DaisyExamples/libDaisy//src/per/gpio.h ****         OUTPUT_OD, /**< Output w/ open-drain configuration */
  30:../DaisyExamples/libDaisy//src/per/gpio.h ****         ANALOG,    /**< Analog for connection to ADC or DAC peripheral */
  31:../DaisyExamples/libDaisy//src/per/gpio.h ****     };
  32:../DaisyExamples/libDaisy//src/per/gpio.h **** 
  33:../DaisyExamples/libDaisy//src/per/gpio.h ****     /** @brief Configures whether an internal Pull up or Pull down resistor is used. 
  34:../DaisyExamples/libDaisy//src/per/gpio.h ****      *  
  35:../DaisyExamples/libDaisy//src/per/gpio.h ****      * Internal Pull up/down resistors are typically 40k ohms, and will be between
  36:../DaisyExamples/libDaisy//src/per/gpio.h ****      * 30k and 50k
  37:../DaisyExamples/libDaisy//src/per/gpio.h ****      * 
  38:../DaisyExamples/libDaisy//src/per/gpio.h ****      * When the Pin is configured in Analog mode, the pull up/down resistors are
  39:../DaisyExamples/libDaisy//src/per/gpio.h ****      * disabled by hardware. 
  40:../DaisyExamples/libDaisy//src/per/gpio.h ****      */
  41:../DaisyExamples/libDaisy//src/per/gpio.h ****     enum class Pull
  42:../DaisyExamples/libDaisy//src/per/gpio.h ****     {
  43:../DaisyExamples/libDaisy//src/per/gpio.h ****         NOPULL,   /**< No pull up resistor */
  44:../DaisyExamples/libDaisy//src/per/gpio.h ****         PULLUP,   /**< Internal pull up enabled */
  45:../DaisyExamples/libDaisy//src/per/gpio.h ****         PULLDOWN, /**< Internal pull down enabled*/
  46:../DaisyExamples/libDaisy//src/per/gpio.h ****     };
  47:../DaisyExamples/libDaisy//src/per/gpio.h **** 
  48:../DaisyExamples/libDaisy//src/per/gpio.h ****     /** @brief Output speed controls the drive strength, and slew rate of the pin */
  49:../DaisyExamples/libDaisy//src/per/gpio.h ****     enum class Speed
  50:../DaisyExamples/libDaisy//src/per/gpio.h ****     {
  51:../DaisyExamples/libDaisy//src/per/gpio.h ****         LOW,
  52:../DaisyExamples/libDaisy//src/per/gpio.h ****         MEDIUM,
  53:../DaisyExamples/libDaisy//src/per/gpio.h ****         HIGH,
  54:../DaisyExamples/libDaisy//src/per/gpio.h ****         VERY_HIGH,
  55:../DaisyExamples/libDaisy//src/per/gpio.h ****     };
  56:../DaisyExamples/libDaisy//src/per/gpio.h **** 
  57:../DaisyExamples/libDaisy//src/per/gpio.h ****     /** @brief Configuration for a given GPIO */
  58:../DaisyExamples/libDaisy//src/per/gpio.h ****     struct Config
  59:../DaisyExamples/libDaisy//src/per/gpio.h ****     {
  60:../DaisyExamples/libDaisy//src/per/gpio.h ****         Pin   pin;
  61:../DaisyExamples/libDaisy//src/per/gpio.h ****         Mode  mode;
  62:../DaisyExamples/libDaisy//src/per/gpio.h ****         Pull  pull;
  63:../DaisyExamples/libDaisy//src/per/gpio.h ****         Speed speed;
  64:../DaisyExamples/libDaisy//src/per/gpio.h **** 
  65:../DaisyExamples/libDaisy//src/per/gpio.h ****         /** Constructor with no arguments will prepare an invalid GPIO set as
  66:../DaisyExamples/libDaisy//src/per/gpio.h ****          *  an input, with no pullup. 
  67:../DaisyExamples/libDaisy//src/per/gpio.h ****          */
  68:../DaisyExamples/libDaisy//src/per/gpio.h ****         Config()
 687              		.loc 9 68 9
 688              		.cfi_startproc
 689              		@ args = 0, pretend = 0, frame = 8
 690              		@ frame_needed = 1, uses_anonymous_args = 0
 691 0000 80B5     		push	{r7, lr}
 692              		.cfi_def_cfa_offset 8
 693              		.cfi_offset 7, -8
 694              		.cfi_offset 14, -4
 695 0002 82B0     		sub	sp, sp, #8
ARM GAS  /var/folders/1_/rgbtf7293t93c5kflb58xcy40000gn/T//ccMetEze.s 			page 38


 696              		.cfi_def_cfa_offset 16
 697 0004 00AF     		add	r7, sp, #0
 698              		.cfi_def_cfa_register 7
 699 0006 7860     		str	r0, [r7, #4]
 700              	.LBB8:
  69:../DaisyExamples/libDaisy//src/per/gpio.h ****         : pin(), mode(Mode::INPUT), pull(Pull::NOPULL), speed(Speed::LOW)
 701              		.loc 9 69 73
 702 0008 7B68     		ldr	r3, [r7, #4]
 703 000a 1846     		mov	r0, r3
 704 000c FFF7FEFF 		bl	_ZN5daisy3PinC1Ev
 705 0010 7B68     		ldr	r3, [r7, #4]
 706 0012 0022     		movs	r2, #0
 707 0014 5A60     		str	r2, [r3, #4]
 708 0016 7B68     		ldr	r3, [r7, #4]
 709 0018 0022     		movs	r2, #0
 710 001a 9A60     		str	r2, [r3, #8]
 711 001c 7B68     		ldr	r3, [r7, #4]
 712 001e 0022     		movs	r2, #0
 713 0020 DA60     		str	r2, [r3, #12]
 714              	.LBE8:
  70:../DaisyExamples/libDaisy//src/per/gpio.h ****         {
  71:../DaisyExamples/libDaisy//src/per/gpio.h ****         }
 715              		.loc 9 71 9
 716 0022 7B68     		ldr	r3, [r7, #4]
 717 0024 1846     		mov	r0, r3
 718 0026 0837     		adds	r7, r7, #8
 719              		.cfi_def_cfa_offset 8
 720 0028 BD46     		mov	sp, r7
 721              		.cfi_def_cfa_register 13
 722              		@ sp needed
 723 002a 80BD     		pop	{r7, pc}
 724              		.cfi_endproc
 725              	.LFE3555:
 727              		.weak	_ZN5daisy4GPIO6ConfigC1Ev
 728              		.thumb_set _ZN5daisy4GPIO6ConfigC1Ev,_ZN5daisy4GPIO6ConfigC2Ev
 729              		.section	.text._ZN5daisy4GPIOC2Ev,"axG",%progbits,_ZN5daisy4GPIOC5Ev,comdat
 730              		.align	1
 731              		.weak	_ZN5daisy4GPIOC2Ev
 732              		.syntax unified
 733              		.thumb
 734              		.thumb_func
 736              	_ZN5daisy4GPIOC2Ev:
 737              	.LFB3558:
  72:../DaisyExamples/libDaisy//src/per/gpio.h ****     };
  73:../DaisyExamples/libDaisy//src/per/gpio.h **** 
  74:../DaisyExamples/libDaisy//src/per/gpio.h ****     GPIO() {}
 738              		.loc 9 74 5
 739              		.cfi_startproc
 740              		@ args = 0, pretend = 0, frame = 8
 741              		@ frame_needed = 1, uses_anonymous_args = 0
 742 0000 80B5     		push	{r7, lr}
 743              		.cfi_def_cfa_offset 8
 744              		.cfi_offset 7, -8
 745              		.cfi_offset 14, -4
 746 0002 82B0     		sub	sp, sp, #8
 747              		.cfi_def_cfa_offset 16
 748 0004 00AF     		add	r7, sp, #0
ARM GAS  /var/folders/1_/rgbtf7293t93c5kflb58xcy40000gn/T//ccMetEze.s 			page 39


 749              		.cfi_def_cfa_register 7
 750 0006 7860     		str	r0, [r7, #4]
 751              	.LBB9:
 752              		.loc 9 74 12
 753 0008 7B68     		ldr	r3, [r7, #4]
 754 000a 1846     		mov	r0, r3
 755 000c FFF7FEFF 		bl	_ZN5daisy4GPIO6ConfigC1Ev
 756              	.LBE9:
 757              		.loc 9 74 13
 758 0010 7B68     		ldr	r3, [r7, #4]
 759 0012 1846     		mov	r0, r3
 760 0014 0837     		adds	r7, r7, #8
 761              		.cfi_def_cfa_offset 8
 762 0016 BD46     		mov	sp, r7
 763              		.cfi_def_cfa_register 13
 764              		@ sp needed
 765 0018 80BD     		pop	{r7, pc}
 766              		.cfi_endproc
 767              	.LFE3558:
 769              		.weak	_ZN5daisy4GPIOC1Ev
 770              		.thumb_set _ZN5daisy4GPIOC1Ev,_ZN5daisy4GPIOC2Ev
 771              		.section	.text._ZN5daisy9I2CHandleC2Ev,"axG",%progbits,_ZN5daisy9I2CHandleC5Ev,comdat
 772              		.align	1
 773              		.weak	_ZN5daisy9I2CHandleC2Ev
 774              		.syntax unified
 775              		.thumb
 776              		.thumb_func
 778              	_ZN5daisy9I2CHandleC2Ev:
 779              	.LFB3562:
 780              		.file 10 "../DaisyExamples/libDaisy//src/per/i2c.h"
   1:../DaisyExamples/libDaisy//src/per/i2c.h **** #pragma once
   2:../DaisyExamples/libDaisy//src/per/i2c.h **** #include "daisy_core.h"
   3:../DaisyExamples/libDaisy//src/per/i2c.h **** 
   4:../DaisyExamples/libDaisy//src/per/i2c.h **** namespace daisy
   5:../DaisyExamples/libDaisy//src/per/i2c.h **** {
   6:../DaisyExamples/libDaisy//src/per/i2c.h **** /** A handle for interacting with an I2C peripheral. This is a dumb
   7:../DaisyExamples/libDaisy//src/per/i2c.h ****  *  gateway that internally points to one of the four I2C peripherals
   8:../DaisyExamples/libDaisy//src/per/i2c.h ****  *  after it was initialised. It can then be copied and passed around.
   9:../DaisyExamples/libDaisy//src/per/i2c.h ****  *  Use an I2CHandle like this:
  10:../DaisyExamples/libDaisy//src/per/i2c.h ****  *  
  11:../DaisyExamples/libDaisy//src/per/i2c.h ****  *      // setup the configuration
  12:../DaisyExamples/libDaisy//src/per/i2c.h ****  *      I2CHandle::Config i2c_conf;
  13:../DaisyExamples/libDaisy//src/per/i2c.h ****  *      i2c_conf.periph = I2CHandle::Config::Peripheral::I2C_1;
  14:../DaisyExamples/libDaisy//src/per/i2c.h ****  *      i2c_conf.speed  = I2CHandle::Config::Speed::I2C_400KHZ;
  15:../DaisyExamples/libDaisy//src/per/i2c.h ****  *      i2c_conf.mode   = I2CHandle::Config::Mode::Master;
  16:../DaisyExamples/libDaisy//src/per/i2c.h ****  *      i2c_conf.pin_config.scl  = {DSY_GPIOB, 8};
  17:../DaisyExamples/libDaisy//src/per/i2c.h ****  *      i2c_conf.pin_config.sda  = {DSY_GPIOB, 9};
  18:../DaisyExamples/libDaisy//src/per/i2c.h ****  *      // initialise the peripheral
  19:../DaisyExamples/libDaisy//src/per/i2c.h ****  *      I2CHandle i2c;
  20:../DaisyExamples/libDaisy//src/per/i2c.h ****  *      i2c.Init(i2c_conf);
  21:../DaisyExamples/libDaisy//src/per/i2c.h ****  *      // now i2c points to the corresponding peripheral and can be used.
  22:../DaisyExamples/libDaisy//src/per/i2c.h ****  *      i2c.TransmitBlocking( ... );
  23:../DaisyExamples/libDaisy//src/per/i2c.h ****  */
  24:../DaisyExamples/libDaisy//src/per/i2c.h **** class I2CHandle
  25:../DaisyExamples/libDaisy//src/per/i2c.h **** {
  26:../DaisyExamples/libDaisy//src/per/i2c.h ****   public:
  27:../DaisyExamples/libDaisy//src/per/i2c.h ****     /** Contains settings for initialising an I2C interface. */
ARM GAS  /var/folders/1_/rgbtf7293t93c5kflb58xcy40000gn/T//ccMetEze.s 			page 40


  28:../DaisyExamples/libDaisy//src/per/i2c.h ****     struct Config
  29:../DaisyExamples/libDaisy//src/per/i2c.h ****     {
  30:../DaisyExamples/libDaisy//src/per/i2c.h ****         /** Specifies whether the interface will operate in master or slave mode. */
  31:../DaisyExamples/libDaisy//src/per/i2c.h ****         enum class Mode
  32:../DaisyExamples/libDaisy//src/per/i2c.h ****         {
  33:../DaisyExamples/libDaisy//src/per/i2c.h ****             I2C_MASTER,
  34:../DaisyExamples/libDaisy//src/per/i2c.h ****             I2C_SLAVE,
  35:../DaisyExamples/libDaisy//src/per/i2c.h ****         };
  36:../DaisyExamples/libDaisy//src/per/i2c.h **** 
  37:../DaisyExamples/libDaisy//src/per/i2c.h ****         /** Specifices the internal peripheral to use (these are mapped to different pins on the ha
  38:../DaisyExamples/libDaisy//src/per/i2c.h ****         enum class Peripheral
  39:../DaisyExamples/libDaisy//src/per/i2c.h ****         {
  40:../DaisyExamples/libDaisy//src/per/i2c.h ****             I2C_1 = 0, /**< & */
  41:../DaisyExamples/libDaisy//src/per/i2c.h ****             I2C_2,     /**< & */
  42:../DaisyExamples/libDaisy//src/per/i2c.h ****             I2C_3,     /**< & */
  43:../DaisyExamples/libDaisy//src/per/i2c.h ****             I2C_4,     /**< & */
  44:../DaisyExamples/libDaisy//src/per/i2c.h ****         };
  45:../DaisyExamples/libDaisy//src/per/i2c.h **** 
  46:../DaisyExamples/libDaisy//src/per/i2c.h ****         /** Rate at which the clock/data will be sent/received. The device being used will have max
  47:../DaisyExamples/libDaisy//src/per/i2c.h ****          *  1MHZ Mode is currently 886kHz
  48:../DaisyExamples/libDaisy//src/per/i2c.h ****          */
  49:../DaisyExamples/libDaisy//src/per/i2c.h ****         enum class Speed
  50:../DaisyExamples/libDaisy//src/per/i2c.h ****         {
  51:../DaisyExamples/libDaisy//src/per/i2c.h ****             I2C_100KHZ, /**< & */
  52:../DaisyExamples/libDaisy//src/per/i2c.h ****             I2C_400KHZ, /**< & */
  53:../DaisyExamples/libDaisy//src/per/i2c.h ****             I2C_1MHZ,   /**< & */
  54:../DaisyExamples/libDaisy//src/per/i2c.h ****         };
  55:../DaisyExamples/libDaisy//src/per/i2c.h **** 
  56:../DaisyExamples/libDaisy//src/per/i2c.h ****         Peripheral periph; /**< & */
  57:../DaisyExamples/libDaisy//src/per/i2c.h ****         struct
  58:../DaisyExamples/libDaisy//src/per/i2c.h ****         {
  59:../DaisyExamples/libDaisy//src/per/i2c.h ****             dsy_gpio_pin scl; /**< & */
  60:../DaisyExamples/libDaisy//src/per/i2c.h ****             dsy_gpio_pin sda; /**< & */
  61:../DaisyExamples/libDaisy//src/per/i2c.h ****         } pin_config;         /**< & */
  62:../DaisyExamples/libDaisy//src/per/i2c.h **** 
  63:../DaisyExamples/libDaisy//src/per/i2c.h ****         Speed speed; /**< & */
  64:../DaisyExamples/libDaisy//src/per/i2c.h ****         Mode  mode;  /**< & */
  65:../DaisyExamples/libDaisy//src/per/i2c.h ****         // 0x10 is chosen as a default to avoid conflicts with reserved addresses
  66:../DaisyExamples/libDaisy//src/per/i2c.h ****         uint8_t address = 0x10; /**< & */
  67:../DaisyExamples/libDaisy//src/per/i2c.h ****     };
  68:../DaisyExamples/libDaisy//src/per/i2c.h **** 
  69:../DaisyExamples/libDaisy//src/per/i2c.h ****     /** Return values for I2C functions. */
  70:../DaisyExamples/libDaisy//src/per/i2c.h ****     enum class Result
  71:../DaisyExamples/libDaisy//src/per/i2c.h ****     {
  72:../DaisyExamples/libDaisy//src/per/i2c.h ****         OK, /**< & */
  73:../DaisyExamples/libDaisy//src/per/i2c.h ****         ERR /**< & */
  74:../DaisyExamples/libDaisy//src/per/i2c.h ****     };
  75:../DaisyExamples/libDaisy//src/per/i2c.h **** 
  76:../DaisyExamples/libDaisy//src/per/i2c.h ****     enum class Direction
  77:../DaisyExamples/libDaisy//src/per/i2c.h ****     {
  78:../DaisyExamples/libDaisy//src/per/i2c.h ****         TRANSMIT, /**< & */
  79:../DaisyExamples/libDaisy//src/per/i2c.h ****         RECEIVE,  /**< & */
  80:../DaisyExamples/libDaisy//src/per/i2c.h ****     };
  81:../DaisyExamples/libDaisy//src/per/i2c.h **** 
  82:../DaisyExamples/libDaisy//src/per/i2c.h ****     I2CHandle() : pimpl_(nullptr) {}
 781              		.loc 10 82 5
 782              		.cfi_startproc
ARM GAS  /var/folders/1_/rgbtf7293t93c5kflb58xcy40000gn/T//ccMetEze.s 			page 41


 783              		@ args = 0, pretend = 0, frame = 8
 784              		@ frame_needed = 1, uses_anonymous_args = 0
 785              		@ link register save eliminated.
 786 0000 80B4     		push	{r7}
 787              		.cfi_def_cfa_offset 4
 788              		.cfi_offset 7, -4
 789 0002 83B0     		sub	sp, sp, #12
 790              		.cfi_def_cfa_offset 16
 791 0004 00AF     		add	r7, sp, #0
 792              		.cfi_def_cfa_register 7
 793 0006 7860     		str	r0, [r7, #4]
 794              	.LBB10:
 795              		.loc 10 82 33
 796 0008 7B68     		ldr	r3, [r7, #4]
 797 000a 0022     		movs	r2, #0
 798 000c 1A60     		str	r2, [r3]
 799              	.LBE10:
 800              		.loc 10 82 36
 801 000e 7B68     		ldr	r3, [r7, #4]
 802 0010 1846     		mov	r0, r3
 803 0012 0C37     		adds	r7, r7, #12
 804              		.cfi_def_cfa_offset 4
 805 0014 BD46     		mov	sp, r7
 806              		.cfi_def_cfa_register 13
 807              		@ sp needed
 808 0016 5DF8047B 		ldr	r7, [sp], #4
 809              		.cfi_restore 7
 810              		.cfi_def_cfa_offset 0
 811 001a 7047     		bx	lr
 812              		.cfi_endproc
 813              	.LFE3562:
 815              		.weak	_ZN5daisy9I2CHandleC1Ev
 816              		.thumb_set _ZN5daisy9I2CHandleC1Ev,_ZN5daisy9I2CHandleC2Ev
 817              		.section	.text._ZN5daisy11AudioHandleC2Ev,"axG",%progbits,_ZN5daisy11AudioHandleC5Ev,comdat
 818              		.align	1
 819              		.weak	_ZN5daisy11AudioHandleC2Ev
 820              		.syntax unified
 821              		.thumb
 822              		.thumb_func
 824              	_ZN5daisy11AudioHandleC2Ev:
 825              	.LFB3623:
 826              		.file 11 "../DaisyExamples/libDaisy//src/hid/audio.h"
   1:../DaisyExamples/libDaisy//src/hid/audio.h **** #ifndef DSY_AUDIO_H
   2:../DaisyExamples/libDaisy//src/hid/audio.h **** #define DSY_AUDIO_H /**< & */
   3:../DaisyExamples/libDaisy//src/hid/audio.h **** 
   4:../DaisyExamples/libDaisy//src/hid/audio.h **** #include "per/sai.h"
   5:../DaisyExamples/libDaisy//src/hid/audio.h **** 
   6:../DaisyExamples/libDaisy//src/hid/audio.h **** namespace daisy
   7:../DaisyExamples/libDaisy//src/hid/audio.h **** {
   8:../DaisyExamples/libDaisy//src/hid/audio.h **** /** @brief Audio Engine Handle
   9:../DaisyExamples/libDaisy//src/hid/audio.h ****  *  @ingroup audio 
  10:../DaisyExamples/libDaisy//src/hid/audio.h ****  *  @details This class allows for higher level access to an audio engine.
  11:../DaisyExamples/libDaisy//src/hid/audio.h ****  *           If you're using a SOM like the DaisySeed or DaisyPatchSM (or any 
  12:../DaisyExamples/libDaisy//src/hid/audio.h ****  *            board that includes one of those objects) then the intialization
  13:../DaisyExamples/libDaisy//src/hid/audio.h ****  *            is already taken  care of.
  14:../DaisyExamples/libDaisy//src/hid/audio.h ****  *           If you're setting up your own custom hardware, or need to make changes
  15:../DaisyExamples/libDaisy//src/hid/audio.h ****  *           you will have to take the following steps:
ARM GAS  /var/folders/1_/rgbtf7293t93c5kflb58xcy40000gn/T//ccMetEze.s 			page 42


  16:../DaisyExamples/libDaisy//src/hid/audio.h ****  *             1. Create and Initialize an SaiHandle or two depending on your requirements
  17:../DaisyExamples/libDaisy//src/hid/audio.h ****  *             2. Initialize the Audio Handle with the desired settings and the Initialized SaiHand
  18:../DaisyExamples/libDaisy//src/hid/audio.h ****  *             3. If the connected codec requires special configuration or initialization, do so
  19:../DaisyExamples/libDaisy//src/hid/audio.h ****  *             4. Write a callback method using either the AudioCallback or the InterleavingAudioCa
  20:../DaisyExamples/libDaisy//src/hid/audio.h ****  *             5. Start the Audio using one of the StartAudio function
  21:../DaisyExamples/libDaisy//src/hid/audio.h ****  */
  22:../DaisyExamples/libDaisy//src/hid/audio.h **** class AudioHandle
  23:../DaisyExamples/libDaisy//src/hid/audio.h **** {
  24:../DaisyExamples/libDaisy//src/hid/audio.h ****   public:
  25:../DaisyExamples/libDaisy//src/hid/audio.h ****     /** Manually configurable details about the Audio Engine */
  26:../DaisyExamples/libDaisy//src/hid/audio.h ****     /** TODO: Figure out how to get samplerate in here. */
  27:../DaisyExamples/libDaisy//src/hid/audio.h ****     struct Config
  28:../DaisyExamples/libDaisy//src/hid/audio.h ****     {
  29:../DaisyExamples/libDaisy//src/hid/audio.h ****         /** number of samples to process per callback */
  30:../DaisyExamples/libDaisy//src/hid/audio.h ****         size_t blocksize;
  31:../DaisyExamples/libDaisy//src/hid/audio.h **** 
  32:../DaisyExamples/libDaisy//src/hid/audio.h ****         /**< Sample rate of audio */
  33:../DaisyExamples/libDaisy//src/hid/audio.h ****         SaiHandle::Config::SampleRate samplerate;
  34:../DaisyExamples/libDaisy//src/hid/audio.h **** 
  35:../DaisyExamples/libDaisy//src/hid/audio.h ****         /** factor for adjustment before and after callback for hardware that may have extra headro
  36:../DaisyExamples/libDaisy//src/hid/audio.h ****         float postgain;
  37:../DaisyExamples/libDaisy//src/hid/audio.h **** 
  38:../DaisyExamples/libDaisy//src/hid/audio.h ****         /** factor for additional one-sided compensation to audio path for hardware that may
  39:../DaisyExamples/libDaisy//src/hid/audio.h ****          *  have unequal input/output ranges
  40:../DaisyExamples/libDaisy//src/hid/audio.h ****          */
  41:../DaisyExamples/libDaisy//src/hid/audio.h ****         float output_compensation;
  42:../DaisyExamples/libDaisy//src/hid/audio.h **** 
  43:../DaisyExamples/libDaisy//src/hid/audio.h ****         /** Sets default values for config struct */
  44:../DaisyExamples/libDaisy//src/hid/audio.h ****         Config()
  45:../DaisyExamples/libDaisy//src/hid/audio.h ****         : blocksize(48),
  46:../DaisyExamples/libDaisy//src/hid/audio.h ****           samplerate(SaiHandle::Config::SampleRate::SAI_48KHZ),
  47:../DaisyExamples/libDaisy//src/hid/audio.h ****           postgain(1.f),
  48:../DaisyExamples/libDaisy//src/hid/audio.h ****           output_compensation(1.f)
  49:../DaisyExamples/libDaisy//src/hid/audio.h ****         {
  50:../DaisyExamples/libDaisy//src/hid/audio.h ****         }
  51:../DaisyExamples/libDaisy//src/hid/audio.h ****     };
  52:../DaisyExamples/libDaisy//src/hid/audio.h **** 
  53:../DaisyExamples/libDaisy//src/hid/audio.h ****     enum class Result
  54:../DaisyExamples/libDaisy//src/hid/audio.h ****     {
  55:../DaisyExamples/libDaisy//src/hid/audio.h ****         OK,
  56:../DaisyExamples/libDaisy//src/hid/audio.h ****         ERR,
  57:../DaisyExamples/libDaisy//src/hid/audio.h ****     };
  58:../DaisyExamples/libDaisy//src/hid/audio.h **** 
  59:../DaisyExamples/libDaisy//src/hid/audio.h ****     /** Non-Interleaving input buffer
  60:../DaisyExamples/libDaisy//src/hid/audio.h ****      * Buffer arranged by float[chn][sample] 
  61:../DaisyExamples/libDaisy//src/hid/audio.h ****      * const so that the user can't modify the input
  62:../DaisyExamples/libDaisy//src/hid/audio.h ****      */
  63:../DaisyExamples/libDaisy//src/hid/audio.h ****     typedef const float* const* InputBuffer;
  64:../DaisyExamples/libDaisy//src/hid/audio.h **** 
  65:../DaisyExamples/libDaisy//src/hid/audio.h ****     /** Non-Interleaving output buffer
  66:../DaisyExamples/libDaisy//src/hid/audio.h ****      * Arranged by float[chn][sample] 
  67:../DaisyExamples/libDaisy//src/hid/audio.h ****      */
  68:../DaisyExamples/libDaisy//src/hid/audio.h ****     typedef float** OutputBuffer;
  69:../DaisyExamples/libDaisy//src/hid/audio.h **** 
  70:../DaisyExamples/libDaisy//src/hid/audio.h ****     /** Type for a Non-Interleaving audio callback 
  71:../DaisyExamples/libDaisy//src/hid/audio.h ****      * Non-Interleaving audio callbacks in daisy will be of this type
  72:../DaisyExamples/libDaisy//src/hid/audio.h ****      */
ARM GAS  /var/folders/1_/rgbtf7293t93c5kflb58xcy40000gn/T//ccMetEze.s 			page 43


  73:../DaisyExamples/libDaisy//src/hid/audio.h ****     typedef void (*AudioCallback)(InputBuffer  in,
  74:../DaisyExamples/libDaisy//src/hid/audio.h ****                                   OutputBuffer out,
  75:../DaisyExamples/libDaisy//src/hid/audio.h ****                                   size_t       size);
  76:../DaisyExamples/libDaisy//src/hid/audio.h **** 
  77:../DaisyExamples/libDaisy//src/hid/audio.h ****     /** Interleaving Input buffer
  78:../DaisyExamples/libDaisy//src/hid/audio.h ****      ** audio is prepared as { L0, R0, L1, R1, . . . LN, RN }]
  79:../DaisyExamples/libDaisy//src/hid/audio.h ****      ** this is const, as the user shouldn't modify it
  80:../DaisyExamples/libDaisy//src/hid/audio.h ****     */
  81:../DaisyExamples/libDaisy//src/hid/audio.h ****     typedef const float* InterleavingInputBuffer;
  82:../DaisyExamples/libDaisy//src/hid/audio.h **** 
  83:../DaisyExamples/libDaisy//src/hid/audio.h ****     /** Interleaving Output buffer 
  84:../DaisyExamples/libDaisy//src/hid/audio.h ****      ** audio is prepared as { L0, R0, L1, R1, . . . LN, RN }
  85:../DaisyExamples/libDaisy//src/hid/audio.h ****     */
  86:../DaisyExamples/libDaisy//src/hid/audio.h ****     typedef float* InterleavingOutputBuffer;
  87:../DaisyExamples/libDaisy//src/hid/audio.h **** 
  88:../DaisyExamples/libDaisy//src/hid/audio.h ****     /** Interleaving Audio Callback 
  89:../DaisyExamples/libDaisy//src/hid/audio.h ****      * Interleaving audio callbacks in daisy must be of this type
  90:../DaisyExamples/libDaisy//src/hid/audio.h ****      */
  91:../DaisyExamples/libDaisy//src/hid/audio.h ****     typedef void (*InterleavingAudioCallback)(InterleavingInputBuffer  in,
  92:../DaisyExamples/libDaisy//src/hid/audio.h ****                                               InterleavingOutputBuffer out,
  93:../DaisyExamples/libDaisy//src/hid/audio.h ****                                               size_t                   size);
  94:../DaisyExamples/libDaisy//src/hid/audio.h **** 
  95:../DaisyExamples/libDaisy//src/hid/audio.h ****     AudioHandle() : pimpl_(nullptr) {}
 827              		.loc 11 95 5
 828              		.cfi_startproc
 829              		@ args = 0, pretend = 0, frame = 8
 830              		@ frame_needed = 1, uses_anonymous_args = 0
 831              		@ link register save eliminated.
 832 0000 80B4     		push	{r7}
 833              		.cfi_def_cfa_offset 4
 834              		.cfi_offset 7, -4
 835 0002 83B0     		sub	sp, sp, #12
 836              		.cfi_def_cfa_offset 16
 837 0004 00AF     		add	r7, sp, #0
 838              		.cfi_def_cfa_register 7
 839 0006 7860     		str	r0, [r7, #4]
 840              	.LBB11:
 841              		.loc 11 95 35
 842 0008 7B68     		ldr	r3, [r7, #4]
 843 000a 0022     		movs	r2, #0
 844 000c 1A60     		str	r2, [r3]
 845              	.LBE11:
 846              		.loc 11 95 38
 847 000e 7B68     		ldr	r3, [r7, #4]
 848 0010 1846     		mov	r0, r3
 849 0012 0C37     		adds	r7, r7, #12
 850              		.cfi_def_cfa_offset 4
 851 0014 BD46     		mov	sp, r7
 852              		.cfi_def_cfa_register 13
 853              		@ sp needed
 854 0016 5DF8047B 		ldr	r7, [sp], #4
 855              		.cfi_restore 7
 856              		.cfi_def_cfa_offset 0
 857 001a 7047     		bx	lr
 858              		.cfi_endproc
 859              	.LFE3623:
 861              		.weak	_ZN5daisy11AudioHandleC1Ev
ARM GAS  /var/folders/1_/rgbtf7293t93c5kflb58xcy40000gn/T//ccMetEze.s 			page 44


 862              		.thumb_set _ZN5daisy11AudioHandleC1Ev,_ZN5daisy11AudioHandleC2Ev
 863              		.section	.text._ZN5daisy11AudioHandleD2Ev,"axG",%progbits,_ZN5daisy11AudioHandleD5Ev,comdat
 864              		.align	1
 865              		.weak	_ZN5daisy11AudioHandleD2Ev
 866              		.syntax unified
 867              		.thumb
 868              		.thumb_func
 870              	_ZN5daisy11AudioHandleD2Ev:
 871              	.LFB3626:
  96:../DaisyExamples/libDaisy//src/hid/audio.h ****     ~AudioHandle() {}
 872              		.loc 11 96 5
 873              		.cfi_startproc
 874              		@ args = 0, pretend = 0, frame = 8
 875              		@ frame_needed = 1, uses_anonymous_args = 0
 876              		@ link register save eliminated.
 877 0000 80B4     		push	{r7}
 878              		.cfi_def_cfa_offset 4
 879              		.cfi_offset 7, -4
 880 0002 83B0     		sub	sp, sp, #12
 881              		.cfi_def_cfa_offset 16
 882 0004 00AF     		add	r7, sp, #0
 883              		.cfi_def_cfa_register 7
 884 0006 7860     		str	r0, [r7, #4]
 885              		.loc 11 96 21
 886 0008 7B68     		ldr	r3, [r7, #4]
 887 000a 1846     		mov	r0, r3
 888 000c 0C37     		adds	r7, r7, #12
 889              		.cfi_def_cfa_offset 4
 890 000e BD46     		mov	sp, r7
 891              		.cfi_def_cfa_register 13
 892              		@ sp needed
 893 0010 5DF8047B 		ldr	r7, [sp], #4
 894              		.cfi_restore 7
 895              		.cfi_def_cfa_offset 0
 896 0014 7047     		bx	lr
 897              		.cfi_endproc
 898              	.LFE3626:
 900              		.weak	_ZN5daisy11AudioHandleD1Ev
 901              		.thumb_set _ZN5daisy11AudioHandleD1Ev,_ZN5daisy11AudioHandleD2Ev
 902              		.section	.text._ZN5daisy9AdcHandleC2Ev,"axG",%progbits,_ZN5daisy9AdcHandleC5Ev,comdat
 903              		.align	1
 904              		.weak	_ZN5daisy9AdcHandleC2Ev
 905              		.syntax unified
 906              		.thumb
 907              		.thumb_func
 909              	_ZN5daisy9AdcHandleC2Ev:
 910              	.LFB3629:
 911              		.file 12 "../DaisyExamples/libDaisy//src/per/adc.h"
   1:../DaisyExamples/libDaisy//src/per/adc.h **** #pragma once
   2:../DaisyExamples/libDaisy//src/per/adc.h **** #ifndef DSY_ADC_H
   3:../DaisyExamples/libDaisy//src/per/adc.h **** #define DSY_ADC_H /**< Macro */
   4:../DaisyExamples/libDaisy//src/per/adc.h **** #include <stdint.h>
   5:../DaisyExamples/libDaisy//src/per/adc.h **** #include <stdlib.h>
   6:../DaisyExamples/libDaisy//src/per/adc.h **** #include "daisy_core.h"
   7:../DaisyExamples/libDaisy//src/per/adc.h **** #include "per/gpio.h"
   8:../DaisyExamples/libDaisy//src/per/adc.h **** 
   9:../DaisyExamples/libDaisy//src/per/adc.h **** #define DSY_ADC_MAX_CHANNELS 16 /**< Maximum number of ADC channels */
ARM GAS  /var/folders/1_/rgbtf7293t93c5kflb58xcy40000gn/T//ccMetEze.s 			page 45


  10:../DaisyExamples/libDaisy//src/per/adc.h **** 
  11:../DaisyExamples/libDaisy//src/per/adc.h **** namespace daisy
  12:../DaisyExamples/libDaisy//src/per/adc.h **** {
  13:../DaisyExamples/libDaisy//src/per/adc.h **** /** @addtogroup per_analog
  14:../DaisyExamples/libDaisy//src/per/adc.h ****     @{
  15:../DaisyExamples/libDaisy//src/per/adc.h **** */
  16:../DaisyExamples/libDaisy//src/per/adc.h **** 
  17:../DaisyExamples/libDaisy//src/per/adc.h **** /* While there may not be many configuration options here,
  18:../DaisyExamples/libDaisy//src/per/adc.h **** using a struct like this allows us to add more configuration
  19:../DaisyExamples/libDaisy//src/per/adc.h **** later without breaking existing functionality.
  20:../DaisyExamples/libDaisy//src/per/adc.h **** */
  21:../DaisyExamples/libDaisy//src/per/adc.h **** 
  22:../DaisyExamples/libDaisy//src/per/adc.h **** /** @brief   Configuration Structure for an ADC Channel 
  23:../DaisyExamples/libDaisy//src/per/adc.h ****  *  @details This can be used to configure a a single input, 
  24:../DaisyExamples/libDaisy//src/per/adc.h ****  *           or a multiplexed input, allowing up to 8 inputs on 
  25:../DaisyExamples/libDaisy//src/per/adc.h ****  *           one channel.
  26:../DaisyExamples/libDaisy//src/per/adc.h ****  *  @note    Sharing data lines to multiple muxes _is_ possible, but
  27:../DaisyExamples/libDaisy//src/per/adc.h ****  *           each channel sharing data lines must be set to the maximum
  28:../DaisyExamples/libDaisy//src/per/adc.h ****  *           number of channels, even if some multiplexers have fewer
  29:../DaisyExamples/libDaisy//src/per/adc.h ****  *           inputs connected.
  30:../DaisyExamples/libDaisy//src/per/adc.h **** */
  31:../DaisyExamples/libDaisy//src/per/adc.h **** struct AdcChannelConfig
  32:../DaisyExamples/libDaisy//src/per/adc.h **** {
  33:../DaisyExamples/libDaisy//src/per/adc.h ****     /** Which pin to use for multiplexing */
  34:../DaisyExamples/libDaisy//src/per/adc.h ****     enum MuxPin
  35:../DaisyExamples/libDaisy//src/per/adc.h ****     {
  36:../DaisyExamples/libDaisy//src/per/adc.h ****         MUX_SEL_0,    /**< & */
  37:../DaisyExamples/libDaisy//src/per/adc.h ****         MUX_SEL_1,    /**< & */
  38:../DaisyExamples/libDaisy//src/per/adc.h ****         MUX_SEL_2,    /**< & */
  39:../DaisyExamples/libDaisy//src/per/adc.h ****         MUX_SEL_LAST, /**< & */
  40:../DaisyExamples/libDaisy//src/per/adc.h ****     };
  41:../DaisyExamples/libDaisy//src/per/adc.h **** 
  42:../DaisyExamples/libDaisy//src/per/adc.h ****     /** \brief per channel conversion speed added to fixed time based on bitdepth, etc. */
  43:../DaisyExamples/libDaisy//src/per/adc.h ****     enum ConversionSpeed
  44:../DaisyExamples/libDaisy//src/per/adc.h ****     {
  45:../DaisyExamples/libDaisy//src/per/adc.h ****         SPEED_1CYCLES_5,
  46:../DaisyExamples/libDaisy//src/per/adc.h ****         SPEED_2CYCLES_5,
  47:../DaisyExamples/libDaisy//src/per/adc.h ****         SPEED_8CYCLES_5,
  48:../DaisyExamples/libDaisy//src/per/adc.h ****         SPEED_16CYCLES_5,
  49:../DaisyExamples/libDaisy//src/per/adc.h ****         SPEED_32CYCLES_5,
  50:../DaisyExamples/libDaisy//src/per/adc.h ****         SPEED_64CYCLES_5,
  51:../DaisyExamples/libDaisy//src/per/adc.h ****         SPEED_387CYCLES_5,
  52:../DaisyExamples/libDaisy//src/per/adc.h ****         SPEED_810CYCLES_5,
  53:../DaisyExamples/libDaisy//src/per/adc.h ****     };
  54:../DaisyExamples/libDaisy//src/per/adc.h **** 
  55:../DaisyExamples/libDaisy//src/per/adc.h ****     /** Initializes a single ADC pin as an ADC. 
  56:../DaisyExamples/libDaisy//src/per/adc.h ****     \param pin Pin to init.
  57:../DaisyExamples/libDaisy//src/per/adc.h ****     \param speed conversion speed for this pin defaults to 8.5 cycles
  58:../DaisyExamples/libDaisy//src/per/adc.h ****      */
  59:../DaisyExamples/libDaisy//src/per/adc.h ****     void InitSingle(dsy_gpio_pin pin, ConversionSpeed speed = SPEED_8CYCLES_5);
  60:../DaisyExamples/libDaisy//src/per/adc.h **** 
  61:../DaisyExamples/libDaisy//src/per/adc.h ****     /** 
  62:../DaisyExamples/libDaisy//src/per/adc.h ****     Initializes a single ADC pin as a Multiplexed ADC.
  63:../DaisyExamples/libDaisy//src/per/adc.h ****     Requires a CD405X Multiplexer connected to the pin.
  64:../DaisyExamples/libDaisy//src/per/adc.h ****     You only need to supply the mux pins that are required,
  65:../DaisyExamples/libDaisy//src/per/adc.h ****     e.g. a 4052 mux would only require mux_0 and mux_1.
  66:../DaisyExamples/libDaisy//src/per/adc.h ****     Internal Callbacks handle the pin addressing.
ARM GAS  /var/folders/1_/rgbtf7293t93c5kflb58xcy40000gn/T//ccMetEze.s 			page 46


  67:../DaisyExamples/libDaisy//src/per/adc.h ****     \param adc_pin &
  68:../DaisyExamples/libDaisy//src/per/adc.h ****     \param mux_channels must be 1-8
  69:../DaisyExamples/libDaisy//src/per/adc.h ****     \param mux_0 First mux pin
  70:../DaisyExamples/libDaisy//src/per/adc.h ****     \param mux_1 Second mux pin
  71:../DaisyExamples/libDaisy//src/per/adc.h ****     \param mux_2 Third mux pin
  72:../DaisyExamples/libDaisy//src/per/adc.h ****     \param speed conversion speed for this pin defaults to 8.5 cycles
  73:../DaisyExamples/libDaisy//src/per/adc.h ****     */
  74:../DaisyExamples/libDaisy//src/per/adc.h ****     void InitMux(dsy_gpio_pin    adc_pin,
  75:../DaisyExamples/libDaisy//src/per/adc.h ****                  size_t          mux_channels,
  76:../DaisyExamples/libDaisy//src/per/adc.h ****                  dsy_gpio_pin    mux_0,
  77:../DaisyExamples/libDaisy//src/per/adc.h ****                  dsy_gpio_pin    mux_1 = {DSY_GPIOX, 0},
  78:../DaisyExamples/libDaisy//src/per/adc.h ****                  dsy_gpio_pin    mux_2 = {DSY_GPIOX, 0},
  79:../DaisyExamples/libDaisy//src/per/adc.h ****                  ConversionSpeed speed = SPEED_8CYCLES_5);
  80:../DaisyExamples/libDaisy//src/per/adc.h **** 
  81:../DaisyExamples/libDaisy//src/per/adc.h ****     dsy_gpio        pin_;                   /**< & */
  82:../DaisyExamples/libDaisy//src/per/adc.h ****     dsy_gpio        mux_pin_[MUX_SEL_LAST]; /**< & */
  83:../DaisyExamples/libDaisy//src/per/adc.h ****     uint8_t         mux_channels_;          /**< & */
  84:../DaisyExamples/libDaisy//src/per/adc.h ****     ConversionSpeed speed_;
  85:../DaisyExamples/libDaisy//src/per/adc.h **** };
  86:../DaisyExamples/libDaisy//src/per/adc.h **** 
  87:../DaisyExamples/libDaisy//src/per/adc.h **** /**
  88:../DaisyExamples/libDaisy//src/per/adc.h ****    @brief Handler for analog to digital conversion
  89:../DaisyExamples/libDaisy//src/per/adc.h **** */
  90:../DaisyExamples/libDaisy//src/per/adc.h **** class AdcHandle
  91:../DaisyExamples/libDaisy//src/per/adc.h **** {
  92:../DaisyExamples/libDaisy//src/per/adc.h ****   public:
  93:../DaisyExamples/libDaisy//src/per/adc.h ****     /** Supported oversampling amounts */
  94:../DaisyExamples/libDaisy//src/per/adc.h ****     enum OverSampling
  95:../DaisyExamples/libDaisy//src/per/adc.h ****     {
  96:../DaisyExamples/libDaisy//src/per/adc.h ****         OVS_NONE, /**< & */
  97:../DaisyExamples/libDaisy//src/per/adc.h ****         OVS_4,    /**< & */
  98:../DaisyExamples/libDaisy//src/per/adc.h ****         OVS_8,    /**< & */
  99:../DaisyExamples/libDaisy//src/per/adc.h ****         OVS_16,   /**< & */
 100:../DaisyExamples/libDaisy//src/per/adc.h ****         OVS_32,   /**< & */
 101:../DaisyExamples/libDaisy//src/per/adc.h ****         OVS_64,   /**< & */
 102:../DaisyExamples/libDaisy//src/per/adc.h ****         OVS_128,  /**< & */
 103:../DaisyExamples/libDaisy//src/per/adc.h ****         OVS_256,  /**< & */
 104:../DaisyExamples/libDaisy//src/per/adc.h ****         OVS_512,  /**< & */
 105:../DaisyExamples/libDaisy//src/per/adc.h ****         OVS_1024, /**< & */
 106:../DaisyExamples/libDaisy//src/per/adc.h ****         OVS_LAST, /**< & */
 107:../DaisyExamples/libDaisy//src/per/adc.h ****     };
 108:../DaisyExamples/libDaisy//src/per/adc.h **** 
 109:../DaisyExamples/libDaisy//src/per/adc.h ****     AdcHandle() {}
 912              		.loc 12 109 5
 913              		.cfi_startproc
 914              		@ args = 0, pretend = 0, frame = 8
 915              		@ frame_needed = 1, uses_anonymous_args = 0
 916              		@ link register save eliminated.
 917 0000 80B4     		push	{r7}
 918              		.cfi_def_cfa_offset 4
 919              		.cfi_offset 7, -4
 920 0002 83B0     		sub	sp, sp, #12
 921              		.cfi_def_cfa_offset 16
 922 0004 00AF     		add	r7, sp, #0
 923              		.cfi_def_cfa_register 7
 924 0006 7860     		str	r0, [r7, #4]
 925              		.loc 12 109 18
ARM GAS  /var/folders/1_/rgbtf7293t93c5kflb58xcy40000gn/T//ccMetEze.s 			page 47


 926 0008 7B68     		ldr	r3, [r7, #4]
 927 000a 1846     		mov	r0, r3
 928 000c 0C37     		adds	r7, r7, #12
 929              		.cfi_def_cfa_offset 4
 930 000e BD46     		mov	sp, r7
 931              		.cfi_def_cfa_register 13
 932              		@ sp needed
 933 0010 5DF8047B 		ldr	r7, [sp], #4
 934              		.cfi_restore 7
 935              		.cfi_def_cfa_offset 0
 936 0014 7047     		bx	lr
 937              		.cfi_endproc
 938              	.LFE3629:
 940              		.weak	_ZN5daisy9AdcHandleC1Ev
 941              		.thumb_set _ZN5daisy9AdcHandleC1Ev,_ZN5daisy9AdcHandleC2Ev
 942              		.section	.text._ZN5daisy9AdcHandleD2Ev,"axG",%progbits,_ZN5daisy9AdcHandleD5Ev,comdat
 943              		.align	1
 944              		.weak	_ZN5daisy9AdcHandleD2Ev
 945              		.syntax unified
 946              		.thumb
 947              		.thumb_func
 949              	_ZN5daisy9AdcHandleD2Ev:
 950              	.LFB3632:
 110:../DaisyExamples/libDaisy//src/per/adc.h ****     ~AdcHandle() {}
 951              		.loc 12 110 5
 952              		.cfi_startproc
 953              		@ args = 0, pretend = 0, frame = 8
 954              		@ frame_needed = 1, uses_anonymous_args = 0
 955              		@ link register save eliminated.
 956 0000 80B4     		push	{r7}
 957              		.cfi_def_cfa_offset 4
 958              		.cfi_offset 7, -4
 959 0002 83B0     		sub	sp, sp, #12
 960              		.cfi_def_cfa_offset 16
 961 0004 00AF     		add	r7, sp, #0
 962              		.cfi_def_cfa_register 7
 963 0006 7860     		str	r0, [r7, #4]
 964              		.loc 12 110 19
 965 0008 7B68     		ldr	r3, [r7, #4]
 966 000a 1846     		mov	r0, r3
 967 000c 0C37     		adds	r7, r7, #12
 968              		.cfi_def_cfa_offset 4
 969 000e BD46     		mov	sp, r7
 970              		.cfi_def_cfa_register 13
 971              		@ sp needed
 972 0010 5DF8047B 		ldr	r7, [sp], #4
 973              		.cfi_restore 7
 974              		.cfi_def_cfa_offset 0
 975 0014 7047     		bx	lr
 976              		.cfi_endproc
 977              	.LFE3632:
 979              		.weak	_ZN5daisy9AdcHandleD1Ev
 980              		.thumb_set _ZN5daisy9AdcHandleD1Ev,_ZN5daisy9AdcHandleD2Ev
 981              		.section	.text._ZN5daisy9UsbHandleC2Ev,"axG",%progbits,_ZN5daisy9UsbHandleC5Ev,comdat
 982              		.align	1
 983              		.weak	_ZN5daisy9UsbHandleC2Ev
 984              		.syntax unified
ARM GAS  /var/folders/1_/rgbtf7293t93c5kflb58xcy40000gn/T//ccMetEze.s 			page 48


 985              		.thumb
 986              		.thumb_func
 988              	_ZN5daisy9UsbHandleC2Ev:
 989              	.LFB3724:
 990              		.file 13 "../DaisyExamples/libDaisy//src/hid/usb.h"
   1:../DaisyExamples/libDaisy//src/hid/usb.h **** #pragma once
   2:../DaisyExamples/libDaisy//src/hid/usb.h **** #ifndef DSY_HID_USB_H
   3:../DaisyExamples/libDaisy//src/hid/usb.h **** #define DSY_HID_USB_H
   4:../DaisyExamples/libDaisy//src/hid/usb.h **** #include <stdint.h>
   5:../DaisyExamples/libDaisy//src/hid/usb.h **** #include <stdlib.h>
   6:../DaisyExamples/libDaisy//src/hid/usb.h **** 
   7:../DaisyExamples/libDaisy//src/hid/usb.h **** namespace daisy
   8:../DaisyExamples/libDaisy//src/hid/usb.h **** /** @addtogroup human_interface
   9:../DaisyExamples/libDaisy//src/hid/usb.h ****     @{
  10:../DaisyExamples/libDaisy//src/hid/usb.h **** */
  11:../DaisyExamples/libDaisy//src/hid/usb.h **** 
  12:../DaisyExamples/libDaisy//src/hid/usb.h **** {
  13:../DaisyExamples/libDaisy//src/hid/usb.h **** /** 
  14:../DaisyExamples/libDaisy//src/hid/usb.h ****     @brief Interface for initializing and using the USB Peripherals on the daisy
  15:../DaisyExamples/libDaisy//src/hid/usb.h ****     @author Stephen Hensley
  16:../DaisyExamples/libDaisy//src/hid/usb.h ****     @date December 2019
  17:../DaisyExamples/libDaisy//src/hid/usb.h **** */
  18:../DaisyExamples/libDaisy//src/hid/usb.h **** class UsbHandle
  19:../DaisyExamples/libDaisy//src/hid/usb.h **** {
  20:../DaisyExamples/libDaisy//src/hid/usb.h ****   public:
  21:../DaisyExamples/libDaisy//src/hid/usb.h ****     /** Return values for USBHandle Functions */
  22:../DaisyExamples/libDaisy//src/hid/usb.h ****     enum class Result
  23:../DaisyExamples/libDaisy//src/hid/usb.h ****     {
  24:../DaisyExamples/libDaisy//src/hid/usb.h ****         OK,
  25:../DaisyExamples/libDaisy//src/hid/usb.h ****         ERR,
  26:../DaisyExamples/libDaisy//src/hid/usb.h ****     };
  27:../DaisyExamples/libDaisy//src/hid/usb.h **** 
  28:../DaisyExamples/libDaisy//src/hid/usb.h ****     /** Specified which of the two USB Peripherals to initialize. */
  29:../DaisyExamples/libDaisy//src/hid/usb.h ****     enum UsbPeriph
  30:../DaisyExamples/libDaisy//src/hid/usb.h ****     {
  31:../DaisyExamples/libDaisy//src/hid/usb.h ****         FS_INTERNAL, /**< Internal pin */
  32:../DaisyExamples/libDaisy//src/hid/usb.h ****         FS_EXTERNAL, /**< FS External D+ pin is Pin 38 (GPIO32). FS External D- pin is Pin 37 (GPIO
  33:../DaisyExamples/libDaisy//src/hid/usb.h ****         FS_BOTH,     /**< Both */
  34:../DaisyExamples/libDaisy//src/hid/usb.h ****     };
  35:../DaisyExamples/libDaisy//src/hid/usb.h **** 
  36:../DaisyExamples/libDaisy//src/hid/usb.h **** 
  37:../DaisyExamples/libDaisy//src/hid/usb.h ****     /** Function called upon reception of a buffer */
  38:../DaisyExamples/libDaisy//src/hid/usb.h ****     typedef void (*ReceiveCallback)(uint8_t* buff, uint32_t* len);
  39:../DaisyExamples/libDaisy//src/hid/usb.h **** 
  40:../DaisyExamples/libDaisy//src/hid/usb.h ****     UsbHandle() {}
 991              		.loc 13 40 5
 992              		.cfi_startproc
 993              		@ args = 0, pretend = 0, frame = 8
 994              		@ frame_needed = 1, uses_anonymous_args = 0
 995              		@ link register save eliminated.
 996 0000 80B4     		push	{r7}
 997              		.cfi_def_cfa_offset 4
 998              		.cfi_offset 7, -4
 999 0002 83B0     		sub	sp, sp, #12
 1000              		.cfi_def_cfa_offset 16
 1001 0004 00AF     		add	r7, sp, #0
 1002              		.cfi_def_cfa_register 7
ARM GAS  /var/folders/1_/rgbtf7293t93c5kflb58xcy40000gn/T//ccMetEze.s 			page 49


 1003 0006 7860     		str	r0, [r7, #4]
 1004              		.loc 13 40 18
 1005 0008 7B68     		ldr	r3, [r7, #4]
 1006 000a 1846     		mov	r0, r3
 1007 000c 0C37     		adds	r7, r7, #12
 1008              		.cfi_def_cfa_offset 4
 1009 000e BD46     		mov	sp, r7
 1010              		.cfi_def_cfa_register 13
 1011              		@ sp needed
 1012 0010 5DF8047B 		ldr	r7, [sp], #4
 1013              		.cfi_restore 7
 1014              		.cfi_def_cfa_offset 0
 1015 0014 7047     		bx	lr
 1016              		.cfi_endproc
 1017              	.LFE3724:
 1019              		.weak	_ZN5daisy9UsbHandleC1Ev
 1020              		.thumb_set _ZN5daisy9UsbHandleC1Ev,_ZN5daisy9UsbHandleC2Ev
 1021              		.section	.text._ZN5daisy9UsbHandleD2Ev,"axG",%progbits,_ZN5daisy9UsbHandleD5Ev,comdat
 1022              		.align	1
 1023              		.weak	_ZN5daisy9UsbHandleD2Ev
 1024              		.syntax unified
 1025              		.thumb
 1026              		.thumb_func
 1028              	_ZN5daisy9UsbHandleD2Ev:
 1029              	.LFB3727:
  41:../DaisyExamples/libDaisy//src/hid/usb.h **** 
  42:../DaisyExamples/libDaisy//src/hid/usb.h ****     ~UsbHandle() {}
 1030              		.loc 13 42 5
 1031              		.cfi_startproc
 1032              		@ args = 0, pretend = 0, frame = 8
 1033              		@ frame_needed = 1, uses_anonymous_args = 0
 1034              		@ link register save eliminated.
 1035 0000 80B4     		push	{r7}
 1036              		.cfi_def_cfa_offset 4
 1037              		.cfi_offset 7, -4
 1038 0002 83B0     		sub	sp, sp, #12
 1039              		.cfi_def_cfa_offset 16
 1040 0004 00AF     		add	r7, sp, #0
 1041              		.cfi_def_cfa_register 7
 1042 0006 7860     		str	r0, [r7, #4]
 1043              		.loc 13 42 19
 1044 0008 7B68     		ldr	r3, [r7, #4]
 1045 000a 1846     		mov	r0, r3
 1046 000c 0C37     		adds	r7, r7, #12
 1047              		.cfi_def_cfa_offset 4
 1048 000e BD46     		mov	sp, r7
 1049              		.cfi_def_cfa_register 13
 1050              		@ sp needed
 1051 0010 5DF8047B 		ldr	r7, [sp], #4
 1052              		.cfi_restore 7
 1053              		.cfi_def_cfa_offset 0
 1054 0014 7047     		bx	lr
 1055              		.cfi_endproc
 1056              	.LFE3727:
 1058              		.weak	_ZN5daisy9UsbHandleD1Ev
 1059              		.thumb_set _ZN5daisy9UsbHandleD1Ev,_ZN5daisy9UsbHandleD2Ev
 1060              		.section	.text._ZN5daisy13AnalogControlC2Ev,"axG",%progbits,_ZN5daisy13AnalogControlC5Ev,comdat
ARM GAS  /var/folders/1_/rgbtf7293t93c5kflb58xcy40000gn/T//ccMetEze.s 			page 50


 1061              		.align	1
 1062              		.weak	_ZN5daisy13AnalogControlC2Ev
 1063              		.syntax unified
 1064              		.thumb
 1065              		.thumb_func
 1067              	_ZN5daisy13AnalogControlC2Ev:
 1068              	.LFB3793:
 1069              		.file 14 "../DaisyExamples/libDaisy//src/hid/ctrl.h"
   1:../DaisyExamples/libDaisy//src/hid/ctrl.h **** #pragma once
   2:../DaisyExamples/libDaisy//src/hid/ctrl.h **** #ifndef DSY_KNOB_H
   3:../DaisyExamples/libDaisy//src/hid/ctrl.h **** #define DSY_KNOB_H /**< & */
   4:../DaisyExamples/libDaisy//src/hid/ctrl.h **** #include <stdint.h>
   5:../DaisyExamples/libDaisy//src/hid/ctrl.h **** 
   6:../DaisyExamples/libDaisy//src/hid/ctrl.h **** #ifdef __cplusplus
   7:../DaisyExamples/libDaisy//src/hid/ctrl.h **** namespace daisy
   8:../DaisyExamples/libDaisy//src/hid/ctrl.h **** {
   9:../DaisyExamples/libDaisy//src/hid/ctrl.h **** /**
  10:../DaisyExamples/libDaisy//src/hid/ctrl.h ****     @brief Hardware Interface for control inputs \n 
  11:../DaisyExamples/libDaisy//src/hid/ctrl.h ****     Primarily designed for ADC input controls such as \n 
  12:../DaisyExamples/libDaisy//src/hid/ctrl.h ****     potentiometers, and control voltage. \n 
  13:../DaisyExamples/libDaisy//src/hid/ctrl.h ****     @author Stephen Hensley
  14:../DaisyExamples/libDaisy//src/hid/ctrl.h ****     @date November 2019
  15:../DaisyExamples/libDaisy//src/hid/ctrl.h ****     @ingroup controls
  16:../DaisyExamples/libDaisy//src/hid/ctrl.h **** */
  17:../DaisyExamples/libDaisy//src/hid/ctrl.h **** class AnalogControl
  18:../DaisyExamples/libDaisy//src/hid/ctrl.h **** {
  19:../DaisyExamples/libDaisy//src/hid/ctrl.h ****   public:
  20:../DaisyExamples/libDaisy//src/hid/ctrl.h ****     /** Constructor */
  21:../DaisyExamples/libDaisy//src/hid/ctrl.h ****     AnalogControl() {}
 1070              		.loc 14 21 5
 1071              		.cfi_startproc
 1072              		@ args = 0, pretend = 0, frame = 8
 1073              		@ frame_needed = 1, uses_anonymous_args = 0
 1074              		@ link register save eliminated.
 1075 0000 80B4     		push	{r7}
 1076              		.cfi_def_cfa_offset 4
 1077              		.cfi_offset 7, -4
 1078 0002 83B0     		sub	sp, sp, #12
 1079              		.cfi_def_cfa_offset 16
 1080 0004 00AF     		add	r7, sp, #0
 1081              		.cfi_def_cfa_register 7
 1082 0006 7860     		str	r0, [r7, #4]
 1083              		.loc 14 21 22
 1084 0008 7B68     		ldr	r3, [r7, #4]
 1085 000a 1846     		mov	r0, r3
 1086 000c 0C37     		adds	r7, r7, #12
 1087              		.cfi_def_cfa_offset 4
 1088 000e BD46     		mov	sp, r7
 1089              		.cfi_def_cfa_register 13
 1090              		@ sp needed
 1091 0010 5DF8047B 		ldr	r7, [sp], #4
 1092              		.cfi_restore 7
 1093              		.cfi_def_cfa_offset 0
 1094 0014 7047     		bx	lr
 1095              		.cfi_endproc
 1096              	.LFE3793:
 1098              		.weak	_ZN5daisy13AnalogControlC1Ev
ARM GAS  /var/folders/1_/rgbtf7293t93c5kflb58xcy40000gn/T//ccMetEze.s 			page 51


 1099              		.thumb_set _ZN5daisy13AnalogControlC1Ev,_ZN5daisy13AnalogControlC2Ev
 1100              		.section	.text._ZN5daisy13AnalogControlD2Ev,"axG",%progbits,_ZN5daisy13AnalogControlD5Ev,comdat
 1101              		.align	1
 1102              		.weak	_ZN5daisy13AnalogControlD2Ev
 1103              		.syntax unified
 1104              		.thumb
 1105              		.thumb_func
 1107              	_ZN5daisy13AnalogControlD2Ev:
 1108              	.LFB3796:
  22:../DaisyExamples/libDaisy//src/hid/ctrl.h ****     /** destructor */
  23:../DaisyExamples/libDaisy//src/hid/ctrl.h ****     ~AnalogControl() {}
 1109              		.loc 14 23 5
 1110              		.cfi_startproc
 1111              		@ args = 0, pretend = 0, frame = 8
 1112              		@ frame_needed = 1, uses_anonymous_args = 0
 1113              		@ link register save eliminated.
 1114 0000 80B4     		push	{r7}
 1115              		.cfi_def_cfa_offset 4
 1116              		.cfi_offset 7, -4
 1117 0002 83B0     		sub	sp, sp, #12
 1118              		.cfi_def_cfa_offset 16
 1119 0004 00AF     		add	r7, sp, #0
 1120              		.cfi_def_cfa_register 7
 1121 0006 7860     		str	r0, [r7, #4]
 1122              		.loc 14 23 23
 1123 0008 7B68     		ldr	r3, [r7, #4]
 1124 000a 1846     		mov	r0, r3
 1125 000c 0C37     		adds	r7, r7, #12
 1126              		.cfi_def_cfa_offset 4
 1127 000e BD46     		mov	sp, r7
 1128              		.cfi_def_cfa_register 13
 1129              		@ sp needed
 1130 0010 5DF8047B 		ldr	r7, [sp], #4
 1131              		.cfi_restore 7
 1132              		.cfi_def_cfa_offset 0
 1133 0014 7047     		bx	lr
 1134              		.cfi_endproc
 1135              	.LFE3796:
 1137              		.weak	_ZN5daisy13AnalogControlD1Ev
 1138              		.thumb_set _ZN5daisy13AnalogControlD1Ev,_ZN5daisy13AnalogControlD2Ev
 1139              		.section	.text._ZN5daisy6GateInC2Ev,"axG",%progbits,_ZN5daisy6GateInC5Ev,comdat
 1140              		.align	1
 1141              		.weak	_ZN5daisy6GateInC2Ev
 1142              		.syntax unified
 1143              		.thumb
 1144              		.thumb_func
 1146              	_ZN5daisy6GateInC2Ev:
 1147              	.LFB3803:
 1148              		.file 15 "../DaisyExamples/libDaisy//src/hid/gatein.h"
   1:../DaisyExamples/libDaisy//src/hid/gatein.h **** #pragma once
   2:../DaisyExamples/libDaisy//src/hid/gatein.h **** #ifndef DSY_GATEIN_H
   3:../DaisyExamples/libDaisy//src/hid/gatein.h **** #define DSY_GATEIN_H
   4:../DaisyExamples/libDaisy//src/hid/gatein.h **** #include "per/gpio.h"
   5:../DaisyExamples/libDaisy//src/hid/gatein.h **** 
   6:../DaisyExamples/libDaisy//src/hid/gatein.h **** namespace daisy
   7:../DaisyExamples/libDaisy//src/hid/gatein.h **** {
   8:../DaisyExamples/libDaisy//src/hid/gatein.h **** /**
ARM GAS  /var/folders/1_/rgbtf7293t93c5kflb58xcy40000gn/T//ccMetEze.s 			page 52


   9:../DaisyExamples/libDaisy//src/hid/gatein.h ****    @brief Generic Class for handling gate inputs through GPIO.
  10:../DaisyExamples/libDaisy//src/hid/gatein.h ****    @author Stephen Hensley
  11:../DaisyExamples/libDaisy//src/hid/gatein.h ****    @date    March 2020
  12:../DaisyExamples/libDaisy//src/hid/gatein.h ****    @ingroup controls
  13:../DaisyExamples/libDaisy//src/hid/gatein.h **** */
  14:../DaisyExamples/libDaisy//src/hid/gatein.h **** class GateIn
  15:../DaisyExamples/libDaisy//src/hid/gatein.h **** {
  16:../DaisyExamples/libDaisy//src/hid/gatein.h ****   public:
  17:../DaisyExamples/libDaisy//src/hid/gatein.h ****     /** GateIn Constructor */
  18:../DaisyExamples/libDaisy//src/hid/gatein.h ****     GateIn() {}
 1149              		.loc 15 18 5
 1150              		.cfi_startproc
 1151              		@ args = 0, pretend = 0, frame = 8
 1152              		@ frame_needed = 1, uses_anonymous_args = 0
 1153 0000 80B5     		push	{r7, lr}
 1154              		.cfi_def_cfa_offset 8
 1155              		.cfi_offset 7, -8
 1156              		.cfi_offset 14, -4
 1157 0002 82B0     		sub	sp, sp, #8
 1158              		.cfi_def_cfa_offset 16
 1159 0004 00AF     		add	r7, sp, #0
 1160              		.cfi_def_cfa_register 7
 1161 0006 7860     		str	r0, [r7, #4]
 1162              	.LBB12:
 1163              		.loc 15 18 14
 1164 0008 7B68     		ldr	r3, [r7, #4]
 1165 000a 1846     		mov	r0, r3
 1166 000c FFF7FEFF 		bl	_ZN5daisy4GPIOC1Ev
 1167              	.LBE12:
 1168              		.loc 15 18 15
 1169 0010 7B68     		ldr	r3, [r7, #4]
 1170 0012 1846     		mov	r0, r3
 1171 0014 0837     		adds	r7, r7, #8
 1172              		.cfi_def_cfa_offset 8
 1173 0016 BD46     		mov	sp, r7
 1174              		.cfi_def_cfa_register 13
 1175              		@ sp needed
 1176 0018 80BD     		pop	{r7, pc}
 1177              		.cfi_endproc
 1178              	.LFE3803:
 1180              		.weak	_ZN5daisy6GateInC1Ev
 1181              		.thumb_set _ZN5daisy6GateInC1Ev,_ZN5daisy6GateInC2Ev
 1182              		.section	.text._ZN5daisy6GateInD2Ev,"axG",%progbits,_ZN5daisy6GateInD5Ev,comdat
 1183              		.align	1
 1184              		.weak	_ZN5daisy6GateInD2Ev
 1185              		.syntax unified
 1186              		.thumb
 1187              		.thumb_func
 1189              	_ZN5daisy6GateInD2Ev:
 1190              	.LFB3806:
  19:../DaisyExamples/libDaisy//src/hid/gatein.h **** 
  20:../DaisyExamples/libDaisy//src/hid/gatein.h ****     /** GateIn Destructor */
  21:../DaisyExamples/libDaisy//src/hid/gatein.h ****     ~GateIn() {}
 1191              		.loc 15 21 5
 1192              		.cfi_startproc
 1193              		@ args = 0, pretend = 0, frame = 8
 1194              		@ frame_needed = 1, uses_anonymous_args = 0
ARM GAS  /var/folders/1_/rgbtf7293t93c5kflb58xcy40000gn/T//ccMetEze.s 			page 53


 1195              		@ link register save eliminated.
 1196 0000 80B4     		push	{r7}
 1197              		.cfi_def_cfa_offset 4
 1198              		.cfi_offset 7, -4
 1199 0002 83B0     		sub	sp, sp, #12
 1200              		.cfi_def_cfa_offset 16
 1201 0004 00AF     		add	r7, sp, #0
 1202              		.cfi_def_cfa_register 7
 1203 0006 7860     		str	r0, [r7, #4]
 1204              		.loc 15 21 16
 1205 0008 7B68     		ldr	r3, [r7, #4]
 1206 000a 1846     		mov	r0, r3
 1207 000c 0C37     		adds	r7, r7, #12
 1208              		.cfi_def_cfa_offset 4
 1209 000e BD46     		mov	sp, r7
 1210              		.cfi_def_cfa_register 13
 1211              		@ sp needed
 1212 0010 5DF8047B 		ldr	r7, [sp], #4
 1213              		.cfi_restore 7
 1214              		.cfi_def_cfa_offset 0
 1215 0014 7047     		bx	lr
 1216              		.cfi_endproc
 1217              	.LFE3806:
 1219              		.weak	_ZN5daisy6GateInD1Ev
 1220              		.thumb_set _ZN5daisy6GateInD1Ev,_ZN5daisy6GateInD2Ev
 1221              		.section	.rodata._ZN5daisyL15kWavFileChunkIdE,"a"
 1222              		.align	2
 1225              	_ZN5daisyL15kWavFileChunkIdE:
 1226 0000 52494646 		.word	1179011410
 1227              		.section	.rodata._ZN5daisyL14kWavFileWaveIdE,"a"
 1228              		.align	2
 1231              	_ZN5daisyL14kWavFileWaveIdE:
 1232 0000 57415645 		.word	1163280727
 1233              		.section	.rodata._ZN5daisyL19kWavFileSubChunk1IdE,"a"
 1234              		.align	2
 1237              	_ZN5daisyL19kWavFileSubChunk1IdE:
 1238 0000 666D7420 		.word	544501094
 1239              		.section	.rodata._ZN5daisyL19kWavFileSubChunk2IdE,"a"
 1240              		.align	2
 1243              	_ZN5daisyL19kWavFileSubChunk2IdE:
 1244 0000 64617461 		.word	1635017060
 1245              		.section	.rodata._ZL19kMaxSr595DaisyChain,"a"
 1246              		.align	2
 1249              	_ZL19kMaxSr595DaisyChain:
 1250 0000 10000000 		.word	16
 1251              		.section	.text._ZN5daisy7Pcm3060C2Ev,"axG",%progbits,_ZN5daisy7Pcm3060C5Ev,comdat
 1252              		.align	1
 1253              		.weak	_ZN5daisy7Pcm3060C2Ev
 1254              		.syntax unified
 1255              		.thumb
 1256              		.thumb_func
 1258              	_ZN5daisy7Pcm3060C2Ev:
 1259              	.LFB4061:
 1260              		.file 16 "../DaisyExamples/libDaisy//src/dev/codec_pcm3060.h"
   1:../DaisyExamples/libDaisy//src/dev/codec_pcm3060.h **** #pragma once
   2:../DaisyExamples/libDaisy//src/dev/codec_pcm3060.h **** #ifndef DSY_CODEC_PCM3060_H
   3:../DaisyExamples/libDaisy//src/dev/codec_pcm3060.h **** #define DSY_CODEC_PCM3060_H
ARM GAS  /var/folders/1_/rgbtf7293t93c5kflb58xcy40000gn/T//ccMetEze.s 			page 54


   4:../DaisyExamples/libDaisy//src/dev/codec_pcm3060.h **** #include "per/i2c.h"
   5:../DaisyExamples/libDaisy//src/dev/codec_pcm3060.h **** namespace daisy
   6:../DaisyExamples/libDaisy//src/dev/codec_pcm3060.h **** {
   7:../DaisyExamples/libDaisy//src/dev/codec_pcm3060.h **** /**
   8:../DaisyExamples/libDaisy//src/dev/codec_pcm3060.h ****  * @brief Driver for the TI PCM3060 Audio Codec.
   9:../DaisyExamples/libDaisy//src/dev/codec_pcm3060.h ****  * @addtogroup codec
  10:../DaisyExamples/libDaisy//src/dev/codec_pcm3060.h ****  * 
  11:../DaisyExamples/libDaisy//src/dev/codec_pcm3060.h ****  * For now this is a limited interface that uses I2C to communicate with the PCM3060
  12:../DaisyExamples/libDaisy//src/dev/codec_pcm3060.h ****  * The device can also be accessed with SPI, which is not yet supported.
  13:../DaisyExamples/libDaisy//src/dev/codec_pcm3060.h ****  * 
  14:../DaisyExamples/libDaisy//src/dev/codec_pcm3060.h ****  * For now all registers are set to their defaults, and the Init function will 
  15:../DaisyExamples/libDaisy//src/dev/codec_pcm3060.h ****  * perform a MRST and SRST before setting the format to 24bit LJ, and disabling 
  16:../DaisyExamples/libDaisy//src/dev/codec_pcm3060.h ****  * power save for both the ADC and DAC.
  17:../DaisyExamples/libDaisy//src/dev/codec_pcm3060.h ****  *
  18:../DaisyExamples/libDaisy//src/dev/codec_pcm3060.h ****  */
  19:../DaisyExamples/libDaisy//src/dev/codec_pcm3060.h **** class Pcm3060
  20:../DaisyExamples/libDaisy//src/dev/codec_pcm3060.h **** {
  21:../DaisyExamples/libDaisy//src/dev/codec_pcm3060.h ****   public:
  22:../DaisyExamples/libDaisy//src/dev/codec_pcm3060.h ****     enum class Result
  23:../DaisyExamples/libDaisy//src/dev/codec_pcm3060.h ****     {
  24:../DaisyExamples/libDaisy//src/dev/codec_pcm3060.h ****         OK,
  25:../DaisyExamples/libDaisy//src/dev/codec_pcm3060.h ****         ERR,
  26:../DaisyExamples/libDaisy//src/dev/codec_pcm3060.h ****     };
  27:../DaisyExamples/libDaisy//src/dev/codec_pcm3060.h **** 
  28:../DaisyExamples/libDaisy//src/dev/codec_pcm3060.h ****     Pcm3060() {}
 1261              		.loc 16 28 5
 1262              		.cfi_startproc
 1263              		@ args = 0, pretend = 0, frame = 8
 1264              		@ frame_needed = 1, uses_anonymous_args = 0
 1265 0000 80B5     		push	{r7, lr}
 1266              		.cfi_def_cfa_offset 8
 1267              		.cfi_offset 7, -8
 1268              		.cfi_offset 14, -4
 1269 0002 82B0     		sub	sp, sp, #8
 1270              		.cfi_def_cfa_offset 16
 1271 0004 00AF     		add	r7, sp, #0
 1272              		.cfi_def_cfa_register 7
 1273 0006 7860     		str	r0, [r7, #4]
 1274              	.LBB13:
 1275              		.loc 16 28 15
 1276 0008 7B68     		ldr	r3, [r7, #4]
 1277 000a 1846     		mov	r0, r3
 1278 000c FFF7FEFF 		bl	_ZN5daisy9I2CHandleC1Ev
 1279              	.LBE13:
 1280              		.loc 16 28 16
 1281 0010 7B68     		ldr	r3, [r7, #4]
 1282 0012 1846     		mov	r0, r3
 1283 0014 0837     		adds	r7, r7, #8
 1284              		.cfi_def_cfa_offset 8
 1285 0016 BD46     		mov	sp, r7
 1286              		.cfi_def_cfa_register 13
 1287              		@ sp needed
 1288 0018 80BD     		pop	{r7, pc}
 1289              		.cfi_endproc
 1290              	.LFE4061:
 1292              		.weak	_ZN5daisy7Pcm3060C1Ev
 1293              		.thumb_set _ZN5daisy7Pcm3060C1Ev,_ZN5daisy7Pcm3060C2Ev
ARM GAS  /var/folders/1_/rgbtf7293t93c5kflb58xcy40000gn/T//ccMetEze.s 			page 55


 1294              		.section	.text._ZN5daisy7Pcm3060D2Ev,"axG",%progbits,_ZN5daisy7Pcm3060D5Ev,comdat
 1295              		.align	1
 1296              		.weak	_ZN5daisy7Pcm3060D2Ev
 1297              		.syntax unified
 1298              		.thumb
 1299              		.thumb_func
 1301              	_ZN5daisy7Pcm3060D2Ev:
 1302              	.LFB4064:
  29:../DaisyExamples/libDaisy//src/dev/codec_pcm3060.h ****     ~Pcm3060() {}
 1303              		.loc 16 29 5
 1304              		.cfi_startproc
 1305              		@ args = 0, pretend = 0, frame = 8
 1306              		@ frame_needed = 1, uses_anonymous_args = 0
 1307              		@ link register save eliminated.
 1308 0000 80B4     		push	{r7}
 1309              		.cfi_def_cfa_offset 4
 1310              		.cfi_offset 7, -4
 1311 0002 83B0     		sub	sp, sp, #12
 1312              		.cfi_def_cfa_offset 16
 1313 0004 00AF     		add	r7, sp, #0
 1314              		.cfi_def_cfa_register 7
 1315 0006 7860     		str	r0, [r7, #4]
 1316              		.loc 16 29 17
 1317 0008 7B68     		ldr	r3, [r7, #4]
 1318 000a 1846     		mov	r0, r3
 1319 000c 0C37     		adds	r7, r7, #12
 1320              		.cfi_def_cfa_offset 4
 1321 000e BD46     		mov	sp, r7
 1322              		.cfi_def_cfa_register 13
 1323              		@ sp needed
 1324 0010 5DF8047B 		ldr	r7, [sp], #4
 1325              		.cfi_restore 7
 1326              		.cfi_def_cfa_offset 0
 1327 0014 7047     		bx	lr
 1328              		.cfi_endproc
 1329              	.LFE4064:
 1331              		.weak	_ZN5daisy7Pcm3060D1Ev
 1332              		.thumb_set _ZN5daisy7Pcm3060D1Ev,_ZN5daisy7Pcm3060D2Ev
 1333              		.section	.text._ZN5daisy8patch_sm12DaisyPatchSMC2Ev,"axG",%progbits,_ZN5daisy8patch_sm12DaisyPatch
 1334              		.align	1
 1335              		.weak	_ZN5daisy8patch_sm12DaisyPatchSMC2Ev
 1336              		.syntax unified
 1337              		.thumb
 1338              		.thumb_func
 1340              	_ZN5daisy8patch_sm12DaisyPatchSMC2Ev:
 1341              	.LFB4671:
 1342              		.file 17 "../DaisyExamples/libDaisy//src/daisy_patch_sm.h"
   1:../DaisyExamples/libDaisy//src/daisy_patch_sm.h **** #pragma once
   2:../DaisyExamples/libDaisy//src/daisy_patch_sm.h **** 
   3:../DaisyExamples/libDaisy//src/daisy_patch_sm.h **** #include "daisy.h"
   4:../DaisyExamples/libDaisy//src/daisy_patch_sm.h **** 
   5:../DaisyExamples/libDaisy//src/daisy_patch_sm.h **** namespace daisy
   6:../DaisyExamples/libDaisy//src/daisy_patch_sm.h **** {
   7:../DaisyExamples/libDaisy//src/daisy_patch_sm.h **** namespace patch_sm
   8:../DaisyExamples/libDaisy//src/daisy_patch_sm.h **** {
   9:../DaisyExamples/libDaisy//src/daisy_patch_sm.h ****     /** Accessors for the Analog Controls. 
  10:../DaisyExamples/libDaisy//src/daisy_patch_sm.h ****      *  These cover the 8x Bipolar CV inputs
ARM GAS  /var/folders/1_/rgbtf7293t93c5kflb58xcy40000gn/T//ccMetEze.s 			page 56


  11:../DaisyExamples/libDaisy//src/daisy_patch_sm.h ****      *  as well as the 4x 0-3V3 ADC inputs on
  12:../DaisyExamples/libDaisy//src/daisy_patch_sm.h ****      *  the hardware 
  13:../DaisyExamples/libDaisy//src/daisy_patch_sm.h ****      * 
  14:../DaisyExamples/libDaisy//src/daisy_patch_sm.h ****      *  When reading a value with DaisyPatchSM::GetAdcValue()
  15:../DaisyExamples/libDaisy//src/daisy_patch_sm.h ****      * 
  16:../DaisyExamples/libDaisy//src/daisy_patch_sm.h ****      *  patch.GetAdcValue(patch_sm::CV_1);
  17:../DaisyExamples/libDaisy//src/daisy_patch_sm.h ****      */
  18:../DaisyExamples/libDaisy//src/daisy_patch_sm.h ****     enum
  19:../DaisyExamples/libDaisy//src/daisy_patch_sm.h ****     {
  20:../DaisyExamples/libDaisy//src/daisy_patch_sm.h ****         CV_1 = 0,
  21:../DaisyExamples/libDaisy//src/daisy_patch_sm.h ****         CV_2,
  22:../DaisyExamples/libDaisy//src/daisy_patch_sm.h ****         CV_3,
  23:../DaisyExamples/libDaisy//src/daisy_patch_sm.h ****         CV_4,
  24:../DaisyExamples/libDaisy//src/daisy_patch_sm.h ****         CV_5,
  25:../DaisyExamples/libDaisy//src/daisy_patch_sm.h ****         CV_6,
  26:../DaisyExamples/libDaisy//src/daisy_patch_sm.h ****         CV_7,
  27:../DaisyExamples/libDaisy//src/daisy_patch_sm.h ****         CV_8,
  28:../DaisyExamples/libDaisy//src/daisy_patch_sm.h ****         ADC_9,
  29:../DaisyExamples/libDaisy//src/daisy_patch_sm.h ****         ADC_10,
  30:../DaisyExamples/libDaisy//src/daisy_patch_sm.h ****         ADC_11,
  31:../DaisyExamples/libDaisy//src/daisy_patch_sm.h ****         ADC_12,
  32:../DaisyExamples/libDaisy//src/daisy_patch_sm.h ****         ADC_LAST,
  33:../DaisyExamples/libDaisy//src/daisy_patch_sm.h ****     };
  34:../DaisyExamples/libDaisy//src/daisy_patch_sm.h **** 
  35:../DaisyExamples/libDaisy//src/daisy_patch_sm.h ****     /** Enum for addressing the CV Outputs via the WriteCvOut function. */
  36:../DaisyExamples/libDaisy//src/daisy_patch_sm.h ****     enum
  37:../DaisyExamples/libDaisy//src/daisy_patch_sm.h ****     {
  38:../DaisyExamples/libDaisy//src/daisy_patch_sm.h ****         CV_OUT_BOTH = 0,
  39:../DaisyExamples/libDaisy//src/daisy_patch_sm.h ****         CV_OUT_1,
  40:../DaisyExamples/libDaisy//src/daisy_patch_sm.h ****         CV_OUT_2,
  41:../DaisyExamples/libDaisy//src/daisy_patch_sm.h ****     };
  42:../DaisyExamples/libDaisy//src/daisy_patch_sm.h **** 
  43:../DaisyExamples/libDaisy//src/daisy_patch_sm.h **** 
  44:../DaisyExamples/libDaisy//src/daisy_patch_sm.h ****     /** @brief Board support file for DaisyPatchSM hardware
  45:../DaisyExamples/libDaisy//src/daisy_patch_sm.h ****      *  @author shensley
  46:../DaisyExamples/libDaisy//src/daisy_patch_sm.h ****      *  @ingroup boards
  47:../DaisyExamples/libDaisy//src/daisy_patch_sm.h ****      * 
  48:../DaisyExamples/libDaisy//src/daisy_patch_sm.h ****      *  Daisy Patch SM is a complete Eurorack module DSP engine.
  49:../DaisyExamples/libDaisy//src/daisy_patch_sm.h ****      *  Based on the Daisy Seed, with circuits added for 
  50:../DaisyExamples/libDaisy//src/daisy_patch_sm.h ****      *  interfacing directly with eurorack modular synthesizers.
  51:../DaisyExamples/libDaisy//src/daisy_patch_sm.h ****      */
  52:../DaisyExamples/libDaisy//src/daisy_patch_sm.h ****     class DaisyPatchSM
  53:../DaisyExamples/libDaisy//src/daisy_patch_sm.h ****     {
  54:../DaisyExamples/libDaisy//src/daisy_patch_sm.h ****       public:
  55:../DaisyExamples/libDaisy//src/daisy_patch_sm.h ****         /** Helper for mapping pins, and accessing them using the `GetPin` function */
  56:../DaisyExamples/libDaisy//src/daisy_patch_sm.h ****         enum class PinBank
  57:../DaisyExamples/libDaisy//src/daisy_patch_sm.h ****         {
  58:../DaisyExamples/libDaisy//src/daisy_patch_sm.h ****             A,
  59:../DaisyExamples/libDaisy//src/daisy_patch_sm.h ****             B,
  60:../DaisyExamples/libDaisy//src/daisy_patch_sm.h ****             C,
  61:../DaisyExamples/libDaisy//src/daisy_patch_sm.h ****             D
  62:../DaisyExamples/libDaisy//src/daisy_patch_sm.h ****         };
  63:../DaisyExamples/libDaisy//src/daisy_patch_sm.h **** 
  64:../DaisyExamples/libDaisy//src/daisy_patch_sm.h ****         DaisyPatchSM() {}
 1343              		.loc 17 64 9
 1344              		.cfi_startproc
 1345              		@ args = 0, pretend = 0, frame = 8
ARM GAS  /var/folders/1_/rgbtf7293t93c5kflb58xcy40000gn/T//ccMetEze.s 			page 57


 1346              		@ frame_needed = 1, uses_anonymous_args = 0
 1347 0000 B0B5     		push	{r4, r5, r7, lr}
 1348              		.cfi_def_cfa_offset 16
 1349              		.cfi_offset 4, -16
 1350              		.cfi_offset 5, -12
 1351              		.cfi_offset 7, -8
 1352              		.cfi_offset 14, -4
 1353 0002 82B0     		sub	sp, sp, #8
 1354              		.cfi_def_cfa_offset 24
 1355 0004 00AF     		add	r7, sp, #0
 1356              		.cfi_def_cfa_register 7
 1357 0006 7860     		str	r0, [r7, #4]
 1358              	.LBB14:
 1359              		.loc 17 64 24
 1360 0008 7B68     		ldr	r3, [r7, #4]
 1361 000a 1846     		mov	r0, r3
 1362 000c FFF7FEFF 		bl	_ZN5daisy6SystemC1Ev
 1363 0010 7B68     		ldr	r3, [r7, #4]
 1364 0012 0C33     		adds	r3, r3, #12
 1365 0014 1846     		mov	r0, r3
 1366 0016 FFF7FEFF 		bl	_ZN5daisy10QSPIHandleC1Ev
 1367 001a 7B68     		ldr	r3, [r7, #4]
 1368 001c 1033     		adds	r3, r3, #16
 1369 001e 1846     		mov	r0, r3
 1370 0020 FFF7FEFF 		bl	_ZN5daisy11AudioHandleC1Ev
 1371 0024 7B68     		ldr	r3, [r7, #4]
 1372 0026 1433     		adds	r3, r3, #20
 1373 0028 1846     		mov	r0, r3
 1374 002a FFF7FEFF 		bl	_ZN5daisy9AdcHandleC1Ev
 1375 002e 7B68     		ldr	r3, [r7, #4]
 1376 0030 1C33     		adds	r3, r3, #28
 1377 0032 1846     		mov	r0, r3
 1378 0034 FFF7FEFF 		bl	_ZN5daisy9UsbHandleC1Ev
 1379 0038 7B68     		ldr	r3, [r7, #4]
 1380 003a 2033     		adds	r3, r3, #32
 1381 003c 1846     		mov	r0, r3
 1382 003e FFF7FEFF 		bl	_ZN5daisy7Pcm3060C1Ev
 1383 0042 7B68     		ldr	r3, [r7, #4]
 1384 0044 2833     		adds	r3, r3, #40
 1385 0046 1846     		mov	r0, r3
 1386 0048 FFF7FEFF 		bl	_ZN5daisy9DacHandleC1Ev
 1387 004c 7B68     		ldr	r3, [r7, #4]
 1388 004e 3033     		adds	r3, r3, #48
 1389 0050 0B24     		movs	r4, #11
 1390 0052 1D46     		mov	r5, r3
 1391              	.L63:
 1392              		.loc 17 64 24 is_stmt 0 discriminator 4
 1393 0054 002C     		cmp	r4, #0
 1394 0056 05DB     		blt	.L62
 1395              		.loc 17 64 24 discriminator 3
 1396 0058 2846     		mov	r0, r5
 1397 005a FFF7FEFF 		bl	_ZN5daisy13AnalogControlC1Ev
 1398 005e 2035     		adds	r5, r5, #32
 1399 0060 013C     		subs	r4, r4, #1
 1400 0062 F7E7     		b	.L63
 1401              	.L62:
 1402              		.loc 17 64 24 discriminator 2
ARM GAS  /var/folders/1_/rgbtf7293t93c5kflb58xcy40000gn/T//ccMetEze.s 			page 58


 1403 0064 7B68     		ldr	r3, [r7, #4]
 1404 0066 03F5D873 		add	r3, r3, #432
 1405 006a 1846     		mov	r0, r3
 1406 006c FFF7FEFF 		bl	_ZN5daisy6GateInC1Ev
 1407 0070 7B68     		ldr	r3, [r7, #4]
 1408 0072 03F5E473 		add	r3, r3, #456
 1409 0076 1846     		mov	r0, r3
 1410 0078 FFF7FEFF 		bl	_ZN5daisy6GateInC1Ev
 1411              	.LBE14:
 1412              		.loc 17 64 25 is_stmt 1 discriminator 2
 1413 007c 7B68     		ldr	r3, [r7, #4]
 1414 007e 1846     		mov	r0, r3
 1415 0080 0837     		adds	r7, r7, #8
 1416              		.cfi_def_cfa_offset 16
 1417 0082 BD46     		mov	sp, r7
 1418              		.cfi_def_cfa_register 13
 1419              		@ sp needed
 1420 0084 B0BD     		pop	{r4, r5, r7, pc}
 1421              		.cfi_endproc
 1422              	.LFE4671:
 1424              		.weak	_ZN5daisy8patch_sm12DaisyPatchSMC1Ev
 1425              		.thumb_set _ZN5daisy8patch_sm12DaisyPatchSMC1Ev,_ZN5daisy8patch_sm12DaisyPatchSMC2Ev
 1426              		.section	.text._ZN5daisy8patch_sm12DaisyPatchSMD2Ev,"axG",%progbits,_ZN5daisy8patch_sm12DaisyPatch
 1427              		.align	1
 1428              		.weak	_ZN5daisy8patch_sm12DaisyPatchSMD2Ev
 1429              		.syntax unified
 1430              		.thumb
 1431              		.thumb_func
 1433              	_ZN5daisy8patch_sm12DaisyPatchSMD2Ev:
 1434              	.LFB4674:
  65:../DaisyExamples/libDaisy//src/daisy_patch_sm.h ****         ~DaisyPatchSM() {}
 1435              		.loc 17 65 9
 1436              		.cfi_startproc
 1437              		@ args = 0, pretend = 0, frame = 8
 1438              		@ frame_needed = 1, uses_anonymous_args = 0
 1439 0000 90B5     		push	{r4, r7, lr}
 1440              		.cfi_def_cfa_offset 12
 1441              		.cfi_offset 4, -12
 1442              		.cfi_offset 7, -8
 1443              		.cfi_offset 14, -4
 1444 0002 83B0     		sub	sp, sp, #12
 1445              		.cfi_def_cfa_offset 24
 1446 0004 00AF     		add	r7, sp, #0
 1447              		.cfi_def_cfa_register 7
 1448 0006 7860     		str	r0, [r7, #4]
 1449              	.LBB15:
 1450              		.loc 17 65 25
 1451 0008 7B68     		ldr	r3, [r7, #4]
 1452 000a 03F5E473 		add	r3, r3, #456
 1453 000e 1846     		mov	r0, r3
 1454 0010 FFF7FEFF 		bl	_ZN5daisy6GateInD1Ev
 1455 0014 7B68     		ldr	r3, [r7, #4]
 1456 0016 03F5D873 		add	r3, r3, #432
 1457 001a 1846     		mov	r0, r3
 1458 001c FFF7FEFF 		bl	_ZN5daisy6GateInD1Ev
 1459 0020 7B68     		ldr	r3, [r7, #4]
 1460 0022 3033     		adds	r3, r3, #48
ARM GAS  /var/folders/1_/rgbtf7293t93c5kflb58xcy40000gn/T//ccMetEze.s 			page 59


 1461 0024 002B     		cmp	r3, #0
 1462 0026 0CD0     		beq	.L66
 1463              		.loc 17 65 25 is_stmt 0 discriminator 1
 1464 0028 7B68     		ldr	r3, [r7, #4]
 1465 002a 3033     		adds	r3, r3, #48
 1466 002c 03F5C074 		add	r4, r3, #384
 1467              	.L67:
 1468              		.loc 17 65 25 discriminator 6
 1469 0030 7B68     		ldr	r3, [r7, #4]
 1470 0032 3033     		adds	r3, r3, #48
 1471 0034 9C42     		cmp	r4, r3
 1472 0036 04D0     		beq	.L66
 1473              		.loc 17 65 25 discriminator 5
 1474 0038 203C     		subs	r4, r4, #32
 1475 003a 2046     		mov	r0, r4
 1476 003c FFF7FEFF 		bl	_ZN5daisy13AnalogControlD1Ev
 1477 0040 F6E7     		b	.L67
 1478              	.L66:
 1479              		.loc 17 65 25 discriminator 7
 1480 0042 7B68     		ldr	r3, [r7, #4]
 1481 0044 2033     		adds	r3, r3, #32
 1482 0046 1846     		mov	r0, r3
 1483 0048 FFF7FEFF 		bl	_ZN5daisy7Pcm3060D1Ev
 1484 004c 7B68     		ldr	r3, [r7, #4]
 1485 004e 1C33     		adds	r3, r3, #28
 1486 0050 1846     		mov	r0, r3
 1487 0052 FFF7FEFF 		bl	_ZN5daisy9UsbHandleD1Ev
 1488 0056 7B68     		ldr	r3, [r7, #4]
 1489 0058 1433     		adds	r3, r3, #20
 1490 005a 1846     		mov	r0, r3
 1491 005c FFF7FEFF 		bl	_ZN5daisy9AdcHandleD1Ev
 1492 0060 7B68     		ldr	r3, [r7, #4]
 1493 0062 1033     		adds	r3, r3, #16
 1494 0064 1846     		mov	r0, r3
 1495 0066 FFF7FEFF 		bl	_ZN5daisy11AudioHandleD1Ev
 1496 006a 7B68     		ldr	r3, [r7, #4]
 1497 006c 1846     		mov	r0, r3
 1498 006e FFF7FEFF 		bl	_ZN5daisy6SystemD1Ev
 1499              	.LBE15:
 1500              		.loc 17 65 26 is_stmt 1 discriminator 7
 1501 0072 7B68     		ldr	r3, [r7, #4]
 1502 0074 1846     		mov	r0, r3
 1503 0076 0C37     		adds	r7, r7, #12
 1504              		.cfi_def_cfa_offset 12
 1505 0078 BD46     		mov	sp, r7
 1506              		.cfi_def_cfa_register 13
 1507              		@ sp needed
 1508 007a 90BD     		pop	{r4, r7, pc}
 1509              		.cfi_endproc
 1510              	.LFE4674:
 1512              		.weak	_ZN5daisy8patch_sm12DaisyPatchSMD1Ev
 1513              		.thumb_set _ZN5daisy8patch_sm12DaisyPatchSMD1Ev,_ZN5daisy8patch_sm12DaisyPatchSMD2Ev
 1514              		.global	patch
 1515              		.section	.bss.patch,"aw",%nobits
 1516              		.align	2
 1519              	patch:
 1520 0000 00000000 		.space	496
ARM GAS  /var/folders/1_/rgbtf7293t93c5kflb58xcy40000gn/T//ccMetEze.s 			page 60


 1520      00000000 
 1520      00000000 
 1520      00000000 
 1520      00000000 
 1521              		.section	.bss._ZL9FDN_del_L,"aw",%nobits
 1522              		.align	2
 1525              	_ZL9FDN_del_L:
 1526 0000 00000000 		.space	80048
 1526      00000000 
 1526      00000000 
 1526      00000000 
 1526      00000000 
 1527              		.section	.bss._ZL9FDN_del_R,"aw",%nobits
 1528              		.align	2
 1531              	_ZL9FDN_del_R:
 1532 0000 00000000 		.space	80048
 1532      00000000 
 1532      00000000 
 1532      00000000 
 1532      00000000 
 1533              		.section	.bss._ZL9lpf_del_L,"aw",%nobits
 1534              		.align	2
 1537              	_ZL9lpf_del_L:
 1538 0000 00000000 		.space	64
 1538      00000000 
 1538      00000000 
 1538      00000000 
 1538      00000000 
 1539              		.section	.bss._ZL9lpf_del_R,"aw",%nobits
 1540              		.align	2
 1543              	_ZL9lpf_del_R:
 1544 0000 00000000 		.space	64
 1544      00000000 
 1544      00000000 
 1544      00000000 
 1544      00000000 
 1545              		.section	.bss._ZL7apf_del,"aw",%nobits
 1546              		.align	2
 1549              	_ZL7apf_del:
 1550 0000 00000000 		.space	8976
 1550      00000000 
 1550      00000000 
 1550      00000000 
 1550      00000000 
 1551              		.section	.rodata._ZL15hadamard_matrix,"a"
 1552              		.align	2
 1555              	_ZL15hadamard_matrix:
 1556 0000 01010101 		.ascii	"\001\001\001\001"
 1557 0004 FF01FF01 		.ascii	"\377\001\377\001"
 1558 0008 FFFF0101 		.ascii	"\377\377\001\001"
 1559 000c 01FFFF01 		.ascii	"\001\377\377\001"
 1560              		.section	.rodata._ZL6primes,"a"
 1561              		.align	2
 1564              	_ZL6primes:
 1565 0000 0200     		.short	2
 1566 0002 0300     		.short	3
 1567 0004 0500     		.short	5
ARM GAS  /var/folders/1_/rgbtf7293t93c5kflb58xcy40000gn/T//ccMetEze.s 			page 61


 1568 0006 0700     		.short	7
 1569 0008 0B00     		.short	11
 1570 000a 0D00     		.short	13
 1571 000c 1100     		.short	17
 1572 000e 1300     		.short	19
 1573 0010 1700     		.short	23
 1574 0012 1D00     		.short	29
 1575 0014 1F00     		.short	31
 1576 0016 2500     		.short	37
 1577 0018 2900     		.short	41
 1578 001a 2B00     		.short	43
 1579 001c 2F00     		.short	47
 1580 001e 3500     		.short	53
 1581 0020 3B00     		.short	59
 1582 0022 3D00     		.short	61
 1583 0024 4300     		.short	67
 1584 0026 4700     		.short	71
 1585 0028 4900     		.short	73
 1586 002a 4F00     		.short	79
 1587 002c 5300     		.short	83
 1588 002e 5900     		.short	89
 1589 0030 6100     		.short	97
 1590 0032 6500     		.short	101
 1591 0034 6700     		.short	103
 1592 0036 6B00     		.short	107
 1593 0038 6D00     		.short	109
 1594 003a 7100     		.short	113
 1595 003c 7F00     		.short	127
 1596 003e 8300     		.short	131
 1597 0040 8900     		.short	137
 1598 0042 8B00     		.short	139
 1599 0044 9500     		.short	149
 1600 0046 9700     		.short	151
 1601 0048 9D00     		.short	157
 1602 004a A300     		.short	163
 1603 004c A700     		.short	167
 1604 004e AD00     		.short	173
 1605 0050 B300     		.short	179
 1606 0052 B500     		.short	181
 1607 0054 BF00     		.short	191
 1608 0056 C100     		.short	193
 1609 0058 C500     		.short	197
 1610 005a C700     		.short	199
 1611 005c D300     		.short	211
 1612 005e DF00     		.short	223
 1613 0060 E300     		.short	227
 1614 0062 E500     		.short	229
 1615 0064 E900     		.short	233
 1616 0066 EF00     		.short	239
 1617 0068 F100     		.short	241
 1618 006a FB00     		.short	251
 1619 006c 0101     		.short	257
 1620 006e 0701     		.short	263
 1621 0070 0D01     		.short	269
 1622 0072 0F01     		.short	271
 1623 0074 1501     		.short	277
 1624 0076 1901     		.short	281
ARM GAS  /var/folders/1_/rgbtf7293t93c5kflb58xcy40000gn/T//ccMetEze.s 			page 62


 1625 0078 1B01     		.short	283
 1626 007a 2501     		.short	293
 1627 007c 3301     		.short	307
 1628 007e 3701     		.short	311
 1629 0080 3901     		.short	313
 1630 0082 3D01     		.short	317
 1631 0084 4B01     		.short	331
 1632 0086 5101     		.short	337
 1633 0088 5B01     		.short	347
 1634 008a 5D01     		.short	349
 1635 008c 6101     		.short	353
 1636 008e 6701     		.short	359
 1637 0090 6F01     		.short	367
 1638 0092 7501     		.short	373
 1639 0094 7B01     		.short	379
 1640 0096 7F01     		.short	383
 1641 0098 8501     		.short	389
 1642 009a 8D01     		.short	397
 1643 009c 9101     		.short	401
 1644 009e 9901     		.short	409
 1645 00a0 A301     		.short	419
 1646 00a2 A501     		.short	421
 1647 00a4 AF01     		.short	431
 1648 00a6 B101     		.short	433
 1649 00a8 B701     		.short	439
 1650 00aa BB01     		.short	443
 1651 00ac C101     		.short	449
 1652 00ae C901     		.short	457
 1653 00b0 CD01     		.short	461
 1654 00b2 CF01     		.short	463
 1655 00b4 D301     		.short	467
 1656 00b6 DF01     		.short	479
 1657 00b8 E701     		.short	487
 1658 00ba EB01     		.short	491
 1659 00bc F301     		.short	499
 1660 00be F701     		.short	503
 1661 00c0 FD01     		.short	509
 1662 00c2 0902     		.short	521
 1663 00c4 0B02     		.short	523
 1664 00c6 1D02     		.short	541
 1665 00c8 2302     		.short	547
 1666 00ca 2D02     		.short	557
 1667 00cc 3302     		.short	563
 1668 00ce 3902     		.short	569
 1669 00d0 3B02     		.short	571
 1670 00d2 4102     		.short	577
 1671 00d4 4B02     		.short	587
 1672 00d6 5102     		.short	593
 1673 00d8 5702     		.short	599
 1674 00da 5902     		.short	601
 1675 00dc 5F02     		.short	607
 1676 00de 6502     		.short	613
 1677 00e0 6902     		.short	617
 1678 00e2 6B02     		.short	619
 1679 00e4 7702     		.short	631
 1680 00e6 8102     		.short	641
 1681 00e8 8302     		.short	643
ARM GAS  /var/folders/1_/rgbtf7293t93c5kflb58xcy40000gn/T//ccMetEze.s 			page 63


 1682 00ea 8702     		.short	647
 1683 00ec 8D02     		.short	653
 1684 00ee 9302     		.short	659
 1685 00f0 9502     		.short	661
 1686 00f2 A102     		.short	673
 1687 00f4 A502     		.short	677
 1688 00f6 AB02     		.short	683
 1689 00f8 B302     		.short	691
 1690 00fa BD02     		.short	701
 1691 00fc C502     		.short	709
 1692 00fe CF02     		.short	719
 1693 0100 D702     		.short	727
 1694 0102 DD02     		.short	733
 1695 0104 E302     		.short	739
 1696 0106 E702     		.short	743
 1697 0108 EF02     		.short	751
 1698 010a F502     		.short	757
 1699 010c F902     		.short	761
 1700 010e 0103     		.short	769
 1701 0110 0503     		.short	773
 1702 0112 1303     		.short	787
 1703 0114 1D03     		.short	797
 1704 0116 2903     		.short	809
 1705 0118 2B03     		.short	811
 1706 011a 3503     		.short	821
 1707 011c 3703     		.short	823
 1708 011e 3B03     		.short	827
 1709 0120 3D03     		.short	829
 1710 0122 4703     		.short	839
 1711 0124 5503     		.short	853
 1712 0126 5903     		.short	857
 1713 0128 5B03     		.short	859
 1714 012a 5F03     		.short	863
 1715 012c 6D03     		.short	877
 1716 012e 7103     		.short	881
 1717 0130 7303     		.short	883
 1718 0132 7703     		.short	887
 1719 0134 8B03     		.short	907
 1720 0136 8F03     		.short	911
 1721 0138 9703     		.short	919
 1722 013a A103     		.short	929
 1723 013c A903     		.short	937
 1724 013e AD03     		.short	941
 1725 0140 B303     		.short	947
 1726 0142 B903     		.short	953
 1727 0144 C703     		.short	967
 1728 0146 CB03     		.short	971
 1729 0148 D103     		.short	977
 1730 014a D703     		.short	983
 1731 014c DF03     		.short	991
 1732 014e E503     		.short	997
 1733 0150 F103     		.short	1009
 1734 0152 F503     		.short	1013
 1735 0154 FB03     		.short	1019
 1736 0156 FD03     		.short	1021
 1737 0158 0704     		.short	1031
 1738 015a 0904     		.short	1033
ARM GAS  /var/folders/1_/rgbtf7293t93c5kflb58xcy40000gn/T//ccMetEze.s 			page 64


 1739 015c 0F04     		.short	1039
 1740 015e 1904     		.short	1049
 1741 0160 1B04     		.short	1051
 1742 0162 2504     		.short	1061
 1743 0164 2704     		.short	1063
 1744 0166 2D04     		.short	1069
 1745 0168 3F04     		.short	1087
 1746 016a 4304     		.short	1091
 1747 016c 4504     		.short	1093
 1748 016e 4904     		.short	1097
 1749 0170 4F04     		.short	1103
 1750 0172 5504     		.short	1109
 1751 0174 5D04     		.short	1117
 1752 0176 6304     		.short	1123
 1753 0178 6904     		.short	1129
 1754 017a 7F04     		.short	1151
 1755 017c 8104     		.short	1153
 1756 017e 8B04     		.short	1163
 1757 0180 9304     		.short	1171
 1758 0182 9D04     		.short	1181
 1759 0184 A304     		.short	1187
 1760 0186 A904     		.short	1193
 1761 0188 B104     		.short	1201
 1762 018a BD04     		.short	1213
 1763 018c C104     		.short	1217
 1764 018e C704     		.short	1223
 1765 0190 CD04     		.short	1229
 1766 0192 CF04     		.short	1231
 1767 0194 D504     		.short	1237
 1768 0196 E104     		.short	1249
 1769 0198 EB04     		.short	1259
 1770 019a FD04     		.short	1277
 1771 019c FF04     		.short	1279
 1772 019e 0305     		.short	1283
 1773 01a0 0905     		.short	1289
 1774 01a2 0B05     		.short	1291
 1775 01a4 1105     		.short	1297
 1776 01a6 1505     		.short	1301
 1777 01a8 1705     		.short	1303
 1778 01aa 1B05     		.short	1307
 1779 01ac 2705     		.short	1319
 1780 01ae 2905     		.short	1321
 1781 01b0 2F05     		.short	1327
 1782 01b2 5105     		.short	1361
 1783 01b4 5705     		.short	1367
 1784 01b6 5D05     		.short	1373
 1785 01b8 6505     		.short	1381
 1786 01ba 7705     		.short	1399
 1787 01bc 8105     		.short	1409
 1788 01be 8F05     		.short	1423
 1789 01c0 9305     		.short	1427
 1790 01c2 9505     		.short	1429
 1791 01c4 9905     		.short	1433
 1792 01c6 9F05     		.short	1439
 1793 01c8 A705     		.short	1447
 1794 01ca AB05     		.short	1451
 1795 01cc AD05     		.short	1453
ARM GAS  /var/folders/1_/rgbtf7293t93c5kflb58xcy40000gn/T//ccMetEze.s 			page 65


 1796 01ce B305     		.short	1459
 1797 01d0 BF05     		.short	1471
 1798 01d2 C905     		.short	1481
 1799 01d4 CB05     		.short	1483
 1800 01d6 CF05     		.short	1487
 1801 01d8 D105     		.short	1489
 1802 01da D505     		.short	1493
 1803 01dc DB05     		.short	1499
 1804 01de E705     		.short	1511
 1805 01e0 F305     		.short	1523
 1806 01e2 FB05     		.short	1531
 1807 01e4 0706     		.short	1543
 1808 01e6 0D06     		.short	1549
 1809 01e8 1106     		.short	1553
 1810 01ea 1706     		.short	1559
 1811 01ec 1F06     		.short	1567
 1812 01ee 2306     		.short	1571
 1813 01f0 2B06     		.short	1579
 1814 01f2 2F06     		.short	1583
 1815 01f4 3D06     		.short	1597
 1816 01f6 4106     		.short	1601
 1817 01f8 4706     		.short	1607
 1818 01fa 4906     		.short	1609
 1819 01fc 4D06     		.short	1613
 1820 01fe 5306     		.short	1619
 1821 0200 5506     		.short	1621
 1822 0202 5B06     		.short	1627
 1823 0204 6506     		.short	1637
 1824 0206 7906     		.short	1657
 1825 0208 7F06     		.short	1663
 1826 020a 8306     		.short	1667
 1827 020c 8506     		.short	1669
 1828 020e 9D06     		.short	1693
 1829 0210 A106     		.short	1697
 1830 0212 A306     		.short	1699
 1831 0214 AD06     		.short	1709
 1832 0216 B906     		.short	1721
 1833 0218 BB06     		.short	1723
 1834 021a C506     		.short	1733
 1835 021c CD06     		.short	1741
 1836 021e D306     		.short	1747
 1837 0220 D906     		.short	1753
 1838 0222 DF06     		.short	1759
 1839 0224 F106     		.short	1777
 1840 0226 F706     		.short	1783
 1841 0228 FB06     		.short	1787
 1842 022a FD06     		.short	1789
 1843 022c 0907     		.short	1801
 1844 022e 1307     		.short	1811
 1845 0230 1F07     		.short	1823
 1846 0232 2707     		.short	1831
 1847 0234 3707     		.short	1847
 1848 0236 4507     		.short	1861
 1849 0238 4B07     		.short	1867
 1850 023a 4F07     		.short	1871
 1851 023c 5107     		.short	1873
 1852 023e 5507     		.short	1877
ARM GAS  /var/folders/1_/rgbtf7293t93c5kflb58xcy40000gn/T//ccMetEze.s 			page 66


 1853 0240 5707     		.short	1879
 1854 0242 6107     		.short	1889
 1855 0244 6D07     		.short	1901
 1856 0246 7307     		.short	1907
 1857 0248 7907     		.short	1913
 1858 024a 8B07     		.short	1931
 1859 024c 8D07     		.short	1933
 1860 024e 9D07     		.short	1949
 1861 0250 9F07     		.short	1951
 1862 0252 B507     		.short	1973
 1863 0254 BB07     		.short	1979
 1864 0256 C307     		.short	1987
 1865 0258 C907     		.short	1993
 1866 025a CD07     		.short	1997
 1867 025c CF07     		.short	1999
 1868 025e D307     		.short	2003
 1869 0260 DB07     		.short	2011
 1870 0262 E107     		.short	2017
 1871 0264 EB07     		.short	2027
 1872 0266 ED07     		.short	2029
 1873 0268 F707     		.short	2039
 1874 026a 0508     		.short	2053
 1875 026c 0F08     		.short	2063
 1876 026e 1508     		.short	2069
 1877 0270 2108     		.short	2081
 1878 0272 2308     		.short	2083
 1879 0274 2708     		.short	2087
 1880 0276 2908     		.short	2089
 1881 0278 3308     		.short	2099
 1882 027a 3F08     		.short	2111
 1883 027c 4108     		.short	2113
 1884 027e 5108     		.short	2129
 1885 0280 5308     		.short	2131
 1886 0282 5908     		.short	2137
 1887 0284 5D08     		.short	2141
 1888 0286 5F08     		.short	2143
 1889 0288 6908     		.short	2153
 1890 028a 7108     		.short	2161
 1891 028c 8308     		.short	2179
 1892 028e 9B08     		.short	2203
 1893 0290 9F08     		.short	2207
 1894 0292 A508     		.short	2213
 1895 0294 AD08     		.short	2221
 1896 0296 BD08     		.short	2237
 1897 0298 BF08     		.short	2239
 1898 029a C308     		.short	2243
 1899 029c CB08     		.short	2251
 1900 029e DB08     		.short	2267
 1901 02a0 DD08     		.short	2269
 1902 02a2 E108     		.short	2273
 1903 02a4 E908     		.short	2281
 1904 02a6 EF08     		.short	2287
 1905 02a8 F508     		.short	2293
 1906 02aa F908     		.short	2297
 1907 02ac 0509     		.short	2309
 1908 02ae 0709     		.short	2311
 1909 02b0 1D09     		.short	2333
ARM GAS  /var/folders/1_/rgbtf7293t93c5kflb58xcy40000gn/T//ccMetEze.s 			page 67


 1910 02b2 2309     		.short	2339
 1911 02b4 2509     		.short	2341
 1912 02b6 2B09     		.short	2347
 1913 02b8 2F09     		.short	2351
 1914 02ba 3509     		.short	2357
 1915 02bc 4309     		.short	2371
 1916 02be 4909     		.short	2377
 1917 02c0 4D09     		.short	2381
 1918 02c2 4F09     		.short	2383
 1919 02c4 5509     		.short	2389
 1920 02c6 5909     		.short	2393
 1921 02c8 5F09     		.short	2399
 1922 02ca 6B09     		.short	2411
 1923 02cc 7109     		.short	2417
 1924 02ce 7709     		.short	2423
 1925 02d0 8509     		.short	2437
 1926 02d2 8909     		.short	2441
 1927 02d4 8F09     		.short	2447
 1928 02d6 9B09     		.short	2459
 1929 02d8 A309     		.short	2467
 1930 02da A909     		.short	2473
 1931 02dc AD09     		.short	2477
 1932 02de C709     		.short	2503
 1933 02e0 D909     		.short	2521
 1934 02e2 E309     		.short	2531
 1935 02e4 EB09     		.short	2539
 1936 02e6 EF09     		.short	2543
 1937 02e8 F509     		.short	2549
 1938 02ea F709     		.short	2551
 1939 02ec FD09     		.short	2557
 1940 02ee 130A     		.short	2579
 1941 02f0 1F0A     		.short	2591
 1942 02f2 210A     		.short	2593
 1943 02f4 310A     		.short	2609
 1944 02f6 390A     		.short	2617
 1945 02f8 3D0A     		.short	2621
 1946 02fa 490A     		.short	2633
 1947 02fc 570A     		.short	2647
 1948 02fe 610A     		.short	2657
 1949 0300 630A     		.short	2659
 1950 0302 670A     		.short	2663
 1951 0304 6F0A     		.short	2671
 1952 0306 750A     		.short	2677
 1953 0308 7B0A     		.short	2683
 1954 030a 7F0A     		.short	2687
 1955 030c 810A     		.short	2689
 1956 030e 850A     		.short	2693
 1957 0310 8B0A     		.short	2699
 1958 0312 930A     		.short	2707
 1959 0314 970A     		.short	2711
 1960 0316 990A     		.short	2713
 1961 0318 9F0A     		.short	2719
 1962 031a A90A     		.short	2729
 1963 031c AB0A     		.short	2731
 1964 031e B50A     		.short	2741
 1965 0320 BD0A     		.short	2749
 1966 0322 C10A     		.short	2753
ARM GAS  /var/folders/1_/rgbtf7293t93c5kflb58xcy40000gn/T//ccMetEze.s 			page 68


 1967 0324 CF0A     		.short	2767
 1968 0326 D90A     		.short	2777
 1969 0328 E50A     		.short	2789
 1970 032a E70A     		.short	2791
 1971 032c ED0A     		.short	2797
 1972 032e F10A     		.short	2801
 1973 0330 F30A     		.short	2803
 1974 0332 030B     		.short	2819
 1975 0334 110B     		.short	2833
 1976 0336 150B     		.short	2837
 1977 0338 1B0B     		.short	2843
 1978 033a 230B     		.short	2851
 1979 033c 290B     		.short	2857
 1980 033e 2D0B     		.short	2861
 1981 0340 3F0B     		.short	2879
 1982 0342 470B     		.short	2887
 1983 0344 510B     		.short	2897
 1984 0346 570B     		.short	2903
 1985 0348 5D0B     		.short	2909
 1986 034a 650B     		.short	2917
 1987 034c 6F0B     		.short	2927
 1988 034e 7B0B     		.short	2939
 1989 0350 890B     		.short	2953
 1990 0352 8D0B     		.short	2957
 1991 0354 930B     		.short	2963
 1992 0356 990B     		.short	2969
 1993 0358 9B0B     		.short	2971
 1994 035a B70B     		.short	2999
 1995 035c B90B     		.short	3001
 1996 035e C30B     		.short	3011
 1997 0360 CB0B     		.short	3019
 1998 0362 CF0B     		.short	3023
 1999 0364 DD0B     		.short	3037
 2000 0366 E10B     		.short	3041
 2001 0368 E90B     		.short	3049
 2002 036a F50B     		.short	3061
 2003 036c FB0B     		.short	3067
 2004 036e 070C     		.short	3079
 2005 0370 0B0C     		.short	3083
 2006 0372 110C     		.short	3089
 2007 0374 250C     		.short	3109
 2008 0376 2F0C     		.short	3119
 2009 0378 310C     		.short	3121
 2010 037a 410C     		.short	3137
 2011 037c 5B0C     		.short	3163
 2012 037e 5F0C     		.short	3167
 2013 0380 610C     		.short	3169
 2014 0382 6D0C     		.short	3181
 2015 0384 730C     		.short	3187
 2016 0386 770C     		.short	3191
 2017 0388 830C     		.short	3203
 2018 038a 890C     		.short	3209
 2019 038c 910C     		.short	3217
 2020 038e 950C     		.short	3221
 2021 0390 9D0C     		.short	3229
 2022 0392 B30C     		.short	3251
 2023 0394 B50C     		.short	3253
ARM GAS  /var/folders/1_/rgbtf7293t93c5kflb58xcy40000gn/T//ccMetEze.s 			page 69


 2024 0396 B90C     		.short	3257
 2025 0398 BB0C     		.short	3259
 2026 039a C70C     		.short	3271
 2027 039c E30C     		.short	3299
 2028 039e E50C     		.short	3301
 2029 03a0 EB0C     		.short	3307
 2030 03a2 F10C     		.short	3313
 2031 03a4 F70C     		.short	3319
 2032 03a6 FB0C     		.short	3323
 2033 03a8 010D     		.short	3329
 2034 03aa 030D     		.short	3331
 2035 03ac 0F0D     		.short	3343
 2036 03ae 130D     		.short	3347
 2037 03b0 1F0D     		.short	3359
 2038 03b2 210D     		.short	3361
 2039 03b4 2B0D     		.short	3371
 2040 03b6 2D0D     		.short	3373
 2041 03b8 3D0D     		.short	3389
 2042 03ba 3F0D     		.short	3391
 2043 03bc 4F0D     		.short	3407
 2044 03be 550D     		.short	3413
 2045 03c0 690D     		.short	3433
 2046 03c2 790D     		.short	3449
 2047 03c4 810D     		.short	3457
 2048 03c6 850D     		.short	3461
 2049 03c8 870D     		.short	3463
 2050 03ca 8B0D     		.short	3467
 2051 03cc 8D0D     		.short	3469
 2052 03ce A30D     		.short	3491
 2053 03d0 AB0D     		.short	3499
 2054 03d2 B70D     		.short	3511
 2055 03d4 BD0D     		.short	3517
 2056 03d6 C70D     		.short	3527
 2057 03d8 C90D     		.short	3529
 2058 03da CD0D     		.short	3533
 2059 03dc D30D     		.short	3539
 2060 03de D50D     		.short	3541
 2061 03e0 DB0D     		.short	3547
 2062 03e2 E50D     		.short	3557
 2063 03e4 E70D     		.short	3559
 2064 03e6 F30D     		.short	3571
 2065 03e8 FD0D     		.short	3581
 2066 03ea FF0D     		.short	3583
 2067 03ec 090E     		.short	3593
 2068 03ee 170E     		.short	3607
 2069 03f0 1D0E     		.short	3613
 2070 03f2 210E     		.short	3617
 2071 03f4 270E     		.short	3623
 2072 03f6 2F0E     		.short	3631
 2073 03f8 350E     		.short	3637
 2074 03fa 3B0E     		.short	3643
 2075 03fc 4B0E     		.short	3659
 2076 03fe 570E     		.short	3671
 2077 0400 590E     		.short	3673
 2078 0402 5D0E     		.short	3677
 2079 0404 6B0E     		.short	3691
 2080 0406 710E     		.short	3697
ARM GAS  /var/folders/1_/rgbtf7293t93c5kflb58xcy40000gn/T//ccMetEze.s 			page 70


 2081 0408 750E     		.short	3701
 2082 040a 7D0E     		.short	3709
 2083 040c 870E     		.short	3719
 2084 040e 8F0E     		.short	3727
 2085 0410 950E     		.short	3733
 2086 0412 9B0E     		.short	3739
 2087 0414 B10E     		.short	3761
 2088 0416 B70E     		.short	3767
 2089 0418 B90E     		.short	3769
 2090 041a C30E     		.short	3779
 2091 041c D10E     		.short	3793
 2092 041e D50E     		.short	3797
 2093 0420 DB0E     		.short	3803
 2094 0422 ED0E     		.short	3821
 2095 0424 EF0E     		.short	3823
 2096 0426 F90E     		.short	3833
 2097 0428 070F     		.short	3847
 2098 042a 0B0F     		.short	3851
 2099 042c 0D0F     		.short	3853
 2100 042e 170F     		.short	3863
 2101 0430 250F     		.short	3877
 2102 0432 290F     		.short	3881
 2103 0434 310F     		.short	3889
 2104 0436 430F     		.short	3907
 2105 0438 470F     		.short	3911
 2106 043a 4D0F     		.short	3917
 2107 043c 4F0F     		.short	3919
 2108 043e 530F     		.short	3923
 2109 0440 590F     		.short	3929
 2110 0442 5B0F     		.short	3931
 2111 0444 670F     		.short	3943
 2112 0446 6B0F     		.short	3947
 2113 0448 7F0F     		.short	3967
 2114 044a 950F     		.short	3989
 2115 044c A10F     		.short	4001
 2116 044e A30F     		.short	4003
 2117 0450 A70F     		.short	4007
 2118 0452 AD0F     		.short	4013
 2119 0454 B30F     		.short	4019
 2120 0456 B50F     		.short	4021
 2121 0458 BB0F     		.short	4027
 2122 045a D10F     		.short	4049
 2123 045c D30F     		.short	4051
 2124 045e D90F     		.short	4057
 2125 0460 E90F     		.short	4073
 2126 0462 EF0F     		.short	4079
 2127 0464 FB0F     		.short	4091
 2128 0466 FD0F     		.short	4093
 2129 0468 0310     		.short	4099
 2130 046a 0F10     		.short	4111
 2131 046c 1F10     		.short	4127
 2132 046e 2110     		.short	4129
 2133 0470 2510     		.short	4133
 2134 0472 2B10     		.short	4139
 2135 0474 3910     		.short	4153
 2136 0476 3D10     		.short	4157
 2137 0478 3F10     		.short	4159
ARM GAS  /var/folders/1_/rgbtf7293t93c5kflb58xcy40000gn/T//ccMetEze.s 			page 71


 2138 047a 5110     		.short	4177
 2139 047c 6910     		.short	4201
 2140 047e 7310     		.short	4211
 2141 0480 7910     		.short	4217
 2142 0482 7B10     		.short	4219
 2143 0484 8510     		.short	4229
 2144 0486 8710     		.short	4231
 2145 0488 9110     		.short	4241
 2146 048a 9310     		.short	4243
 2147 048c 9D10     		.short	4253
 2148 048e A310     		.short	4259
 2149 0490 A510     		.short	4261
 2150 0492 AF10     		.short	4271
 2151 0494 B110     		.short	4273
 2152 0496 BB10     		.short	4283
 2153 0498 C110     		.short	4289
 2154 049a C910     		.short	4297
 2155 049c E710     		.short	4327
 2156 049e F110     		.short	4337
 2157 04a0 F310     		.short	4339
 2158 04a2 FD10     		.short	4349
 2159 04a4 0511     		.short	4357
 2160 04a6 0B11     		.short	4363
 2161 04a8 1511     		.short	4373
 2162 04aa 2711     		.short	4391
 2163 04ac 2D11     		.short	4397
 2164 04ae 3911     		.short	4409
 2165 04b0 4511     		.short	4421
 2166 04b2 4711     		.short	4423
 2167 04b4 5911     		.short	4441
 2168 04b6 5F11     		.short	4447
 2169 04b8 6311     		.short	4451
 2170 04ba 6911     		.short	4457
 2171 04bc 6F11     		.short	4463
 2172 04be 8111     		.short	4481
 2173 04c0 8311     		.short	4483
 2174 04c2 8D11     		.short	4493
 2175 04c4 9B11     		.short	4507
 2176 04c6 A111     		.short	4513
 2177 04c8 A511     		.short	4517
 2178 04ca A711     		.short	4519
 2179 04cc AB11     		.short	4523
 2180 04ce C311     		.short	4547
 2181 04d0 C511     		.short	4549
 2182 04d2 D111     		.short	4561
 2183 04d4 D711     		.short	4567
 2184 04d6 E711     		.short	4583
 2185 04d8 EF11     		.short	4591
 2186 04da F511     		.short	4597
 2187 04dc FB11     		.short	4603
 2188 04de 0D12     		.short	4621
 2189 04e0 1D12     		.short	4637
 2190 04e2 1F12     		.short	4639
 2191 04e4 2312     		.short	4643
 2192 04e6 2912     		.short	4649
 2193 04e8 2B12     		.short	4651
 2194 04ea 3112     		.short	4657
ARM GAS  /var/folders/1_/rgbtf7293t93c5kflb58xcy40000gn/T//ccMetEze.s 			page 72


 2195 04ec 3712     		.short	4663
 2196 04ee 4112     		.short	4673
 2197 04f0 4712     		.short	4679
 2198 04f2 5312     		.short	4691
 2199 04f4 5F12     		.short	4703
 2200 04f6 7112     		.short	4721
 2201 04f8 7312     		.short	4723
 2202 04fa 7912     		.short	4729
 2203 04fc 7D12     		.short	4733
 2204 04fe 8F12     		.short	4751
 2205 0500 9712     		.short	4759
 2206 0502 AF12     		.short	4783
 2207 0504 B312     		.short	4787
 2208 0506 B512     		.short	4789
 2209 0508 B912     		.short	4793
 2210 050a BF12     		.short	4799
 2211 050c C112     		.short	4801
 2212 050e CD12     		.short	4813
 2213 0510 D112     		.short	4817
 2214 0512 DF12     		.short	4831
 2215 0514 FD12     		.short	4861
 2216 0516 0713     		.short	4871
 2217 0518 0D13     		.short	4877
 2218 051a 1913     		.short	4889
 2219 051c 2713     		.short	4903
 2220 051e 2D13     		.short	4909
 2221 0520 3713     		.short	4919
 2222 0522 4313     		.short	4931
 2223 0524 4513     		.short	4933
 2224 0526 4913     		.short	4937
 2225 0528 4F13     		.short	4943
 2226 052a 5713     		.short	4951
 2227 052c 5D13     		.short	4957
 2228 052e 6713     		.short	4967
 2229 0530 6913     		.short	4969
 2230 0532 6D13     		.short	4973
 2231 0534 7B13     		.short	4987
 2232 0536 8113     		.short	4993
 2233 0538 8713     		.short	4999
 2234              		.global	selectedPrimes
 2235              		.section	.bss.selectedPrimes,"aw",%nobits
 2236              		.align	2
 2239              	selectedPrimes:
 2240 0000 00000000 		.space	16
 2240      00000000 
 2240      00000000 
 2240      00000000 
 2241              		.global	u
 2242              		.section	.bss.u,"aw",%nobits
 2243              		.align	2
 2246              	u:
 2247 0000 00000000 		.space	4
 2248              		.global	sig_out_L
 2249              		.section	.bss.sig_out_L,"aw",%nobits
 2250              		.align	2
 2253              	sig_out_L:
 2254 0000 00000000 		.space	4
ARM GAS  /var/folders/1_/rgbtf7293t93c5kflb58xcy40000gn/T//ccMetEze.s 			page 73


 2255              		.global	sig_out_R
 2256              		.section	.bss.sig_out_R,"aw",%nobits
 2257              		.align	2
 2260              	sig_out_R:
 2261 0000 00000000 		.space	4
 2262              		.global	lpf_y_L
 2263              		.section	.bss.lpf_y_L,"aw",%nobits
 2264              		.align	2
 2267              	lpf_y_L:
 2268 0000 00000000 		.space	16
 2268      00000000 
 2268      00000000 
 2268      00000000 
 2269              		.global	lpf_y_R
 2270              		.section	.bss.lpf_y_R,"aw",%nobits
 2271              		.align	2
 2274              	lpf_y_R:
 2275 0000 00000000 		.space	16
 2275      00000000 
 2275      00000000 
 2275      00000000 
 2276              		.global	apf_del_out
 2277              		.section	.bss.apf_del_out,"aw",%nobits
 2278              		.align	2
 2281              	apf_del_out:
 2282 0000 00000000 		.space	4
 2283              		.global	apf_feedback
 2284              		.section	.bss.apf_feedback,"aw",%nobits
 2285              		.align	2
 2288              	apf_feedback:
 2289 0000 00000000 		.space	4
 2290              		.global	apf_y
 2291              		.section	.bss.apf_y,"aw",%nobits
 2292              		.align	2
 2295              	apf_y:
 2296 0000 00000000 		.space	4
 2297              		.global	FDN_del_out_L
 2298              		.section	.bss.FDN_del_out_L,"aw",%nobits
 2299              		.align	2
 2302              	FDN_del_out_L:
 2303 0000 00000000 		.space	16
 2303      00000000 
 2303      00000000 
 2303      00000000 
 2304              		.global	FDN_del_out_R
 2305              		.section	.bss.FDN_del_out_R,"aw",%nobits
 2306              		.align	2
 2309              	FDN_del_out_R:
 2310 0000 00000000 		.space	16
 2310      00000000 
 2310      00000000 
 2310      00000000 
 2311              		.global	FDN_feedback_L
 2312              		.section	.bss.FDN_feedback_L,"aw",%nobits
 2313              		.align	2
 2316              	FDN_feedback_L:
 2317 0000 00000000 		.space	4
ARM GAS  /var/folders/1_/rgbtf7293t93c5kflb58xcy40000gn/T//ccMetEze.s 			page 74


 2318              		.global	FDN_feedback_R
 2319              		.section	.bss.FDN_feedback_R,"aw",%nobits
 2320              		.align	2
 2323              	FDN_feedback_R:
 2324 0000 00000000 		.space	4
 2325              		.global	idx
 2326              		.section	.bss.idx,"aw",%nobits
 2329              	idx:
 2330 0000 00       		.space	1
 2331              		.global	r
 2332              		.section	.bss.r,"aw",%nobits
 2335              	r:
 2336 0000 00       		.space	1
 2337              		.global	c
 2338              		.section	.bss.c,"aw",%nobits
 2341              	c:
 2342 0000 00       		.space	1
 2343              		.global	wetCV
 2344              		.section	.bss.wetCV,"aw",%nobits
 2345              		.align	2
 2348              	wetCV:
 2349 0000 00000000 		.space	4
 2350              		.global	lengthCV
 2351              		.section	.bss.lengthCV,"aw",%nobits
 2352              		.align	2
 2355              	lengthCV:
 2356 0000 00000000 		.space	4
 2357              		.global	densityCV
 2358              		.section	.bss.densityCV,"aw",%nobits
 2359              		.align	2
 2362              	densityCV:
 2363 0000 00000000 		.space	4
 2364              		.global	feedbackGainCV
 2365              		.section	.bss.feedbackGainCV,"aw",%nobits
 2366              		.align	2
 2369              	feedbackGainCV:
 2370 0000 00000000 		.space	4
 2371              		.global	dryFactor
 2372              		.section	.bss.dryFactor,"aw",%nobits
 2373              		.align	2
 2376              	dryFactor:
 2377 0000 00000000 		.space	4
 2378              		.global	wetFactor
 2379              		.section	.bss.wetFactor,"aw",%nobits
 2380              		.align	2
 2383              	wetFactor:
 2384 0000 00000000 		.space	4
 2385              		.section	.text._ZL13AudioCallbackPKfPfj,"ax",%progbits
 2386              		.align	1
 2387              		.syntax unified
 2388              		.thumb
 2389              		.thumb_func
 2391              	_ZL13AudioCallbackPKfPfj:
 2392              	.LFB4683:
 2393              		.file 18 "FDN_stereo.cpp"
   1:FDN_stereo.cpp **** #include "daisysp.h"
   2:FDN_stereo.cpp **** #include "daisy_patch_sm.h"
ARM GAS  /var/folders/1_/rgbtf7293t93c5kflb58xcy40000gn/T//ccMetEze.s 			page 75


   3:FDN_stereo.cpp **** 
   4:FDN_stereo.cpp **** // Interleaved audio definitions
   5:FDN_stereo.cpp **** #define LEFT (i)
   6:FDN_stereo.cpp **** #define RIGHT (i + 1)
   7:FDN_stereo.cpp **** 
   8:FDN_stereo.cpp **** using namespace daisy;
   9:FDN_stereo.cpp **** using namespace daisysp;
  10:FDN_stereo.cpp **** using namespace patch_sm;
  11:FDN_stereo.cpp **** 
  12:FDN_stereo.cpp **** DaisyPatchSM patch;
  13:FDN_stereo.cpp **** 
  14:FDN_stereo.cpp **** // ADC stuff
  15:FDN_stereo.cpp **** enum CVinputs {
  16:FDN_stereo.cpp ****     CV_1 = 0,
  17:FDN_stereo.cpp ****     CV_2,
  18:FDN_stereo.cpp ****     CV_3,
  19:FDN_stereo.cpp ****     CV_4,
  20:FDN_stereo.cpp ****     NUM_ADC_CHANNELS
  21:FDN_stereo.cpp **** };
  22:FDN_stereo.cpp **** 
  23:FDN_stereo.cpp **** // Number of delay lines
  24:FDN_stereo.cpp **** #define DEL_NUM 4U
  25:FDN_stereo.cpp **** 
  26:FDN_stereo.cpp **** // Declare FDN DelayLines
  27:FDN_stereo.cpp **** static DelayLine<float, 4999U + 1U> FDN_del_L[DEL_NUM];
  28:FDN_stereo.cpp **** static DelayLine<float, 4999U + 1U> FDN_del_R[DEL_NUM];
  29:FDN_stereo.cpp **** 
  30:FDN_stereo.cpp **** // Declare LPF DelayLines
  31:FDN_stereo.cpp **** static DelayLine<float, 1U> lpf_del_L[DEL_NUM];
  32:FDN_stereo.cpp **** static DelayLine<float, 1U> lpf_del_R[DEL_NUM];
  33:FDN_stereo.cpp **** 
  34:FDN_stereo.cpp **** #define STEREO_CROSS_MIX 0.5
  35:FDN_stereo.cpp **** 
  36:FDN_stereo.cpp **** // Declare APF DelayLines
  37:FDN_stereo.cpp **** static DelayLine<float, 557U + 1U> apf_del[DEL_NUM];
  38:FDN_stereo.cpp **** 
  39:FDN_stereo.cpp **** const signed char hadamard_matrix[DEL_NUM][DEL_NUM] = {
  40:FDN_stereo.cpp **** {  1,  1,  1,  1  },
  41:FDN_stereo.cpp **** { -1,  1, -1,  1  },
  42:FDN_stereo.cpp **** { -1, -1,  1,  1  },
  43:FDN_stereo.cpp **** {  1, -1, -1,  1  }
  44:FDN_stereo.cpp **** };
  45:FDN_stereo.cpp **** 
  46:FDN_stereo.cpp **** // Matrix scalar for Hadamard
  47:FDN_stereo.cpp **** #define MATRIX_SCALAR 0.5f
  48:FDN_stereo.cpp **** 
  49:FDN_stereo.cpp **** // Number of primes
  50:FDN_stereo.cpp **** #define PRIMES_NUM 669
  51:FDN_stereo.cpp **** 
  52:FDN_stereo.cpp **** const unsigned short primes[PRIMES_NUM] = {
  53:FDN_stereo.cpp **** 2,3,5,7,11,13,17,19,23,29,31,37,41,43,47,53,59,61,67,71,73,79,83,89,97,101,103,107,109,113,127,131,
  54:FDN_stereo.cpp **** 997,1009,1013,1019,1021,1031,1033,1039,1049,1051,1061,1063,1069,1087,1091,1093,1097,1103,1109,1117,
  55:FDN_stereo.cpp **** 1949,1951,1973,1979,1987,1993,1997,1999,2003,2011,2017,2027,2029,2039,2053,2063,2069,2081,2083,2087
  56:FDN_stereo.cpp **** 2939,2953,2957,2963,2969,2971,2999,3001,3011,3019,3023,3037,3041,3049,3061,3067,3079,3083,3089,3109
  57:FDN_stereo.cpp **** 4003,4007,4013,4019,4021,4027,4049,4051,4057,4073,4079,4091,4093,4099,4111,4127,4129,4133,4139,4153
  58:FDN_stereo.cpp **** };
  59:FDN_stereo.cpp **** 
ARM GAS  /var/folders/1_/rgbtf7293t93c5kflb58xcy40000gn/T//ccMetEze.s 			page 76


  60:FDN_stereo.cpp **** unsigned int selectedPrimes[DEL_NUM];
  61:FDN_stereo.cpp **** 
  62:FDN_stereo.cpp **** // G gains
  63:FDN_stereo.cpp **** //float g[DEL_NUM] = {0.805f, 0.827f, 0.783f, 0.764f};
  64:FDN_stereo.cpp **** 
  65:FDN_stereo.cpp **** float u, sig_out_L, sig_out_R;
  66:FDN_stereo.cpp **** float lpf_y_L[DEL_NUM], lpf_y_R[DEL_NUM];
  67:FDN_stereo.cpp **** float apf_del_out, apf_feedback, apf_y; //[DEL_NUM];
  68:FDN_stereo.cpp **** float FDN_del_out_L[DEL_NUM], FDN_del_out_R[DEL_NUM]; // delay outs
  69:FDN_stereo.cpp **** float FDN_feedback_L, FDN_feedback_R;
  70:FDN_stereo.cpp **** unsigned char idx, r, c; // for-loop variables
  71:FDN_stereo.cpp **** 
  72:FDN_stereo.cpp **** // Potentiometer Controls
  73:FDN_stereo.cpp **** float wetCV;
  74:FDN_stereo.cpp **** float lengthCV;
  75:FDN_stereo.cpp **** float densityCV;
  76:FDN_stereo.cpp **** float feedbackGainCV;
  77:FDN_stereo.cpp **** 
  78:FDN_stereo.cpp **** float dryFactor;
  79:FDN_stereo.cpp **** float wetFactor;
  80:FDN_stereo.cpp **** 
  81:FDN_stereo.cpp **** 
  82:FDN_stereo.cpp **** static void AudioCallback(AudioHandle::InterleavingInputBuffer  in,
  83:FDN_stereo.cpp ****                           AudioHandle::InterleavingOutputBuffer out,
  84:FDN_stereo.cpp ****                           size_t                                size)
  85:FDN_stereo.cpp **** {
 2394              		.loc 18 85 1
 2395              		.cfi_startproc
 2396              		@ args = 0, pretend = 0, frame = 24
 2397              		@ frame_needed = 1, uses_anonymous_args = 0
 2398 0000 90B5     		push	{r4, r7, lr}
 2399              		.cfi_def_cfa_offset 12
 2400              		.cfi_offset 4, -12
 2401              		.cfi_offset 7, -8
 2402              		.cfi_offset 14, -4
 2403 0002 2DED028B 		vpush.64	{d8}
 2404              		.cfi_def_cfa_offset 20
 2405              		.cfi_offset 80, -20
 2406              		.cfi_offset 81, -16
 2407 0006 87B0     		sub	sp, sp, #28
 2408              		.cfi_def_cfa_offset 48
 2409 0008 00AF     		add	r7, sp, #0
 2410              		.cfi_def_cfa_register 7
 2411 000a F860     		str	r0, [r7, #12]
 2412 000c B960     		str	r1, [r7, #8]
 2413 000e 7A60     		str	r2, [r7, #4]
  86:FDN_stereo.cpp ****     patch.ProcessAnalogControls();
 2414              		.loc 18 86 32
 2415 0010 C448     		ldr	r0, .L85
 2416 0012 FFF7FEFF 		bl	_ZN5daisy8patch_sm12DaisyPatchSM21ProcessAnalogControlsEv
  87:FDN_stereo.cpp **** 
  88:FDN_stereo.cpp ****     wetCV = patch.GetAdcValue(0);
 2417              		.loc 18 88 30
 2418 0016 0021     		movs	r1, #0
 2419 0018 C248     		ldr	r0, .L85
 2420 001a FFF7FEFF 		bl	_ZN5daisy8patch_sm12DaisyPatchSM11GetAdcValueEi
 2421 001e F0EE407A 		vmov.f32	s15, s0
ARM GAS  /var/folders/1_/rgbtf7293t93c5kflb58xcy40000gn/T//ccMetEze.s 			page 77


 2422              		.loc 18 88 11
 2423 0022 C14B     		ldr	r3, .L85+4
 2424 0024 C3ED007A 		vstr.32	s15, [r3]
  89:FDN_stereo.cpp ****     wetCV = fmap(wetCV, 0.0f, 1.0f);
 2425              		.loc 18 89 17
 2426 0028 BF4B     		ldr	r3, .L85+4
 2427 002a D3ED007A 		vldr.32	s15, [r3]
 2428 002e 0020     		movs	r0, #0
 2429 0030 B7EE001A 		vmov.f32	s2, #1.0e+0
 2430 0034 DFEDBD0A 		vldr.32	s1, .L85+8
 2431 0038 B0EE670A 		vmov.f32	s0, s15
 2432 003c FFF7FEFF 		bl	_ZN7daisysp4fmapEfffNS_7MappingE
 2433 0040 F0EE407A 		vmov.f32	s15, s0
 2434              		.loc 18 89 11
 2435 0044 B84B     		ldr	r3, .L85+4
 2436 0046 C3ED007A 		vstr.32	s15, [r3]
  90:FDN_stereo.cpp **** 
  91:FDN_stereo.cpp ****     lengthCV = patch.adc.GetFloat(1);
 2437              		.loc 18 91 34
 2438 004a 0121     		movs	r1, #1
 2439 004c B848     		ldr	r0, .L85+12
 2440 004e FFF7FEFF 		bl	_ZNK5daisy9AdcHandle8GetFloatEh
 2441 0052 F0EE407A 		vmov.f32	s15, s0
 2442              		.loc 18 91 14
 2443 0056 B74B     		ldr	r3, .L85+16
 2444 0058 C3ED007A 		vstr.32	s15, [r3]
  92:FDN_stereo.cpp ****     lengthCV = ceil(fmap(lengthCV, 0.0f, 1.0f) * 1000.0f) / 1000.0f;
 2445              		.loc 18 92 25
 2446 005c B54B     		ldr	r3, .L85+16
 2447 005e D3ED007A 		vldr.32	s15, [r3]
 2448 0062 0020     		movs	r0, #0
 2449 0064 B7EE001A 		vmov.f32	s2, #1.0e+0
 2450 0068 DFEDB00A 		vldr.32	s1, .L85+8
 2451 006c B0EE670A 		vmov.f32	s0, s15
 2452 0070 FFF7FEFF 		bl	_ZN7daisysp4fmapEfffNS_7MappingE
 2453 0074 F0EE407A 		vmov.f32	s15, s0
 2454              		.loc 18 92 20
 2455 0078 9FEDAF7A 		vldr.32	s14, .L85+20
 2456 007c 67EE877A 		vmul.f32	s15, s15, s14
 2457 0080 B0EE670A 		vmov.f32	s0, s15
 2458 0084 FFF7FEFF 		bl	_ZSt4ceilf
 2459 0088 B0EE407A 		vmov.f32	s14, s0
 2460              		.loc 18 92 59
 2461 008c DFEDAA6A 		vldr.32	s13, .L85+20
 2462 0090 C7EE267A 		vdiv.f32	s15, s14, s13
 2463              		.loc 18 92 14
 2464 0094 A74B     		ldr	r3, .L85+16
 2465 0096 C3ED007A 		vstr.32	s15, [r3]
  93:FDN_stereo.cpp ****     lengthCV = (lengthCV * (PRIMES_NUM - DEL_NUM)) + (DEL_NUM - 1);
 2466              		.loc 18 93 26
 2467 009a A64B     		ldr	r3, .L85+16
 2468 009c D3ED007A 		vldr.32	s15, [r3]
 2469 00a0 9FEDA67A 		vldr.32	s14, .L85+24
 2470 00a4 67EE877A 		vmul.f32	s15, s15, s14
 2471              		.loc 18 93 52
 2472 00a8 B0EE087A 		vmov.f32	s14, #3.0e+0
 2473 00ac 77EE877A 		vadd.f32	s15, s15, s14
ARM GAS  /var/folders/1_/rgbtf7293t93c5kflb58xcy40000gn/T//ccMetEze.s 			page 78


 2474              		.loc 18 93 14
 2475 00b0 A04B     		ldr	r3, .L85+16
 2476 00b2 C3ED007A 		vstr.32	s15, [r3]
  94:FDN_stereo.cpp **** 
  95:FDN_stereo.cpp ****     densityCV = patch.adc.GetFloat(2);
 2477              		.loc 18 95 35
 2478 00b6 0221     		movs	r1, #2
 2479 00b8 9D48     		ldr	r0, .L85+12
 2480 00ba FFF7FEFF 		bl	_ZNK5daisy9AdcHandle8GetFloatEh
 2481 00be F0EE407A 		vmov.f32	s15, s0
 2482              		.loc 18 95 15
 2483 00c2 9F4B     		ldr	r3, .L85+28
 2484 00c4 C3ED007A 		vstr.32	s15, [r3]
  96:FDN_stereo.cpp ****     densityCV = (9 * (floor(fmap(densityCV, 0.0f, 1.0f) * 100.0f) / 100.0f)) + 1;
 2485              		.loc 18 96 33
 2486 00c8 9D4B     		ldr	r3, .L85+28
 2487 00ca D3ED007A 		vldr.32	s15, [r3]
 2488 00ce 0020     		movs	r0, #0
 2489 00d0 B7EE001A 		vmov.f32	s2, #1.0e+0
 2490 00d4 DFED950A 		vldr.32	s1, .L85+8
 2491 00d8 B0EE670A 		vmov.f32	s0, s15
 2492 00dc FFF7FEFF 		bl	_ZN7daisysp4fmapEfffNS_7MappingE
 2493 00e0 F0EE407A 		vmov.f32	s15, s0
 2494              		.loc 18 96 28
 2495 00e4 9FED977A 		vldr.32	s14, .L85+32
 2496 00e8 67EE877A 		vmul.f32	s15, s15, s14
 2497 00ec B0EE670A 		vmov.f32	s0, s15
 2498 00f0 FFF7FEFF 		bl	_ZSt5floorf
 2499 00f4 B0EE407A 		vmov.f32	s14, s0
 2500              		.loc 18 96 67
 2501 00f8 DFED926A 		vldr.32	s13, .L85+32
 2502 00fc C7EE267A 		vdiv.f32	s15, s14, s13
 2503              		.loc 18 96 20
 2504 0100 B2EE027A 		vmov.f32	s14, #9.0e+0
 2505 0104 67EE877A 		vmul.f32	s15, s15, s14
 2506              		.loc 18 96 78
 2507 0108 B7EE007A 		vmov.f32	s14, #1.0e+0
 2508 010c 77EE877A 		vadd.f32	s15, s15, s14
 2509              		.loc 18 96 15
 2510 0110 8B4B     		ldr	r3, .L85+28
 2511 0112 C3ED007A 		vstr.32	s15, [r3]
  97:FDN_stereo.cpp **** 
  98:FDN_stereo.cpp ****     feedbackGainCV = patch.adc.GetFloat(3);
 2512              		.loc 18 98 40
 2513 0116 0321     		movs	r1, #3
 2514 0118 8548     		ldr	r0, .L85+12
 2515 011a FFF7FEFF 		bl	_ZNK5daisy9AdcHandle8GetFloatEh
 2516 011e F0EE407A 		vmov.f32	s15, s0
 2517              		.loc 18 98 20
 2518 0122 894B     		ldr	r3, .L85+36
 2519 0124 C3ED007A 		vstr.32	s15, [r3]
  99:FDN_stereo.cpp ****     feedbackGainCV = (0.25f * (floor(fmap(feedbackGainCV, 0.0f, 1.0f) * 100.0f) / 100.0f)) + 0.74f;
 2520              		.loc 18 99 42
 2521 0128 874B     		ldr	r3, .L85+36
 2522 012a D3ED007A 		vldr.32	s15, [r3]
 2523 012e 0020     		movs	r0, #0
 2524 0130 B7EE001A 		vmov.f32	s2, #1.0e+0
ARM GAS  /var/folders/1_/rgbtf7293t93c5kflb58xcy40000gn/T//ccMetEze.s 			page 79


 2525 0134 DFED7D0A 		vldr.32	s1, .L85+8
 2526 0138 B0EE670A 		vmov.f32	s0, s15
 2527 013c FFF7FEFF 		bl	_ZN7daisysp4fmapEfffNS_7MappingE
 2528 0140 F0EE407A 		vmov.f32	s15, s0
 2529              		.loc 18 99 37
 2530 0144 9FED7F7A 		vldr.32	s14, .L85+32
 2531 0148 67EE877A 		vmul.f32	s15, s15, s14
 2532 014c B0EE670A 		vmov.f32	s0, s15
 2533 0150 FFF7FEFF 		bl	_ZSt5floorf
 2534 0154 B0EE407A 		vmov.f32	s14, s0
 2535              		.loc 18 99 81
 2536 0158 DFED7A6A 		vldr.32	s13, .L85+32
 2537 015c C7EE267A 		vdiv.f32	s15, s14, s13
 2538              		.loc 18 99 29
 2539 0160 B5EE007A 		vmov.f32	s14, #2.5e-1
 2540 0164 67EE877A 		vmul.f32	s15, s15, s14
 2541              		.loc 18 99 92
 2542 0168 9FED787A 		vldr.32	s14, .L85+40
 2543 016c 77EE877A 		vadd.f32	s15, s15, s14
 2544              		.loc 18 99 20
 2545 0170 754B     		ldr	r3, .L85+36
 2546 0172 C3ED007A 		vstr.32	s15, [r3]
 2547              	.LBB16:
 100:FDN_stereo.cpp **** 
 101:FDN_stereo.cpp ****     for(size_t i = 0; i < size; i += 2)
 2548              		.loc 18 101 16
 2549 0176 0023     		movs	r3, #0
 2550 0178 7B61     		str	r3, [r7, #20]
 2551              	.L83:
 2552              		.loc 18 101 25 discriminator 1
 2553 017a 7A69     		ldr	r2, [r7, #20]
 2554 017c 7B68     		ldr	r3, [r7, #4]
 2555 017e 9A42     		cmp	r2, r3
 2556 0180 80F0A683 		bcs	.L84
 2557              	.LBB17:
 102:FDN_stereo.cpp ****     {
 103:FDN_stereo.cpp **** 
 104:FDN_stereo.cpp ****         // u = 0.5f * (in[LEFT] + in[RIGHT]); // mono input
 105:FDN_stereo.cpp **** 
 106:FDN_stereo.cpp ****         // Process delay outs and output signal
 107:FDN_stereo.cpp ****         sig_out_L = 0.0f;
 2558              		.loc 18 107 19
 2559 0184 724B     		ldr	r3, .L85+44
 2560 0186 4FF00002 		mov	r2, #0
 2561 018a 1A60     		str	r2, [r3]	@ float
 108:FDN_stereo.cpp **** 		sig_out_R = 0.0f;
 2562              		.loc 18 108 13
 2563 018c 714B     		ldr	r3, .L85+48
 2564 018e 4FF00002 		mov	r2, #0
 2565 0192 1A60     		str	r2, [r3]	@ float
 109:FDN_stereo.cpp ****         for(idx = 0; idx < DEL_NUM; idx++){
 2566              		.loc 18 109 17
 2567 0194 704B     		ldr	r3, .L85+52
 2568 0196 0022     		movs	r2, #0
 2569 0198 1A70     		strb	r2, [r3]
 2570              	.L72:
 2571              		.loc 18 109 26 discriminator 3
ARM GAS  /var/folders/1_/rgbtf7293t93c5kflb58xcy40000gn/T//ccMetEze.s 			page 80


 2572 019a 6F4B     		ldr	r3, .L85+52
 2573 019c 1B78     		ldrb	r3, [r3]	@ zero_extendqisi2
 2574 019e 032B     		cmp	r3, #3
 2575 01a0 00F2F080 		bhi	.L71
 110:FDN_stereo.cpp **** 
 111:FDN_stereo.cpp **** 			// Read & output - LEFT
 112:FDN_stereo.cpp ****             FDN_del_out_L[idx] = FDN_del_L[idx].Read();
 2576              		.loc 18 112 44 discriminator 2
 2577 01a4 6C4B     		ldr	r3, .L85+52
 2578 01a6 1B78     		ldrb	r3, [r3]	@ zero_extendqisi2
 2579 01a8 1A46     		mov	r2, r3
 2580              		.loc 18 112 53 discriminator 2
 2581 01aa 44F62C63 		movw	r3, #20012
 2582 01ae 02FB03F3 		mul	r3, r2, r3
 2583 01b2 6A4A     		ldr	r2, .L85+56
 2584 01b4 1344     		add	r3, r3, r2
 2585              		.loc 18 112 27 discriminator 2
 2586 01b6 684A     		ldr	r2, .L85+52
 2587 01b8 1278     		ldrb	r2, [r2]	@ zero_extendqisi2
 2588 01ba 1446     		mov	r4, r2
 2589              		.loc 18 112 53 discriminator 2
 2590 01bc 1846     		mov	r0, r3
 2591 01be FFF7FEFF 		bl	_ZNK7daisysp9DelayLineIfLj5000EE4ReadEv
 2592 01c2 F0EE407A 		vmov.f32	s15, s0
 2593              		.loc 18 112 32 discriminator 2
 2594 01c6 664A     		ldr	r2, .L85+60
 2595 01c8 A300     		lsls	r3, r4, #2
 2596 01ca 1344     		add	r3, r3, r2
 2597 01cc C3ED007A 		vstr.32	s15, [r3]
 113:FDN_stereo.cpp ****             sig_out_L += FDN_del_out_L[idx] / 4.0f; // sum and scale //TODO: should be / DEL_NUM ?
 2598              		.loc 18 113 40 discriminator 2
 2599 01d0 614B     		ldr	r3, .L85+52
 2600 01d2 1B78     		ldrb	r3, [r3]	@ zero_extendqisi2
 2601              		.loc 18 113 43 discriminator 2
 2602 01d4 624A     		ldr	r2, .L85+60
 2603 01d6 9B00     		lsls	r3, r3, #2
 2604 01d8 1344     		add	r3, r3, r2
 2605 01da D3ED007A 		vldr.32	s15, [r3]
 2606              		.loc 18 113 45 discriminator 2
 2607 01de F1EE006A 		vmov.f32	s13, #4.0e+0
 2608 01e2 87EEA67A 		vdiv.f32	s14, s15, s13
 2609              		.loc 18 113 23 discriminator 2
 2610 01e6 5A4B     		ldr	r3, .L85+44
 2611 01e8 D3ED007A 		vldr.32	s15, [r3]
 2612 01ec 77EE277A 		vadd.f32	s15, s14, s15
 2613 01f0 574B     		ldr	r3, .L85+44
 2614 01f2 C3ED007A 		vstr.32	s15, [r3]
 114:FDN_stereo.cpp **** 
 115:FDN_stereo.cpp **** 			// LPF - LEFT
 116:FDN_stereo.cpp ****             lpf_y_L[idx] = (0.8f * FDN_del_out_L[idx]) + (0.2f * lpf_del_L[idx].Read());
 2615              		.loc 18 116 50 discriminator 2
 2616 01f6 584B     		ldr	r3, .L85+52
 2617 01f8 1B78     		ldrb	r3, [r3]	@ zero_extendqisi2
 2618              		.loc 18 116 53 discriminator 2
 2619 01fa 594A     		ldr	r2, .L85+60
 2620 01fc 9B00     		lsls	r3, r3, #2
 2621 01fe 1344     		add	r3, r3, r2
ARM GAS  /var/folders/1_/rgbtf7293t93c5kflb58xcy40000gn/T//ccMetEze.s 			page 81


 2622 0200 D3ED007A 		vldr.32	s15, [r3]
 2623              		.loc 18 116 34 discriminator 2
 2624 0204 9FED577A 		vldr.32	s14, .L85+64
 2625 0208 27EE878A 		vmul.f32	s16, s15, s14
 2626              		.loc 18 116 76 discriminator 2
 2627 020c 524B     		ldr	r3, .L85+52
 2628 020e 1B78     		ldrb	r3, [r3]	@ zero_extendqisi2
 2629              		.loc 18 116 85 discriminator 2
 2630 0210 1B01     		lsls	r3, r3, #4
 2631 0212 554A     		ldr	r2, .L85+68
 2632 0214 1344     		add	r3, r3, r2
 2633 0216 1846     		mov	r0, r3
 2634 0218 FFF7FEFF 		bl	_ZNK7daisysp9DelayLineIfLj1EE4ReadEv
 2635 021c F0EE407A 		vmov.f32	s15, s0
 2636              		.loc 18 116 64 discriminator 2
 2637 0220 9FED527A 		vldr.32	s14, .L85+72
 2638 0224 67EE877A 		vmul.f32	s15, s15, s14
 2639              		.loc 18 116 21 discriminator 2
 2640 0228 4B4B     		ldr	r3, .L85+52
 2641 022a 1B78     		ldrb	r3, [r3]	@ zero_extendqisi2
 2642              		.loc 18 116 56 discriminator 2
 2643 022c 78EE277A 		vadd.f32	s15, s16, s15
 2644              		.loc 18 116 26 discriminator 2
 2645 0230 4F4A     		ldr	r2, .L85+76
 2646 0232 9B00     		lsls	r3, r3, #2
 2647 0234 1344     		add	r3, r3, r2
 2648 0236 C3ED007A 		vstr.32	s15, [r3]
 117:FDN_stereo.cpp ****             lpf_del_L[idx].Write(lpf_y_L[idx]);
 2649              		.loc 18 117 23 discriminator 2
 2650 023a 474B     		ldr	r3, .L85+52
 2651 023c 1B78     		ldrb	r3, [r3]	@ zero_extendqisi2
 2652              		.loc 18 117 33 discriminator 2
 2653 023e 1B01     		lsls	r3, r3, #4
 2654 0240 494A     		ldr	r2, .L85+68
 2655 0242 1A44     		add	r2, r2, r3
 2656              		.loc 18 117 42 discriminator 2
 2657 0244 444B     		ldr	r3, .L85+52
 2658 0246 1B78     		ldrb	r3, [r3]	@ zero_extendqisi2
 2659              		.loc 18 117 33 discriminator 2
 2660 0248 4949     		ldr	r1, .L85+76
 2661 024a 9B00     		lsls	r3, r3, #2
 2662 024c 0B44     		add	r3, r3, r1
 2663 024e D3ED007A 		vldr.32	s15, [r3]
 2664 0252 B0EE670A 		vmov.f32	s0, s15
 2665 0256 1046     		mov	r0, r2
 2666 0258 FFF7FEFF 		bl	_ZN7daisysp9DelayLineIfLj1EE5WriteEf
 118:FDN_stereo.cpp **** 
 119:FDN_stereo.cpp **** 			// Read & output - RIGHT
 120:FDN_stereo.cpp ****             FDN_del_out_R[idx] = FDN_del_R[idx].Read();
 2667              		.loc 18 120 44 discriminator 2
 2668 025c 3E4B     		ldr	r3, .L85+52
 2669 025e 1B78     		ldrb	r3, [r3]	@ zero_extendqisi2
 2670 0260 1A46     		mov	r2, r3
 2671              		.loc 18 120 53 discriminator 2
 2672 0262 44F62C63 		movw	r3, #20012
 2673 0266 02FB03F3 		mul	r3, r2, r3
 2674 026a 424A     		ldr	r2, .L85+80
ARM GAS  /var/folders/1_/rgbtf7293t93c5kflb58xcy40000gn/T//ccMetEze.s 			page 82


 2675 026c 1344     		add	r3, r3, r2
 2676              		.loc 18 120 27 discriminator 2
 2677 026e 3A4A     		ldr	r2, .L85+52
 2678 0270 1278     		ldrb	r2, [r2]	@ zero_extendqisi2
 2679 0272 1446     		mov	r4, r2
 2680              		.loc 18 120 53 discriminator 2
 2681 0274 1846     		mov	r0, r3
 2682 0276 FFF7FEFF 		bl	_ZNK7daisysp9DelayLineIfLj5000EE4ReadEv
 2683 027a F0EE407A 		vmov.f32	s15, s0
 2684              		.loc 18 120 32 discriminator 2
 2685 027e 3E4A     		ldr	r2, .L85+84
 2686 0280 A300     		lsls	r3, r4, #2
 2687 0282 1344     		add	r3, r3, r2
 2688 0284 C3ED007A 		vstr.32	s15, [r3]
 121:FDN_stereo.cpp ****             sig_out_R += FDN_del_out_R[idx] / 4.0f; // sum and scale
 2689              		.loc 18 121 40 discriminator 2
 2690 0288 334B     		ldr	r3, .L85+52
 2691 028a 1B78     		ldrb	r3, [r3]	@ zero_extendqisi2
 2692              		.loc 18 121 43 discriminator 2
 2693 028c 3A4A     		ldr	r2, .L85+84
 2694 028e 9B00     		lsls	r3, r3, #2
 2695 0290 1344     		add	r3, r3, r2
 2696 0292 D3ED007A 		vldr.32	s15, [r3]
 2697              		.loc 18 121 45 discriminator 2
 2698 0296 F1EE006A 		vmov.f32	s13, #4.0e+0
 2699 029a 87EEA67A 		vdiv.f32	s14, s15, s13
 2700              		.loc 18 121 23 discriminator 2
 2701 029e 2D4B     		ldr	r3, .L85+48
 2702 02a0 D3ED007A 		vldr.32	s15, [r3]
 2703 02a4 77EE277A 		vadd.f32	s15, s14, s15
 2704 02a8 2A4B     		ldr	r3, .L85+48
 2705 02aa C3ED007A 		vstr.32	s15, [r3]
 122:FDN_stereo.cpp **** 
 123:FDN_stereo.cpp **** 			// LPF - RIGHT
 124:FDN_stereo.cpp ****             lpf_y_R[idx] = (0.8f * FDN_del_out_R[idx]) + (0.2f * lpf_del_R[idx].Read());
 2706              		.loc 18 124 50 discriminator 2
 2707 02ae 2A4B     		ldr	r3, .L85+52
 2708 02b0 1B78     		ldrb	r3, [r3]	@ zero_extendqisi2
 2709              		.loc 18 124 53 discriminator 2
 2710 02b2 314A     		ldr	r2, .L85+84
 2711 02b4 9B00     		lsls	r3, r3, #2
 2712 02b6 1344     		add	r3, r3, r2
 2713 02b8 D3ED007A 		vldr.32	s15, [r3]
 2714              		.loc 18 124 34 discriminator 2
 2715 02bc 9FED297A 		vldr.32	s14, .L85+64
 2716 02c0 27EE878A 		vmul.f32	s16, s15, s14
 2717              		.loc 18 124 76 discriminator 2
 2718 02c4 244B     		ldr	r3, .L85+52
 2719 02c6 1B78     		ldrb	r3, [r3]	@ zero_extendqisi2
 2720              		.loc 18 124 85 discriminator 2
 2721 02c8 1B01     		lsls	r3, r3, #4
 2722 02ca 2C4A     		ldr	r2, .L85+88
 2723 02cc 1344     		add	r3, r3, r2
 2724 02ce 1846     		mov	r0, r3
 2725 02d0 FFF7FEFF 		bl	_ZNK7daisysp9DelayLineIfLj1EE4ReadEv
 2726 02d4 F0EE407A 		vmov.f32	s15, s0
 2727              		.loc 18 124 64 discriminator 2
ARM GAS  /var/folders/1_/rgbtf7293t93c5kflb58xcy40000gn/T//ccMetEze.s 			page 83


 2728 02d8 9FED247A 		vldr.32	s14, .L85+72
 2729 02dc 67EE877A 		vmul.f32	s15, s15, s14
 2730              		.loc 18 124 21 discriminator 2
 2731 02e0 1D4B     		ldr	r3, .L85+52
 2732 02e2 1B78     		ldrb	r3, [r3]	@ zero_extendqisi2
 2733              		.loc 18 124 56 discriminator 2
 2734 02e4 78EE277A 		vadd.f32	s15, s16, s15
 2735              		.loc 18 124 26 discriminator 2
 2736 02e8 254A     		ldr	r2, .L85+92
 2737 02ea 9B00     		lsls	r3, r3, #2
 2738 02ec 1344     		add	r3, r3, r2
 2739 02ee C3ED007A 		vstr.32	s15, [r3]
 125:FDN_stereo.cpp ****             lpf_del_R[idx].Write(lpf_y_R[idx]);
 2740              		.loc 18 125 23 discriminator 2
 2741 02f2 194B     		ldr	r3, .L85+52
 2742 02f4 1B78     		ldrb	r3, [r3]	@ zero_extendqisi2
 2743              		.loc 18 125 33 discriminator 2
 2744 02f6 1B01     		lsls	r3, r3, #4
 2745 02f8 204A     		ldr	r2, .L85+88
 2746 02fa 1A44     		add	r2, r2, r3
 2747              		.loc 18 125 42 discriminator 2
 2748 02fc 164B     		ldr	r3, .L85+52
 2749 02fe 1B78     		ldrb	r3, [r3]	@ zero_extendqisi2
 2750              		.loc 18 125 33 discriminator 2
 2751 0300 1F49     		ldr	r1, .L85+92
 2752 0302 9B00     		lsls	r3, r3, #2
 2753 0304 0B44     		add	r3, r3, r1
 2754 0306 D3ED007A 		vldr.32	s15, [r3]
 2755 030a B0EE670A 		vmov.f32	s0, s15
 2756 030e 1046     		mov	r0, r2
 2757 0310 FFF7FEFF 		bl	_ZN7daisysp9DelayLineIfLj1EE5WriteEf
 109:FDN_stereo.cpp **** 
 2758              		.loc 18 109 9 discriminator 2
 2759 0314 104B     		ldr	r3, .L85+52
 2760 0316 1B78     		ldrb	r3, [r3]	@ zero_extendqisi2
 2761 0318 0133     		adds	r3, r3, #1
 2762 031a DAB2     		uxtb	r2, r3
 2763 031c 0E4B     		ldr	r3, .L85+52
 2764 031e 1A70     		strb	r2, [r3]
 2765 0320 3BE7     		b	.L72
 2766              	.L86:
 2767 0322 00BF     		.align	2
 2768              	.L85:
 2769 0324 00000000 		.word	patch
 2770 0328 00000000 		.word	wetCV
 2771 032c 00000000 		.word	0
 2772 0330 14000000 		.word	patch+20
 2773 0334 00000000 		.word	lengthCV
 2774 0338 00007A44 		.word	1148846080
 2775 033c 00402644 		.word	1143357440
 2776 0340 00000000 		.word	densityCV
 2777 0344 0000C842 		.word	1120403456
 2778 0348 00000000 		.word	feedbackGainCV
 2779 034c A4703D3F 		.word	1060991140
 2780 0350 00000000 		.word	sig_out_L
 2781 0354 00000000 		.word	sig_out_R
 2782 0358 00000000 		.word	idx
ARM GAS  /var/folders/1_/rgbtf7293t93c5kflb58xcy40000gn/T//ccMetEze.s 			page 84


 2783 035c 00000000 		.word	_ZL9FDN_del_L
 2784 0360 00000000 		.word	FDN_del_out_L
 2785 0364 CDCC4C3F 		.word	1061997773
 2786 0368 00000000 		.word	_ZL9lpf_del_L
 2787 036c CDCC4C3E 		.word	1045220557
 2788 0370 00000000 		.word	lpf_y_L
 2789 0374 00000000 		.word	_ZL9FDN_del_R
 2790 0378 00000000 		.word	FDN_del_out_R
 2791 037c 00000000 		.word	_ZL9lpf_del_R
 2792 0380 00000000 		.word	lpf_y_R
 2793              	.L71:
 126:FDN_stereo.cpp **** 
 127:FDN_stereo.cpp **** 			// APF
 128:FDN_stereo.cpp **** 			//apf_del_out = apf_del[idx].Read();
 129:FDN_stereo.cpp **** 			//apf_feedback = lpf_y[idx] - (0.7 * apf_del_out);
 130:FDN_stereo.cpp **** 			//apf_y[idx] = (0.7 * apf_feedback) + apf_del_out;
 131:FDN_stereo.cpp **** 			//apf_del[idx].Write(apf_feedback);
 132:FDN_stereo.cpp ****         }
 133:FDN_stereo.cpp **** 
 134:FDN_stereo.cpp ****         // Implement feedback
 135:FDN_stereo.cpp ****         for(r = 0; r < DEL_NUM; r++){
 2794              		.loc 18 135 15
 2795 0384 AC4B     		ldr	r3, .L87+8
 2796 0386 0022     		movs	r2, #0
 2797 0388 1A70     		strb	r2, [r3]
 2798              	.L76:
 2799              		.loc 18 135 22 discriminator 1
 2800 038a AB4B     		ldr	r3, .L87+8
 2801 038c 1B78     		ldrb	r3, [r3]	@ zero_extendqisi2
 2802 038e 032B     		cmp	r3, #3
 2803 0390 00F2ED80 		bhi	.L73
 136:FDN_stereo.cpp ****             FDN_feedback_L = 0;
 2804              		.loc 18 136 28
 2805 0394 A94B     		ldr	r3, .L87+12
 2806 0396 4FF00002 		mov	r2, #0
 2807 039a 1A60     		str	r2, [r3]	@ float
 137:FDN_stereo.cpp **** 			FDN_feedback_R = 0;
 2808              		.loc 18 137 19
 2809 039c A84B     		ldr	r3, .L87+16
 2810 039e 4FF00002 		mov	r2, #0
 2811 03a2 1A60     		str	r2, [r3]	@ float
 138:FDN_stereo.cpp ****             for(c = 0; c < DEL_NUM; c++){
 2812              		.loc 18 138 19
 2813 03a4 A74B     		ldr	r3, .L87+20
 2814 03a6 0022     		movs	r2, #0
 2815 03a8 1A70     		strb	r2, [r3]
 2816              	.L75:
 2817              		.loc 18 138 26 discriminator 3
 2818 03aa A64B     		ldr	r3, .L87+20
 2819 03ac 1B78     		ldrb	r3, [r3]	@ zero_extendqisi2
 2820 03ae 032B     		cmp	r3, #3
 2821 03b0 50D8     		bhi	.L74
 139:FDN_stereo.cpp ****                 FDN_feedback_L += hadamard_matrix[r][c] * lpf_y_L[c] * MATRIX_SCALAR;
 2822              		.loc 18 139 51 discriminator 2
 2823 03b2 A14B     		ldr	r3, .L87+8
 2824 03b4 1B78     		ldrb	r3, [r3]	@ zero_extendqisi2
 2825 03b6 1846     		mov	r0, r3
ARM GAS  /var/folders/1_/rgbtf7293t93c5kflb58xcy40000gn/T//ccMetEze.s 			page 85


 2826              		.loc 18 139 54 discriminator 2
 2827 03b8 A24B     		ldr	r3, .L87+20
 2828 03ba 1B78     		ldrb	r3, [r3]	@ zero_extendqisi2
 2829 03bc 1946     		mov	r1, r3
 2830              		.loc 18 139 55 discriminator 2
 2831 03be A24A     		ldr	r2, .L87+24
 2832 03c0 8300     		lsls	r3, r0, #2
 2833 03c2 1344     		add	r3, r3, r2
 2834 03c4 0B44     		add	r3, r3, r1
 2835 03c6 93F90030 		ldrsb	r3, [r3]
 2836              		.loc 18 139 57 discriminator 2
 2837 03ca 07EE903A 		vmov	s15, r3	@ int
 2838 03ce B8EEE77A 		vcvt.f32.s32	s14, s15
 2839              		.loc 18 139 67 discriminator 2
 2840 03d2 9C4B     		ldr	r3, .L87+20
 2841 03d4 1B78     		ldrb	r3, [r3]	@ zero_extendqisi2
 2842              		.loc 18 139 68 discriminator 2
 2843 03d6 9D4A     		ldr	r2, .L87+28
 2844 03d8 9B00     		lsls	r3, r3, #2
 2845 03da 1344     		add	r3, r3, r2
 2846 03dc D3ED007A 		vldr.32	s15, [r3]
 2847              		.loc 18 139 57 discriminator 2
 2848 03e0 67EE277A 		vmul.f32	s15, s14, s15
 2849              		.loc 18 139 70 discriminator 2
 2850 03e4 B6EE007A 		vmov.f32	s14, #5.0e-1
 2851 03e8 27EE877A 		vmul.f32	s14, s15, s14
 2852              		.loc 18 139 32 discriminator 2
 2853 03ec 934B     		ldr	r3, .L87+12
 2854 03ee D3ED007A 		vldr.32	s15, [r3]
 2855 03f2 77EE277A 		vadd.f32	s15, s14, s15
 2856 03f6 914B     		ldr	r3, .L87+12
 2857 03f8 C3ED007A 		vstr.32	s15, [r3]
 140:FDN_stereo.cpp **** 				FDN_feedback_R += hadamard_matrix[r][c] * lpf_y_R[c] * MATRIX_SCALAR;
 2858              		.loc 18 140 39 discriminator 2
 2859 03fc 8E4B     		ldr	r3, .L87+8
 2860 03fe 1B78     		ldrb	r3, [r3]	@ zero_extendqisi2
 2861 0400 1846     		mov	r0, r3
 2862              		.loc 18 140 42 discriminator 2
 2863 0402 904B     		ldr	r3, .L87+20
 2864 0404 1B78     		ldrb	r3, [r3]	@ zero_extendqisi2
 2865 0406 1946     		mov	r1, r3
 2866              		.loc 18 140 43 discriminator 2
 2867 0408 8F4A     		ldr	r2, .L87+24
 2868 040a 8300     		lsls	r3, r0, #2
 2869 040c 1344     		add	r3, r3, r2
 2870 040e 0B44     		add	r3, r3, r1
 2871 0410 93F90030 		ldrsb	r3, [r3]
 2872              		.loc 18 140 45 discriminator 2
 2873 0414 07EE903A 		vmov	s15, r3	@ int
 2874 0418 B8EEE77A 		vcvt.f32.s32	s14, s15
 2875              		.loc 18 140 55 discriminator 2
 2876 041c 894B     		ldr	r3, .L87+20
 2877 041e 1B78     		ldrb	r3, [r3]	@ zero_extendqisi2
 2878              		.loc 18 140 56 discriminator 2
 2879 0420 8B4A     		ldr	r2, .L87+32
 2880 0422 9B00     		lsls	r3, r3, #2
 2881 0424 1344     		add	r3, r3, r2
ARM GAS  /var/folders/1_/rgbtf7293t93c5kflb58xcy40000gn/T//ccMetEze.s 			page 86


 2882 0426 D3ED007A 		vldr.32	s15, [r3]
 2883              		.loc 18 140 45 discriminator 2
 2884 042a 67EE277A 		vmul.f32	s15, s14, s15
 2885              		.loc 18 140 58 discriminator 2
 2886 042e B6EE007A 		vmov.f32	s14, #5.0e-1
 2887 0432 27EE877A 		vmul.f32	s14, s15, s14
 2888              		.loc 18 140 20 discriminator 2
 2889 0436 824B     		ldr	r3, .L87+16
 2890 0438 D3ED007A 		vldr.32	s15, [r3]
 2891 043c 77EE277A 		vadd.f32	s15, s14, s15
 2892 0440 7F4B     		ldr	r3, .L87+16
 2893 0442 C3ED007A 		vstr.32	s15, [r3]
 138:FDN_stereo.cpp ****             for(c = 0; c < DEL_NUM; c++){
 2894              		.loc 18 138 13 discriminator 2
 2895 0446 7F4B     		ldr	r3, .L87+20
 2896 0448 1B78     		ldrb	r3, [r3]	@ zero_extendqisi2
 2897 044a 0133     		adds	r3, r3, #1
 2898 044c DAB2     		uxtb	r2, r3
 2899 044e 7D4B     		ldr	r3, .L87+20
 2900 0450 1A70     		strb	r2, [r3]
 2901 0452 AAE7     		b	.L75
 2902              	.L74:
 141:FDN_stereo.cpp ****             }
 142:FDN_stereo.cpp **** 			FDN_feedback_L *= feedbackGainCV;
 2903              		.loc 18 142 19 discriminator 2
 2904 0454 794B     		ldr	r3, .L87+12
 2905 0456 93ED007A 		vldr.32	s14, [r3]
 2906 045a 7E4B     		ldr	r3, .L87+36
 2907 045c D3ED007A 		vldr.32	s15, [r3]
 2908 0460 67EE277A 		vmul.f32	s15, s14, s15
 2909 0464 754B     		ldr	r3, .L87+12
 2910 0466 C3ED007A 		vstr.32	s15, [r3]
 143:FDN_stereo.cpp **** 			FDN_feedback_L += in[LEFT] * STEREO_CROSS_MIX + in[RIGHT] * (1 - STEREO_CROSS_MIX);
 2911              		.loc 18 143 19 discriminator 2
 2912 046a 744B     		ldr	r3, .L87+12
 2913 046c D3ED007A 		vldr.32	s15, [r3]
 2914 0470 B7EEE76A 		vcvt.f64.f32	d6, s15
 2915              		.loc 18 143 29 discriminator 2
 2916 0474 7B69     		ldr	r3, [r7, #20]
 2917 0476 9B00     		lsls	r3, r3, #2
 2918 0478 FA68     		ldr	r2, [r7, #12]
 2919 047a 1344     		add	r3, r3, r2
 2920 047c D3ED007A 		vldr.32	s15, [r3]
 2921 0480 B7EEE77A 		vcvt.f64.f32	d7, s15
 2922              		.loc 18 143 31 discriminator 2
 2923 0484 B6EE005B 		vmov.f64	d5, #5.0e-1
 2924 0488 27EE055B 		vmul.f64	d5, d7, d5
 2925              		.loc 18 143 60 discriminator 2
 2926 048c 7B69     		ldr	r3, [r7, #20]
 2927 048e 0133     		adds	r3, r3, #1
 2928 0490 9B00     		lsls	r3, r3, #2
 2929 0492 FA68     		ldr	r2, [r7, #12]
 2930 0494 1344     		add	r3, r3, r2
 2931 0496 D3ED007A 		vldr.32	s15, [r3]
 2932 049a B7EEE77A 		vcvt.f64.f32	d7, s15
 2933              		.loc 18 143 62 discriminator 2
 2934 049e B6EE004B 		vmov.f64	d4, #5.0e-1
ARM GAS  /var/folders/1_/rgbtf7293t93c5kflb58xcy40000gn/T//ccMetEze.s 			page 87


 2935 04a2 27EE047B 		vmul.f64	d7, d7, d4
 2936              		.loc 18 143 50 discriminator 2
 2937 04a6 35EE077B 		vadd.f64	d7, d5, d7
 2938              		.loc 18 143 19 discriminator 2
 2939 04aa 36EE077B 		vadd.f64	d7, d6, d7
 2940 04ae F7EEC77B 		vcvt.f32.f64	s15, d7
 2941 04b2 624B     		ldr	r3, .L87+12
 2942 04b4 C3ED007A 		vstr.32	s15, [r3]
 144:FDN_stereo.cpp **** 			FDN_del_L[r].Write(FDN_feedback_L);
 2943              		.loc 18 144 14 discriminator 2
 2944 04b8 5F4B     		ldr	r3, .L87+8
 2945 04ba 1B78     		ldrb	r3, [r3]	@ zero_extendqisi2
 2946 04bc 1A46     		mov	r2, r3
 2947              		.loc 18 144 22 discriminator 2
 2948 04be 44F62C63 		movw	r3, #20012
 2949 04c2 02FB03F3 		mul	r3, r2, r3
 2950 04c6 644A     		ldr	r2, .L87+40
 2951 04c8 1344     		add	r3, r3, r2
 2952 04ca 5C4A     		ldr	r2, .L87+12
 2953 04cc D2ED007A 		vldr.32	s15, [r2]
 2954 04d0 B0EE670A 		vmov.f32	s0, s15
 2955 04d4 1846     		mov	r0, r3
 2956 04d6 FFF7FEFF 		bl	_ZN7daisysp9DelayLineIfLj5000EE5WriteEf
 145:FDN_stereo.cpp **** 
 146:FDN_stereo.cpp **** 			FDN_feedback_R *= feedbackGainCV;
 2957              		.loc 18 146 19 discriminator 2
 2958 04da 594B     		ldr	r3, .L87+16
 2959 04dc 93ED007A 		vldr.32	s14, [r3]
 2960 04e0 5C4B     		ldr	r3, .L87+36
 2961 04e2 D3ED007A 		vldr.32	s15, [r3]
 2962 04e6 67EE277A 		vmul.f32	s15, s14, s15
 2963 04ea 554B     		ldr	r3, .L87+16
 2964 04ec C3ED007A 		vstr.32	s15, [r3]
 147:FDN_stereo.cpp **** 			FDN_feedback_R += in[RIGHT] * STEREO_CROSS_MIX + in[LEFT] * (1 - STEREO_CROSS_MIX);
 2965              		.loc 18 147 19 discriminator 2
 2966 04f0 534B     		ldr	r3, .L87+16
 2967 04f2 D3ED007A 		vldr.32	s15, [r3]
 2968 04f6 B7EEE76A 		vcvt.f64.f32	d6, s15
 2969              		.loc 18 147 30 discriminator 2
 2970 04fa 7B69     		ldr	r3, [r7, #20]
 2971 04fc 0133     		adds	r3, r3, #1
 2972 04fe 9B00     		lsls	r3, r3, #2
 2973 0500 FA68     		ldr	r2, [r7, #12]
 2974 0502 1344     		add	r3, r3, r2
 2975 0504 D3ED007A 		vldr.32	s15, [r3]
 2976 0508 B7EEE77A 		vcvt.f64.f32	d7, s15
 2977              		.loc 18 147 32 discriminator 2
 2978 050c B6EE005B 		vmov.f64	d5, #5.0e-1
 2979 0510 27EE055B 		vmul.f64	d5, d7, d5
 2980              		.loc 18 147 60 discriminator 2
 2981 0514 7B69     		ldr	r3, [r7, #20]
 2982 0516 9B00     		lsls	r3, r3, #2
 2983 0518 FA68     		ldr	r2, [r7, #12]
 2984 051a 1344     		add	r3, r3, r2
 2985 051c D3ED007A 		vldr.32	s15, [r3]
 2986 0520 B7EEE77A 		vcvt.f64.f32	d7, s15
 2987              		.loc 18 147 62 discriminator 2
ARM GAS  /var/folders/1_/rgbtf7293t93c5kflb58xcy40000gn/T//ccMetEze.s 			page 88


 2988 0524 B6EE004B 		vmov.f64	d4, #5.0e-1
 2989 0528 27EE047B 		vmul.f64	d7, d7, d4
 2990              		.loc 18 147 51 discriminator 2
 2991 052c 35EE077B 		vadd.f64	d7, d5, d7
 2992              		.loc 18 147 19 discriminator 2
 2993 0530 36EE077B 		vadd.f64	d7, d6, d7
 2994 0534 F7EEC77B 		vcvt.f32.f64	s15, d7
 2995 0538 414B     		ldr	r3, .L87+16
 2996 053a C3ED007A 		vstr.32	s15, [r3]
 148:FDN_stereo.cpp ****             FDN_del_R[r].Write(FDN_feedback_R);
 2997              		.loc 18 148 23 discriminator 2
 2998 053e 3E4B     		ldr	r3, .L87+8
 2999 0540 1B78     		ldrb	r3, [r3]	@ zero_extendqisi2
 3000 0542 1A46     		mov	r2, r3
 3001              		.loc 18 148 31 discriminator 2
 3002 0544 44F62C63 		movw	r3, #20012
 3003 0548 02FB03F3 		mul	r3, r2, r3
 3004 054c 434A     		ldr	r2, .L87+44
 3005 054e 1344     		add	r3, r3, r2
 3006 0550 3B4A     		ldr	r2, .L87+16
 3007 0552 D2ED007A 		vldr.32	s15, [r2]
 3008 0556 B0EE670A 		vmov.f32	s0, s15
 3009 055a 1846     		mov	r0, r3
 3010 055c FFF7FEFF 		bl	_ZN7daisysp9DelayLineIfLj5000EE5WriteEf
 135:FDN_stereo.cpp ****             FDN_feedback_L = 0;
 3011              		.loc 18 135 9 discriminator 2
 3012 0560 354B     		ldr	r3, .L87+8
 3013 0562 1B78     		ldrb	r3, [r3]	@ zero_extendqisi2
 3014 0564 0133     		adds	r3, r3, #1
 3015 0566 DAB2     		uxtb	r2, r3
 3016 0568 334B     		ldr	r3, .L87+8
 3017 056a 1A70     		strb	r2, [r3]
 3018 056c 0DE7     		b	.L76
 3019              	.L73:
 149:FDN_stereo.cpp ****         }
 150:FDN_stereo.cpp **** 
 151:FDN_stereo.cpp **** 		// Series APF
 152:FDN_stereo.cpp **** 		apf_y = sig_out_L;
 3020              		.loc 18 152 9
 3021 056e 3C4B     		ldr	r3, .L87+48
 3022 0570 1B68     		ldr	r3, [r3]	@ float
 3023 0572 3C4A     		ldr	r2, .L87+52
 3024 0574 1360     		str	r3, [r2]	@ float
 153:FDN_stereo.cpp **** 		for(idx = 0; idx < DEL_NUM; idx++) {
 3025              		.loc 18 153 11
 3026 0576 3C4B     		ldr	r3, .L87+56
 3027 0578 0022     		movs	r2, #0
 3028 057a 1A70     		strb	r2, [r3]
 3029              	.L78:
 3030              		.loc 18 153 20 discriminator 3
 3031 057c 3A4B     		ldr	r3, .L87+56
 3032 057e 1B78     		ldrb	r3, [r3]	@ zero_extendqisi2
 3033 0580 032B     		cmp	r3, #3
 3034 0582 79D8     		bhi	.L77
 154:FDN_stereo.cpp **** 			apf_del_out = apf_del[idx].Read();
 3035              		.loc 18 154 26 discriminator 2
 3036 0584 384B     		ldr	r3, .L87+56
ARM GAS  /var/folders/1_/rgbtf7293t93c5kflb58xcy40000gn/T//ccMetEze.s 			page 89


 3037 0586 1B78     		ldrb	r3, [r3]	@ zero_extendqisi2
 3038 0588 1A46     		mov	r2, r3
 3039              		.loc 18 154 35 discriminator 2
 3040 058a 40F6C403 		movw	r3, #2244
 3041 058e 02FB03F3 		mul	r3, r2, r3
 3042 0592 364A     		ldr	r2, .L87+60
 3043 0594 1344     		add	r3, r3, r2
 3044 0596 1846     		mov	r0, r3
 3045 0598 FFF7FEFF 		bl	_ZNK7daisysp9DelayLineIfLj558EE4ReadEv
 3046 059c F0EE407A 		vmov.f32	s15, s0
 3047              		.loc 18 154 16 discriminator 2
 3048 05a0 334B     		ldr	r3, .L87+64
 3049 05a2 C3ED007A 		vstr.32	s15, [r3]
 155:FDN_stereo.cpp **** 			apf_feedback = apf_y - (0.7 * apf_del_out);
 3050              		.loc 18 155 19 discriminator 2
 3051 05a6 2F4B     		ldr	r3, .L87+52
 3052 05a8 D3ED007A 		vldr.32	s15, [r3]
 3053 05ac B7EEE76A 		vcvt.f64.f32	d6, s15
 3054              		.loc 18 155 34 discriminator 2
 3055 05b0 2F4B     		ldr	r3, .L87+64
 3056 05b2 D3ED007A 		vldr.32	s15, [r3]
 3057 05b6 B7EEE77A 		vcvt.f64.f32	d7, s15
 3058              		.loc 18 155 32 discriminator 2
 3059 05ba 9FED1D5B 		vldr.64	d5, .L87
 3060 05be 27EE057B 		vmul.f64	d7, d7, d5
 3061              		.loc 18 155 25 discriminator 2
 3062 05c2 36EE477B 		vsub.f64	d7, d6, d7
 3063 05c6 F7EEC77B 		vcvt.f32.f64	s15, d7
 3064              		.loc 18 155 17 discriminator 2
 3065 05ca 2A4B     		ldr	r3, .L87+68
 3066 05cc C3ED007A 		vstr.32	s15, [r3]
 156:FDN_stereo.cpp **** 			apf_y = (0.7 * apf_feedback) + apf_del_out;
 3067              		.loc 18 156 19 discriminator 2
 3068 05d0 284B     		ldr	r3, .L87+68
 3069 05d2 D3ED007A 		vldr.32	s15, [r3]
 3070 05d6 B7EEE77A 		vcvt.f64.f32	d7, s15
 3071              		.loc 18 156 17 discriminator 2
 3072 05da 9FED156B 		vldr.64	d6, .L87
 3073 05de 27EE066B 		vmul.f64	d6, d7, d6
 3074              		.loc 18 156 35 discriminator 2
 3075 05e2 234B     		ldr	r3, .L87+64
 3076 05e4 D3ED007A 		vldr.32	s15, [r3]
 3077 05e8 B7EEE77A 		vcvt.f64.f32	d7, s15
 3078              		.loc 18 156 33 discriminator 2
 3079 05ec 36EE077B 		vadd.f64	d7, d6, d7
 3080 05f0 F7EEC77B 		vcvt.f32.f64	s15, d7
 3081              		.loc 18 156 10 discriminator 2
 3082 05f4 1B4B     		ldr	r3, .L87+52
 3083 05f6 C3ED007A 		vstr.32	s15, [r3]
 157:FDN_stereo.cpp **** 			apf_del[idx].Write(apf_feedback);
 3084              		.loc 18 157 12 discriminator 2
 3085 05fa 1B4B     		ldr	r3, .L87+56
 3086 05fc 1B78     		ldrb	r3, [r3]	@ zero_extendqisi2
 3087 05fe 1A46     		mov	r2, r3
 3088              		.loc 18 157 22 discriminator 2
 3089 0600 40F6C403 		movw	r3, #2244
 3090 0604 02FB03F3 		mul	r3, r2, r3
ARM GAS  /var/folders/1_/rgbtf7293t93c5kflb58xcy40000gn/T//ccMetEze.s 			page 90


 3091 0608 184A     		ldr	r2, .L87+60
 3092 060a 1344     		add	r3, r3, r2
 3093 060c 194A     		ldr	r2, .L87+68
 3094 060e D2ED007A 		vldr.32	s15, [r2]
 3095 0612 B0EE670A 		vmov.f32	s0, s15
 3096 0616 1846     		mov	r0, r3
 3097 0618 FFF7FEFF 		bl	_ZN7daisysp9DelayLineIfLj558EE5WriteEf
 153:FDN_stereo.cpp **** 			apf_del_out = apf_del[idx].Read();
 3098              		.loc 18 153 3 discriminator 2
 3099 061c 124B     		ldr	r3, .L87+56
 3100 061e 1B78     		ldrb	r3, [r3]	@ zero_extendqisi2
 3101 0620 0133     		adds	r3, r3, #1
 3102 0622 DAB2     		uxtb	r2, r3
 3103 0624 104B     		ldr	r3, .L87+56
 3104 0626 1A70     		strb	r2, [r3]
 3105 0628 A8E7     		b	.L78
 3106              	.L88:
 3107 062a 00BFAFF3 		.align	3
 3107      0080
 3108              	.L87:
 3109 0630 66666666 		.word	1717986918
 3110 0634 6666E63F 		.word	1072064102
 3111 0638 00000000 		.word	r
 3112 063c 00000000 		.word	FDN_feedback_L
 3113 0640 00000000 		.word	FDN_feedback_R
 3114 0644 00000000 		.word	c
 3115 0648 00000000 		.word	_ZL15hadamard_matrix
 3116 064c 00000000 		.word	lpf_y_L
 3117 0650 00000000 		.word	lpf_y_R
 3118 0654 00000000 		.word	feedbackGainCV
 3119 0658 00000000 		.word	_ZL9FDN_del_L
 3120 065c 00000000 		.word	_ZL9FDN_del_R
 3121 0660 00000000 		.word	sig_out_L
 3122 0664 00000000 		.word	apf_y
 3123 0668 00000000 		.word	idx
 3124 066c 00000000 		.word	_ZL7apf_del
 3125 0670 00000000 		.word	apf_del_out
 3126 0674 00000000 		.word	apf_feedback
 3127              	.L77:
 158:FDN_stereo.cpp **** 		}
 159:FDN_stereo.cpp **** 
 160:FDN_stereo.cpp **** 		sig_out_L = ((1.0f - dryFactor) * in[LEFT]) + (wetFactor * apf_y); // wet/dry
 3128              		.loc 18 160 22
 3129 0678 9B4B     		ldr	r3, .L89+8
 3130 067a D3ED007A 		vldr.32	s15, [r3]
 3131 067e B7EE007A 		vmov.f32	s14, #1.0e+0
 3132 0682 37EE677A 		vsub.f32	s14, s14, s15
 3133              		.loc 18 160 44
 3134 0686 7B69     		ldr	r3, [r7, #20]
 3135 0688 9B00     		lsls	r3, r3, #2
 3136 068a FA68     		ldr	r2, [r7, #12]
 3137 068c 1344     		add	r3, r3, r2
 3138 068e D3ED007A 		vldr.32	s15, [r3]
 3139              		.loc 18 160 35
 3140 0692 27EE277A 		vmul.f32	s14, s14, s15
 3141              		.loc 18 160 60
 3142 0696 954B     		ldr	r3, .L89+12
ARM GAS  /var/folders/1_/rgbtf7293t93c5kflb58xcy40000gn/T//ccMetEze.s 			page 91


 3143 0698 D3ED006A 		vldr.32	s13, [r3]
 3144 069c 944B     		ldr	r3, .L89+16
 3145 069e D3ED007A 		vldr.32	s15, [r3]
 3146 06a2 66EEA77A 		vmul.f32	s15, s13, s15
 3147              		.loc 18 160 47
 3148 06a6 77EE277A 		vadd.f32	s15, s14, s15
 3149              		.loc 18 160 13
 3150 06aa 924B     		ldr	r3, .L89+20
 3151 06ac C3ED007A 		vstr.32	s15, [r3]
 161:FDN_stereo.cpp **** 
 162:FDN_stereo.cpp **** 		apf_y = sig_out_R;
 3152              		.loc 18 162 9
 3153 06b0 914B     		ldr	r3, .L89+24
 3154 06b2 1B68     		ldr	r3, [r3]	@ float
 3155 06b4 8E4A     		ldr	r2, .L89+16
 3156 06b6 1360     		str	r3, [r2]	@ float
 163:FDN_stereo.cpp **** 		for(idx = 0; idx < DEL_NUM; idx++) {
 3157              		.loc 18 163 11
 3158 06b8 904B     		ldr	r3, .L89+28
 3159 06ba 0022     		movs	r2, #0
 3160 06bc 1A70     		strb	r2, [r3]
 3161              	.L80:
 3162              		.loc 18 163 20 discriminator 3
 3163 06be 8F4B     		ldr	r3, .L89+28
 3164 06c0 1B78     		ldrb	r3, [r3]	@ zero_extendqisi2
 3165 06c2 032B     		cmp	r3, #3
 3166 06c4 52D8     		bhi	.L79
 164:FDN_stereo.cpp **** 			apf_del_out = apf_del[idx].Read();
 3167              		.loc 18 164 26 discriminator 2
 3168 06c6 8D4B     		ldr	r3, .L89+28
 3169 06c8 1B78     		ldrb	r3, [r3]	@ zero_extendqisi2
 3170 06ca 1A46     		mov	r2, r3
 3171              		.loc 18 164 35 discriminator 2
 3172 06cc 40F6C403 		movw	r3, #2244
 3173 06d0 02FB03F3 		mul	r3, r2, r3
 3174 06d4 8A4A     		ldr	r2, .L89+32
 3175 06d6 1344     		add	r3, r3, r2
 3176 06d8 1846     		mov	r0, r3
 3177 06da FFF7FEFF 		bl	_ZNK7daisysp9DelayLineIfLj558EE4ReadEv
 3178 06de F0EE407A 		vmov.f32	s15, s0
 3179              		.loc 18 164 16 discriminator 2
 3180 06e2 884B     		ldr	r3, .L89+36
 3181 06e4 C3ED007A 		vstr.32	s15, [r3]
 165:FDN_stereo.cpp **** 			apf_feedback = apf_y - (0.7 * apf_del_out);
 3182              		.loc 18 165 19 discriminator 2
 3183 06e8 814B     		ldr	r3, .L89+16
 3184 06ea D3ED007A 		vldr.32	s15, [r3]
 3185 06ee B7EEE76A 		vcvt.f64.f32	d6, s15
 3186              		.loc 18 165 34 discriminator 2
 3187 06f2 844B     		ldr	r3, .L89+36
 3188 06f4 D3ED007A 		vldr.32	s15, [r3]
 3189 06f8 B7EEE77A 		vcvt.f64.f32	d7, s15
 3190              		.loc 18 165 32 discriminator 2
 3191 06fc 9FED785B 		vldr.64	d5, .L89
 3192 0700 27EE057B 		vmul.f64	d7, d7, d5
 3193              		.loc 18 165 25 discriminator 2
 3194 0704 36EE477B 		vsub.f64	d7, d6, d7
ARM GAS  /var/folders/1_/rgbtf7293t93c5kflb58xcy40000gn/T//ccMetEze.s 			page 92


 3195 0708 F7EEC77B 		vcvt.f32.f64	s15, d7
 3196              		.loc 18 165 17 discriminator 2
 3197 070c 7E4B     		ldr	r3, .L89+40
 3198 070e C3ED007A 		vstr.32	s15, [r3]
 166:FDN_stereo.cpp **** 			apf_y = (0.7 * apf_feedback) + apf_del_out;
 3199              		.loc 18 166 19 discriminator 2
 3200 0712 7D4B     		ldr	r3, .L89+40
 3201 0714 D3ED007A 		vldr.32	s15, [r3]
 3202 0718 B7EEE77A 		vcvt.f64.f32	d7, s15
 3203              		.loc 18 166 17 discriminator 2
 3204 071c 9FED706B 		vldr.64	d6, .L89
 3205 0720 27EE066B 		vmul.f64	d6, d7, d6
 3206              		.loc 18 166 35 discriminator 2
 3207 0724 774B     		ldr	r3, .L89+36
 3208 0726 D3ED007A 		vldr.32	s15, [r3]
 3209 072a B7EEE77A 		vcvt.f64.f32	d7, s15
 3210              		.loc 18 166 33 discriminator 2
 3211 072e 36EE077B 		vadd.f64	d7, d6, d7
 3212 0732 F7EEC77B 		vcvt.f32.f64	s15, d7
 3213              		.loc 18 166 10 discriminator 2
 3214 0736 6E4B     		ldr	r3, .L89+16
 3215 0738 C3ED007A 		vstr.32	s15, [r3]
 167:FDN_stereo.cpp **** 			apf_del[idx].Write(apf_feedback);
 3216              		.loc 18 167 12 discriminator 2
 3217 073c 6F4B     		ldr	r3, .L89+28
 3218 073e 1B78     		ldrb	r3, [r3]	@ zero_extendqisi2
 3219 0740 1A46     		mov	r2, r3
 3220              		.loc 18 167 22 discriminator 2
 3221 0742 40F6C403 		movw	r3, #2244
 3222 0746 02FB03F3 		mul	r3, r2, r3
 3223 074a 6D4A     		ldr	r2, .L89+32
 3224 074c 1344     		add	r3, r3, r2
 3225 074e 6E4A     		ldr	r2, .L89+40
 3226 0750 D2ED007A 		vldr.32	s15, [r2]
 3227 0754 B0EE670A 		vmov.f32	s0, s15
 3228 0758 1846     		mov	r0, r3
 3229 075a FFF7FEFF 		bl	_ZN7daisysp9DelayLineIfLj558EE5WriteEf
 163:FDN_stereo.cpp **** 			apf_del_out = apf_del[idx].Read();
 3230              		.loc 18 163 3 discriminator 2
 3231 075e 674B     		ldr	r3, .L89+28
 3232 0760 1B78     		ldrb	r3, [r3]	@ zero_extendqisi2
 3233 0762 0133     		adds	r3, r3, #1
 3234 0764 DAB2     		uxtb	r2, r3
 3235 0766 654B     		ldr	r3, .L89+28
 3236 0768 1A70     		strb	r2, [r3]
 3237 076a A8E7     		b	.L80
 3238              	.L79:
 168:FDN_stereo.cpp **** 		}
 169:FDN_stereo.cpp **** 
 170:FDN_stereo.cpp **** 		sig_out_R = ((1.0f - wetCV) * in[RIGHT]) + (wetCV * apf_y); // wet/dry
 3239              		.loc 18 170 22
 3240 076c 674B     		ldr	r3, .L89+44
 3241 076e D3ED007A 		vldr.32	s15, [r3]
 3242 0772 B7EE007A 		vmov.f32	s14, #1.0e+0
 3243 0776 37EE677A 		vsub.f32	s14, s14, s15
 3244              		.loc 18 170 41
 3245 077a 7B69     		ldr	r3, [r7, #20]
ARM GAS  /var/folders/1_/rgbtf7293t93c5kflb58xcy40000gn/T//ccMetEze.s 			page 93


 3246 077c 0133     		adds	r3, r3, #1
 3247 077e 9B00     		lsls	r3, r3, #2
 3248 0780 FA68     		ldr	r2, [r7, #12]
 3249 0782 1344     		add	r3, r3, r2
 3250 0784 D3ED007A 		vldr.32	s15, [r3]
 3251              		.loc 18 170 31
 3252 0788 27EE277A 		vmul.f32	s14, s14, s15
 3253              		.loc 18 170 53
 3254 078c 5F4B     		ldr	r3, .L89+44
 3255 078e D3ED006A 		vldr.32	s13, [r3]
 3256 0792 574B     		ldr	r3, .L89+16
 3257 0794 D3ED007A 		vldr.32	s15, [r3]
 3258 0798 66EEA77A 		vmul.f32	s15, s13, s15
 3259              		.loc 18 170 44
 3260 079c 77EE277A 		vadd.f32	s15, s14, s15
 3261              		.loc 18 170 13
 3262 07a0 554B     		ldr	r3, .L89+24
 3263 07a2 C3ED007A 		vstr.32	s15, [r3]
 171:FDN_stereo.cpp **** 
 172:FDN_stereo.cpp ****         out[LEFT]  = sig_out_L;
 3264              		.loc 18 172 17
 3265 07a6 7B69     		ldr	r3, [r7, #20]
 3266 07a8 9B00     		lsls	r3, r3, #2
 3267 07aa BA68     		ldr	r2, [r7, #8]
 3268 07ac 1344     		add	r3, r3, r2
 3269              		.loc 18 172 20
 3270 07ae 514A     		ldr	r2, .L89+20
 3271 07b0 1268     		ldr	r2, [r2]	@ float
 3272 07b2 1A60     		str	r2, [r3]	@ float
 173:FDN_stereo.cpp ****         out[RIGHT] = sig_out_R;
 3273              		.loc 18 173 18
 3274 07b4 7B69     		ldr	r3, [r7, #20]
 3275 07b6 0133     		adds	r3, r3, #1
 3276 07b8 9B00     		lsls	r3, r3, #2
 3277 07ba BA68     		ldr	r2, [r7, #8]
 3278 07bc 1344     		add	r3, r3, r2
 3279              		.loc 18 173 20
 3280 07be 4E4A     		ldr	r2, .L89+24
 3281 07c0 1268     		ldr	r2, [r2]	@ float
 3282 07c2 1A60     		str	r2, [r3]	@ float
 3283              	.LBB18:
 174:FDN_stereo.cpp **** 
 175:FDN_stereo.cpp **** 		// Update delay line lengths
 176:FDN_stereo.cpp ****         for(idx = 0; idx < DEL_NUM; idx++){
 3284              		.loc 18 176 17
 3285 07c4 4D4B     		ldr	r3, .L89+28
 3286 07c6 0022     		movs	r2, #0
 3287 07c8 1A70     		strb	r2, [r3]
 3288              	.L82:
 3289              		.loc 18 176 26 discriminator 3
 3290 07ca 4C4B     		ldr	r3, .L89+28
 3291 07cc 1B78     		ldrb	r3, [r3]	@ zero_extendqisi2
 3292 07ce 032B     		cmp	r3, #3
 3293 07d0 7AD8     		bhi	.L81
 3294              	.LBB19:
 177:FDN_stereo.cpp ****             unsigned short primeIdx = (unsigned short) abs(lengthCV - (densityCV * idx));
 3295              		.loc 18 177 59 discriminator 2
ARM GAS  /var/folders/1_/rgbtf7293t93c5kflb58xcy40000gn/T//ccMetEze.s 			page 94


 3296 07d2 4F4B     		ldr	r3, .L89+48
 3297 07d4 93ED007A 		vldr.32	s14, [r3]
 3298              		.loc 18 177 84 discriminator 2
 3299 07d8 484B     		ldr	r3, .L89+28
 3300 07da 1B78     		ldrb	r3, [r3]	@ zero_extendqisi2
 3301 07dc 07EE903A 		vmov	s15, r3	@ int
 3302              		.loc 18 177 82 discriminator 2
 3303 07e0 F8EEE76A 		vcvt.f32.s32	s13, s15
 3304 07e4 4B4B     		ldr	r3, .L89+52
 3305 07e6 D3ED007A 		vldr.32	s15, [r3]
 3306 07ea 66EEA77A 		vmul.f32	s15, s13, s15
 3307              		.loc 18 177 59 discriminator 2
 3308 07ee 77EE677A 		vsub.f32	s15, s14, s15
 3309 07f2 B0EE670A 		vmov.f32	s0, s15
 3310 07f6 FFF7FEFF 		bl	_ZSt3absf
 3311 07fa F0EE407A 		vmov.f32	s15, s0
 3312              		.loc 18 177 88 discriminator 2
 3313 07fe FCEEE77A 		vcvt.u32.f32	s15, s15
 3314 0802 17EE903A 		vmov	r3, s15	@ int
 3315 0806 7B82     		strh	r3, [r7, #18]	@ movhi
 178:FDN_stereo.cpp ****             selectedPrimes[idx] = (unsigned int) primes[primeIdx];
 3316              		.loc 18 178 57 discriminator 2
 3317 0808 7B8A     		ldrh	r3, [r7, #18]
 3318              		.loc 18 178 65 discriminator 2
 3319 080a 434A     		ldr	r2, .L89+56
 3320 080c 32F81310 		ldrh	r1, [r2, r3, lsl #1]
 3321              		.loc 18 178 28 discriminator 2
 3322 0810 3A4B     		ldr	r3, .L89+28
 3323 0812 1B78     		ldrb	r3, [r3]	@ zero_extendqisi2
 3324 0814 1A46     		mov	r2, r3
 3325              		.loc 18 178 33 discriminator 2
 3326 0816 414B     		ldr	r3, .L89+60
 3327 0818 43F82210 		str	r1, [r3, r2, lsl #2]
 179:FDN_stereo.cpp ****             FDN_del_L[idx].SetDelay(selectedPrimes[idx]);
 3328              		.loc 18 179 23 discriminator 2
 3329 081c 374B     		ldr	r3, .L89+28
 3330 081e 1B78     		ldrb	r3, [r3]	@ zero_extendqisi2
 3331 0820 1A46     		mov	r2, r3
 3332              		.loc 18 179 36 discriminator 2
 3333 0822 44F62C63 		movw	r3, #20012
 3334 0826 02FB03F3 		mul	r3, r2, r3
 3335 082a 3D4A     		ldr	r2, .L89+64
 3336 082c 1344     		add	r3, r3, r2
 3337              		.loc 18 179 52 discriminator 2
 3338 082e 334A     		ldr	r2, .L89+28
 3339 0830 1278     		ldrb	r2, [r2]	@ zero_extendqisi2
 3340 0832 1146     		mov	r1, r2
 3341              		.loc 18 179 36 discriminator 2
 3342 0834 394A     		ldr	r2, .L89+60
 3343 0836 52F82120 		ldr	r2, [r2, r1, lsl #2]
 3344 083a 1146     		mov	r1, r2
 3345 083c 1846     		mov	r0, r3
 3346 083e FFF7FEFF 		bl	_ZN7daisysp9DelayLineIfLj5000EE8SetDelayEj
 180:FDN_stereo.cpp **** 
 181:FDN_stereo.cpp **** 			primeIdx = (unsigned short) abs(lengthCV - (densityCV * idx) - 3);
 3347              		.loc 18 181 45 discriminator 2
 3348 0842 334B     		ldr	r3, .L89+48
ARM GAS  /var/folders/1_/rgbtf7293t93c5kflb58xcy40000gn/T//ccMetEze.s 			page 95


 3349 0844 93ED007A 		vldr.32	s14, [r3]
 3350              		.loc 18 181 60 discriminator 2
 3351 0848 2C4B     		ldr	r3, .L89+28
 3352 084a 1B78     		ldrb	r3, [r3]	@ zero_extendqisi2
 3353 084c 07EE903A 		vmov	s15, r3	@ int
 3354              		.loc 18 181 58 discriminator 2
 3355 0850 F8EEE76A 		vcvt.f32.s32	s13, s15
 3356 0854 2F4B     		ldr	r3, .L89+52
 3357 0856 D3ED007A 		vldr.32	s15, [r3]
 3358 085a 66EEA77A 		vmul.f32	s15, s13, s15
 3359              		.loc 18 181 45 discriminator 2
 3360 085e 77EE677A 		vsub.f32	s15, s14, s15
 3361              		.loc 18 181 35 discriminator 2
 3362 0862 B0EE087A 		vmov.f32	s14, #3.0e+0
 3363 0866 77EEC77A 		vsub.f32	s15, s15, s14
 3364 086a B0EE670A 		vmov.f32	s0, s15
 3365 086e FFF7FEFF 		bl	_ZSt3absf
 3366 0872 F0EE407A 		vmov.f32	s15, s0
 3367              		.loc 18 181 13 discriminator 2
 3368 0876 FCEEE77A 		vcvt.u32.f32	s15, s15
 3369 087a 17EE903A 		vmov	r3, s15	@ int
 3370 087e 7B82     		strh	r3, [r7, #18]	@ movhi
 182:FDN_stereo.cpp ****             selectedPrimes[idx] = (unsigned int) primes[primeIdx];
 3371              		.loc 18 182 57 discriminator 2
 3372 0880 7B8A     		ldrh	r3, [r7, #18]
 3373              		.loc 18 182 65 discriminator 2
 3374 0882 254A     		ldr	r2, .L89+56
 3375 0884 32F81310 		ldrh	r1, [r2, r3, lsl #1]
 3376              		.loc 18 182 28 discriminator 2
 3377 0888 1C4B     		ldr	r3, .L89+28
 3378 088a 1B78     		ldrb	r3, [r3]	@ zero_extendqisi2
 3379 088c 1A46     		mov	r2, r3
 3380              		.loc 18 182 33 discriminator 2
 3381 088e 234B     		ldr	r3, .L89+60
 3382 0890 43F82210 		str	r1, [r3, r2, lsl #2]
 183:FDN_stereo.cpp ****             FDN_del_R[idx].SetDelay(selectedPrimes[idx]);
 3383              		.loc 18 183 23 discriminator 2
 3384 0894 194B     		ldr	r3, .L89+28
 3385 0896 1B78     		ldrb	r3, [r3]	@ zero_extendqisi2
 3386 0898 1A46     		mov	r2, r3
 3387              		.loc 18 183 36 discriminator 2
 3388 089a 44F62C63 		movw	r3, #20012
 3389 089e 02FB03F3 		mul	r3, r2, r3
 3390 08a2 204A     		ldr	r2, .L89+68
 3391 08a4 1344     		add	r3, r3, r2
 3392              		.loc 18 183 52 discriminator 2
 3393 08a6 154A     		ldr	r2, .L89+28
 3394 08a8 1278     		ldrb	r2, [r2]	@ zero_extendqisi2
 3395 08aa 1146     		mov	r1, r2
 3396              		.loc 18 183 36 discriminator 2
 3397 08ac 1B4A     		ldr	r2, .L89+60
 3398 08ae 52F82120 		ldr	r2, [r2, r1, lsl #2]
 3399 08b2 1146     		mov	r1, r2
 3400 08b4 1846     		mov	r0, r3
 3401 08b6 FFF7FEFF 		bl	_ZN7daisysp9DelayLineIfLj5000EE8SetDelayEj
 3402              	.LBE19:
 176:FDN_stereo.cpp ****             unsigned short primeIdx = (unsigned short) abs(lengthCV - (densityCV * idx));
ARM GAS  /var/folders/1_/rgbtf7293t93c5kflb58xcy40000gn/T//ccMetEze.s 			page 96


 3403              		.loc 18 176 9 discriminator 2
 3404 08ba 104B     		ldr	r3, .L89+28
 3405 08bc 1B78     		ldrb	r3, [r3]	@ zero_extendqisi2
 3406 08be 0133     		adds	r3, r3, #1
 3407 08c0 DAB2     		uxtb	r2, r3
 3408 08c2 0E4B     		ldr	r3, .L89+28
 3409 08c4 1A70     		strb	r2, [r3]
 3410 08c6 80E7     		b	.L82
 3411              	.L81:
 3412              	.LBE18:
 3413              	.LBE17:
 101:FDN_stereo.cpp ****     {
 3414              		.loc 18 101 35 discriminator 2
 3415 08c8 7B69     		ldr	r3, [r7, #20]
 3416 08ca 0233     		adds	r3, r3, #2
 3417 08cc 7B61     		str	r3, [r7, #20]
 101:FDN_stereo.cpp ****     {
 3418              		.loc 18 101 5 discriminator 2
 3419 08ce 54E4     		b	.L83
 3420              	.L84:
 3421              	.LBE16:
 184:FDN_stereo.cpp ****         }
 185:FDN_stereo.cpp ****     }
 186:FDN_stereo.cpp **** }
 3422              		.loc 18 186 1
 3423 08d0 00BF     		nop
 3424 08d2 1C37     		adds	r7, r7, #28
 3425              		.cfi_def_cfa_offset 20
 3426 08d4 BD46     		mov	sp, r7
 3427              		.cfi_def_cfa_register 13
 3428              		@ sp needed
 3429 08d6 BDEC028B 		vldm	sp!, {d8}
 3430              		.cfi_restore 80
 3431              		.cfi_restore 81
 3432              		.cfi_def_cfa_offset 12
 3433 08da 90BD     		pop	{r4, r7, pc}
 3434              	.L90:
 3435 08dc AFF30080 		.align	3
 3436              	.L89:
 3437 08e0 66666666 		.word	1717986918
 3438 08e4 6666E63F 		.word	1072064102
 3439 08e8 00000000 		.word	dryFactor
 3440 08ec 00000000 		.word	wetFactor
 3441 08f0 00000000 		.word	apf_y
 3442 08f4 00000000 		.word	sig_out_L
 3443 08f8 00000000 		.word	sig_out_R
 3444 08fc 00000000 		.word	idx
 3445 0900 00000000 		.word	_ZL7apf_del
 3446 0904 00000000 		.word	apf_del_out
 3447 0908 00000000 		.word	apf_feedback
 3448 090c 00000000 		.word	wetCV
 3449 0910 00000000 		.word	lengthCV
 3450 0914 00000000 		.word	densityCV
 3451 0918 00000000 		.word	_ZL6primes
 3452 091c 00000000 		.word	selectedPrimes
 3453 0920 00000000 		.word	_ZL9FDN_del_L
 3454 0924 00000000 		.word	_ZL9FDN_del_R
ARM GAS  /var/folders/1_/rgbtf7293t93c5kflb58xcy40000gn/T//ccMetEze.s 			page 97


 3455              		.cfi_endproc
 3456              	.LFE4683:
 3458              		.section	.rodata
 3459              		.align	2
 3460              	.LC0:
 3461 0000 09070000 		.word	1801
 3462 0004 11060000 		.word	1553
 3463 0008 E1070000 		.word	2017
 3464 000c C3080000 		.word	2243
 3465              		.align	2
 3466              	.LC1:
 3467 0010 DF00     		.short	223
 3468 0012 2D02     		.short	557
 3469 0014 BB01     		.short	443
 3470 0016 5101     		.short	337
 3471              		.section	.text.main,"ax",%progbits
 3472              		.align	1
 3473              		.global	main
 3474              		.syntax unified
 3475              		.thumb
 3476              		.thumb_func
 3478              	main:
 3479              	.LFB4684:
 187:FDN_stereo.cpp **** 
 188:FDN_stereo.cpp **** int main(void)
 189:FDN_stereo.cpp **** {
 3480              		.loc 18 189 1
 3481              		.cfi_startproc
 3482              		@ args = 0, pretend = 0, frame = 24
 3483              		@ frame_needed = 1, uses_anonymous_args = 0
 3484 0000 90B5     		push	{r4, r7, lr}
 3485              		.cfi_def_cfa_offset 12
 3486              		.cfi_offset 4, -12
 3487              		.cfi_offset 7, -8
 3488              		.cfi_offset 14, -4
 3489 0002 87B0     		sub	sp, sp, #28
 3490              		.cfi_def_cfa_offset 40
 3491 0004 00AF     		add	r7, sp, #0
 3492              		.cfi_def_cfa_register 7
 190:FDN_stereo.cpp ****     // Initialize seed hardware and daisysp modules
 191:FDN_stereo.cpp ****     // patch.Configure();
 192:FDN_stereo.cpp ****     patch.Init();
 3493              		.loc 18 192 15
 3494 0006 5B48     		ldr	r0, .L97
 3495 0008 FFF7FEFF 		bl	_ZN5daisy8patch_sm12DaisyPatchSM4InitEv
 193:FDN_stereo.cpp ****     patch.SetAudioBlockSize(4);
 3496              		.loc 18 193 28
 3497 000c 0421     		movs	r1, #4
 3498 000e 5948     		ldr	r0, .L97
 3499 0010 FFF7FEFF 		bl	_ZN5daisy8patch_sm12DaisyPatchSM17SetAudioBlockSizeEj
 194:FDN_stereo.cpp **** 
 195:FDN_stereo.cpp ****     // Initialize and set delay lines
 196:FDN_stereo.cpp ****     unsigned int lengths[DEL_NUM] = {1801U, 1553U, 2017U, 2243U};
 3500              		.loc 18 196 18
 3501 0014 584B     		ldr	r3, .L97+4
 3502 0016 07F10804 		add	r4, r7, #8
 3503 001a 0FCB     		ldm	r3, {r0, r1, r2, r3}
ARM GAS  /var/folders/1_/rgbtf7293t93c5kflb58xcy40000gn/T//ccMetEze.s 			page 98


 3504 001c 84E80F00 		stm	r4, {r0, r1, r2, r3}
 197:FDN_stereo.cpp ****     for(idx = 0; idx < DEL_NUM; idx++){
 3505              		.loc 18 197 13
 3506 0020 564B     		ldr	r3, .L97+8
 3507 0022 0022     		movs	r2, #0
 3508 0024 1A70     		strb	r2, [r3]
 3509              	.L93:
 3510              		.loc 18 197 22 discriminator 3
 3511 0026 554B     		ldr	r3, .L97+8
 3512 0028 1B78     		ldrb	r3, [r3]	@ zero_extendqisi2
 3513 002a 032B     		cmp	r3, #3
 3514 002c 68D8     		bhi	.L92
 198:FDN_stereo.cpp **** 		lpf_del_L[idx].Init();
 3515              		.loc 18 198 13 discriminator 2
 3516 002e 534B     		ldr	r3, .L97+8
 3517 0030 1B78     		ldrb	r3, [r3]	@ zero_extendqisi2
 3518              		.loc 18 198 22 discriminator 2
 3519 0032 1B01     		lsls	r3, r3, #4
 3520 0034 524A     		ldr	r2, .L97+12
 3521 0036 1344     		add	r3, r3, r2
 3522 0038 1846     		mov	r0, r3
 3523 003a FFF7FEFF 		bl	_ZN7daisysp9DelayLineIfLj1EE4InitEv
 199:FDN_stereo.cpp ****         lpf_del_L[idx].SetDelay(1U);
 3524              		.loc 18 199 19 discriminator 2
 3525 003e 4F4B     		ldr	r3, .L97+8
 3526 0040 1B78     		ldrb	r3, [r3]	@ zero_extendqisi2
 3527              		.loc 18 199 32 discriminator 2
 3528 0042 1B01     		lsls	r3, r3, #4
 3529 0044 4E4A     		ldr	r2, .L97+12
 3530 0046 1344     		add	r3, r3, r2
 3531 0048 0121     		movs	r1, #1
 3532 004a 1846     		mov	r0, r3
 3533 004c FFF7FEFF 		bl	_ZN7daisysp9DelayLineIfLj1EE8SetDelayEj
 200:FDN_stereo.cpp **** 
 201:FDN_stereo.cpp ****         FDN_del_L[idx].Init();
 3534              		.loc 18 201 19 discriminator 2
 3535 0050 4A4B     		ldr	r3, .L97+8
 3536 0052 1B78     		ldrb	r3, [r3]	@ zero_extendqisi2
 3537 0054 1A46     		mov	r2, r3
 3538              		.loc 18 201 28 discriminator 2
 3539 0056 44F62C63 		movw	r3, #20012
 3540 005a 02FB03F3 		mul	r3, r2, r3
 3541 005e 494A     		ldr	r2, .L97+16
 3542 0060 1344     		add	r3, r3, r2
 3543 0062 1846     		mov	r0, r3
 3544 0064 FFF7FEFF 		bl	_ZN7daisysp9DelayLineIfLj5000EE4InitEv
 202:FDN_stereo.cpp ****         FDN_del_L[idx].SetDelay(lengths[idx]);
 3545              		.loc 18 202 19 discriminator 2
 3546 0068 444B     		ldr	r3, .L97+8
 3547 006a 1B78     		ldrb	r3, [r3]	@ zero_extendqisi2
 3548 006c 1A46     		mov	r2, r3
 3549              		.loc 18 202 32 discriminator 2
 3550 006e 44F62C63 		movw	r3, #20012
 3551 0072 02FB03F3 		mul	r3, r2, r3
 3552 0076 434A     		ldr	r2, .L97+16
 3553 0078 1A44     		add	r2, r2, r3
 3554              		.loc 18 202 41 discriminator 2
ARM GAS  /var/folders/1_/rgbtf7293t93c5kflb58xcy40000gn/T//ccMetEze.s 			page 99


 3555 007a 404B     		ldr	r3, .L97+8
 3556 007c 1B78     		ldrb	r3, [r3]	@ zero_extendqisi2
 3557              		.loc 18 202 32 discriminator 2
 3558 007e 9B00     		lsls	r3, r3, #2
 3559 0080 1833     		adds	r3, r3, #24
 3560 0082 3B44     		add	r3, r3, r7
 3561 0084 53F8103C 		ldr	r3, [r3, #-16]
 3562 0088 1946     		mov	r1, r3
 3563 008a 1046     		mov	r0, r2
 3564 008c FFF7FEFF 		bl	_ZN7daisysp9DelayLineIfLj5000EE8SetDelayEj
 203:FDN_stereo.cpp **** 
 204:FDN_stereo.cpp **** 		lpf_del_R[idx].Init();
 3565              		.loc 18 204 13 discriminator 2
 3566 0090 3A4B     		ldr	r3, .L97+8
 3567 0092 1B78     		ldrb	r3, [r3]	@ zero_extendqisi2
 3568              		.loc 18 204 22 discriminator 2
 3569 0094 1B01     		lsls	r3, r3, #4
 3570 0096 3C4A     		ldr	r2, .L97+20
 3571 0098 1344     		add	r3, r3, r2
 3572 009a 1846     		mov	r0, r3
 3573 009c FFF7FEFF 		bl	_ZN7daisysp9DelayLineIfLj1EE4InitEv
 205:FDN_stereo.cpp ****         lpf_del_R[idx].SetDelay(1U);
 3574              		.loc 18 205 19 discriminator 2
 3575 00a0 364B     		ldr	r3, .L97+8
 3576 00a2 1B78     		ldrb	r3, [r3]	@ zero_extendqisi2
 3577              		.loc 18 205 32 discriminator 2
 3578 00a4 1B01     		lsls	r3, r3, #4
 3579 00a6 384A     		ldr	r2, .L97+20
 3580 00a8 1344     		add	r3, r3, r2
 3581 00aa 0121     		movs	r1, #1
 3582 00ac 1846     		mov	r0, r3
 3583 00ae FFF7FEFF 		bl	_ZN7daisysp9DelayLineIfLj1EE8SetDelayEj
 206:FDN_stereo.cpp **** 
 207:FDN_stereo.cpp ****         FDN_del_R[idx].Init();
 3584              		.loc 18 207 19 discriminator 2
 3585 00b2 324B     		ldr	r3, .L97+8
 3586 00b4 1B78     		ldrb	r3, [r3]	@ zero_extendqisi2
 3587 00b6 1A46     		mov	r2, r3
 3588              		.loc 18 207 28 discriminator 2
 3589 00b8 44F62C63 		movw	r3, #20012
 3590 00bc 02FB03F3 		mul	r3, r2, r3
 3591 00c0 324A     		ldr	r2, .L97+24
 3592 00c2 1344     		add	r3, r3, r2
 3593 00c4 1846     		mov	r0, r3
 3594 00c6 FFF7FEFF 		bl	_ZN7daisysp9DelayLineIfLj5000EE4InitEv
 208:FDN_stereo.cpp ****         FDN_del_R[idx].SetDelay(lengths[idx]);
 3595              		.loc 18 208 19 discriminator 2
 3596 00ca 2C4B     		ldr	r3, .L97+8
 3597 00cc 1B78     		ldrb	r3, [r3]	@ zero_extendqisi2
 3598 00ce 1A46     		mov	r2, r3
 3599              		.loc 18 208 32 discriminator 2
 3600 00d0 44F62C63 		movw	r3, #20012
 3601 00d4 02FB03F3 		mul	r3, r2, r3
 3602 00d8 2C4A     		ldr	r2, .L97+24
 3603 00da 1A44     		add	r2, r2, r3
 3604              		.loc 18 208 41 discriminator 2
 3605 00dc 274B     		ldr	r3, .L97+8
ARM GAS  /var/folders/1_/rgbtf7293t93c5kflb58xcy40000gn/T//ccMetEze.s 			page 100


 3606 00de 1B78     		ldrb	r3, [r3]	@ zero_extendqisi2
 3607              		.loc 18 208 32 discriminator 2
 3608 00e0 9B00     		lsls	r3, r3, #2
 3609 00e2 1833     		adds	r3, r3, #24
 3610 00e4 3B44     		add	r3, r3, r7
 3611 00e6 53F8103C 		ldr	r3, [r3, #-16]
 3612 00ea 1946     		mov	r1, r3
 3613 00ec 1046     		mov	r0, r2
 3614 00ee FFF7FEFF 		bl	_ZN7daisysp9DelayLineIfLj5000EE8SetDelayEj
 197:FDN_stereo.cpp **** 		lpf_del_L[idx].Init();
 3615              		.loc 18 197 5 discriminator 2
 3616 00f2 224B     		ldr	r3, .L97+8
 3617 00f4 1B78     		ldrb	r3, [r3]	@ zero_extendqisi2
 3618 00f6 0133     		adds	r3, r3, #1
 3619 00f8 DAB2     		uxtb	r2, r3
 3620 00fa 204B     		ldr	r3, .L97+8
 3621 00fc 1A70     		strb	r2, [r3]
 3622 00fe 92E7     		b	.L93
 3623              	.L92:
 209:FDN_stereo.cpp ****     }
 210:FDN_stereo.cpp **** 
 211:FDN_stereo.cpp **** 	// Initialize & Set APF Delay Lines
 212:FDN_stereo.cpp **** 	unsigned short apf_lengths[DEL_NUM] = {223U, 557U, 443U, 337U};
 3624              		.loc 18 212 17
 3625 0100 234A     		ldr	r2, .L97+28
 3626 0102 3B46     		mov	r3, r7
 3627 0104 92E80300 		ldm	r2, {r0, r1}
 3628 0108 83E80300 		stm	r3, {r0, r1}
 213:FDN_stereo.cpp ****     for(idx = 0; idx < DEL_NUM; idx++){
 3629              		.loc 18 213 13
 3630 010c 1B4B     		ldr	r3, .L97+8
 3631 010e 0022     		movs	r2, #0
 3632 0110 1A70     		strb	r2, [r3]
 3633              	.L95:
 3634              		.loc 18 213 22 discriminator 3
 3635 0112 1A4B     		ldr	r3, .L97+8
 3636 0114 1B78     		ldrb	r3, [r3]	@ zero_extendqisi2
 3637 0116 032B     		cmp	r3, #3
 3638 0118 26D8     		bhi	.L94
 214:FDN_stereo.cpp ****         apf_del[idx].Init();
 3639              		.loc 18 214 17 discriminator 2
 3640 011a 184B     		ldr	r3, .L97+8
 3641 011c 1B78     		ldrb	r3, [r3]	@ zero_extendqisi2
 3642 011e 1A46     		mov	r2, r3
 3643              		.loc 18 214 26 discriminator 2
 3644 0120 40F6C403 		movw	r3, #2244
 3645 0124 02FB03F3 		mul	r3, r2, r3
 3646 0128 1A4A     		ldr	r2, .L97+32
 3647 012a 1344     		add	r3, r3, r2
 3648 012c 1846     		mov	r0, r3
 3649 012e FFF7FEFF 		bl	_ZN7daisysp9DelayLineIfLj558EE4InitEv
 215:FDN_stereo.cpp ****         apf_del[idx].SetDelay((unsigned int) apf_lengths[idx]);
 3650              		.loc 18 215 17 discriminator 2
 3651 0132 124B     		ldr	r3, .L97+8
 3652 0134 1B78     		ldrb	r3, [r3]	@ zero_extendqisi2
 3653 0136 1A46     		mov	r2, r3
 3654              		.loc 18 215 30 discriminator 2
ARM GAS  /var/folders/1_/rgbtf7293t93c5kflb58xcy40000gn/T//ccMetEze.s 			page 101


 3655 0138 40F6C403 		movw	r3, #2244
 3656 013c 02FB03F3 		mul	r3, r2, r3
 3657 0140 144A     		ldr	r2, .L97+32
 3658 0142 1A44     		add	r2, r2, r3
 3659              		.loc 18 215 58 discriminator 2
 3660 0144 0D4B     		ldr	r3, .L97+8
 3661 0146 1B78     		ldrb	r3, [r3]	@ zero_extendqisi2
 3662              		.loc 18 215 61 discriminator 2
 3663 0148 5B00     		lsls	r3, r3, #1
 3664 014a 1833     		adds	r3, r3, #24
 3665 014c 3B44     		add	r3, r3, r7
 3666 014e 33F8183C 		ldrh	r3, [r3, #-24]
 3667              		.loc 18 215 30 discriminator 2
 3668 0152 1946     		mov	r1, r3
 3669 0154 1046     		mov	r0, r2
 3670 0156 FFF7FEFF 		bl	_ZN7daisysp9DelayLineIfLj558EE8SetDelayEj
 213:FDN_stereo.cpp ****     for(idx = 0; idx < DEL_NUM; idx++){
 3671              		.loc 18 213 5 discriminator 2
 3672 015a 084B     		ldr	r3, .L97+8
 3673 015c 1B78     		ldrb	r3, [r3]	@ zero_extendqisi2
 3674 015e 0133     		adds	r3, r3, #1
 3675 0160 DAB2     		uxtb	r2, r3
 3676 0162 064B     		ldr	r3, .L97+8
 3677 0164 1A70     		strb	r2, [r3]
 3678 0166 D4E7     		b	.L95
 3679              	.L94:
 216:FDN_stereo.cpp ****     }
 217:FDN_stereo.cpp **** 
 218:FDN_stereo.cpp ****     // Start callback
 219:FDN_stereo.cpp ****     patch.StartAudio(AudioCallback);
 3680              		.loc 18 219 21
 3681 0168 0B49     		ldr	r1, .L97+36
 3682 016a 0248     		ldr	r0, .L97
 3683 016c FFF7FEFF 		bl	_ZN5daisy8patch_sm12DaisyPatchSM10StartAudioEPFvPKfPfjE
 3684              	.L96:
 220:FDN_stereo.cpp **** 
 221:FDN_stereo.cpp ****     while(true) {}
 3685              		.loc 18 221 5 discriminator 1
 3686 0170 FEE7     		b	.L96
 3687              	.L98:
 3688 0172 00BF     		.align	2
 3689              	.L97:
 3690 0174 00000000 		.word	patch
 3691 0178 00000000 		.word	.LC0
 3692 017c 00000000 		.word	idx
 3693 0180 00000000 		.word	_ZL9lpf_del_L
 3694 0184 00000000 		.word	_ZL9FDN_del_L
 3695 0188 00000000 		.word	_ZL9lpf_del_R
 3696 018c 00000000 		.word	_ZL9FDN_del_R
 3697 0190 10000000 		.word	.LC1
 3698 0194 00000000 		.word	_ZL7apf_del
 3699 0198 00000000 		.word	_ZL13AudioCallbackPKfPfj
 3700              		.cfi_endproc
 3701              	.LFE4684:
 3703              		.section	.text._ZN7daisysp9DelayLineIfLj5000EEC2Ev,"axG",%progbits,_ZN7daisysp9DelayLineIfLj5000EE
 3704              		.align	1
 3705              		.weak	_ZN7daisysp9DelayLineIfLj5000EEC2Ev
ARM GAS  /var/folders/1_/rgbtf7293t93c5kflb58xcy40000gn/T//ccMetEze.s 			page 102


 3706              		.syntax unified
 3707              		.thumb
 3708              		.thumb_func
 3710              	_ZN7daisysp9DelayLineIfLj5000EEC2Ev:
 3711              	.LFB4994:
 3712              		.file 19 "../DaisyExamples/DaisySP//Source/Utility/delayline.h"
   1:../DaisyExamples/DaisySP//Source/Utility/delayline.h **** /*
   2:../DaisyExamples/DaisySP//Source/Utility/delayline.h **** Copyright (c) 2020 Electrosmith, Corp
   3:../DaisyExamples/DaisySP//Source/Utility/delayline.h **** 
   4:../DaisyExamples/DaisySP//Source/Utility/delayline.h **** Use of this source code is governed by an MIT-style
   5:../DaisyExamples/DaisySP//Source/Utility/delayline.h **** license that can be found in the LICENSE file or at
   6:../DaisyExamples/DaisySP//Source/Utility/delayline.h **** https://opensource.org/licenses/MIT.
   7:../DaisyExamples/DaisySP//Source/Utility/delayline.h **** */
   8:../DaisyExamples/DaisySP//Source/Utility/delayline.h **** 
   9:../DaisyExamples/DaisySP//Source/Utility/delayline.h **** #pragma once
  10:../DaisyExamples/DaisySP//Source/Utility/delayline.h **** #ifndef DSY_DELAY_H
  11:../DaisyExamples/DaisySP//Source/Utility/delayline.h **** #define DSY_DELAY_H
  12:../DaisyExamples/DaisySP//Source/Utility/delayline.h **** #include <stdlib.h>
  13:../DaisyExamples/DaisySP//Source/Utility/delayline.h **** #include <stdint.h>
  14:../DaisyExamples/DaisySP//Source/Utility/delayline.h **** namespace daisysp
  15:../DaisyExamples/DaisySP//Source/Utility/delayline.h **** {
  16:../DaisyExamples/DaisySP//Source/Utility/delayline.h **** /** Simple Delay line.
  17:../DaisyExamples/DaisySP//Source/Utility/delayline.h **** November 2019
  18:../DaisyExamples/DaisySP//Source/Utility/delayline.h **** 
  19:../DaisyExamples/DaisySP//Source/Utility/delayline.h **** Converted to Template December 2019
  20:../DaisyExamples/DaisySP//Source/Utility/delayline.h **** 
  21:../DaisyExamples/DaisySP//Source/Utility/delayline.h **** declaration example: (1 second of floats)
  22:../DaisyExamples/DaisySP//Source/Utility/delayline.h **** 
  23:../DaisyExamples/DaisySP//Source/Utility/delayline.h **** DelayLine<float, SAMPLE_RATE> del;
  24:../DaisyExamples/DaisySP//Source/Utility/delayline.h **** 
  25:../DaisyExamples/DaisySP//Source/Utility/delayline.h **** By: shensley
  26:../DaisyExamples/DaisySP//Source/Utility/delayline.h **** */
  27:../DaisyExamples/DaisySP//Source/Utility/delayline.h **** template <typename T, size_t max_size>
  28:../DaisyExamples/DaisySP//Source/Utility/delayline.h **** class DelayLine
  29:../DaisyExamples/DaisySP//Source/Utility/delayline.h **** {
  30:../DaisyExamples/DaisySP//Source/Utility/delayline.h ****   public:
  31:../DaisyExamples/DaisySP//Source/Utility/delayline.h ****     DelayLine() {}
 3713              		.loc 19 31 5
 3714              		.cfi_startproc
 3715              		@ args = 0, pretend = 0, frame = 8
 3716              		@ frame_needed = 1, uses_anonymous_args = 0
 3717              		@ link register save eliminated.
 3718 0000 80B4     		push	{r7}
 3719              		.cfi_def_cfa_offset 4
 3720              		.cfi_offset 7, -4
 3721 0002 83B0     		sub	sp, sp, #12
 3722              		.cfi_def_cfa_offset 16
 3723 0004 00AF     		add	r7, sp, #0
 3724              		.cfi_def_cfa_register 7
 3725 0006 7860     		str	r0, [r7, #4]
 3726              		.loc 19 31 18
 3727 0008 7B68     		ldr	r3, [r7, #4]
 3728 000a 1846     		mov	r0, r3
 3729 000c 0C37     		adds	r7, r7, #12
 3730              		.cfi_def_cfa_offset 4
 3731 000e BD46     		mov	sp, r7
 3732              		.cfi_def_cfa_register 13
ARM GAS  /var/folders/1_/rgbtf7293t93c5kflb58xcy40000gn/T//ccMetEze.s 			page 103


 3733              		@ sp needed
 3734 0010 5DF8047B 		ldr	r7, [sp], #4
 3735              		.cfi_restore 7
 3736              		.cfi_def_cfa_offset 0
 3737 0014 7047     		bx	lr
 3738              		.cfi_endproc
 3739              	.LFE4994:
 3741              		.weak	_ZN7daisysp9DelayLineIfLj5000EEC1Ev
 3742              		.thumb_set _ZN7daisysp9DelayLineIfLj5000EEC1Ev,_ZN7daisysp9DelayLineIfLj5000EEC2Ev
 3743              		.section	.text._ZN7daisysp9DelayLineIfLj1EEC2Ev,"axG",%progbits,_ZN7daisysp9DelayLineIfLj1EEC5Ev,c
 3744              		.align	1
 3745              		.weak	_ZN7daisysp9DelayLineIfLj1EEC2Ev
 3746              		.syntax unified
 3747              		.thumb
 3748              		.thumb_func
 3750              	_ZN7daisysp9DelayLineIfLj1EEC2Ev:
 3751              	.LFB4997:
 3752              		.loc 19 31 5
 3753              		.cfi_startproc
 3754              		@ args = 0, pretend = 0, frame = 8
 3755              		@ frame_needed = 1, uses_anonymous_args = 0
 3756              		@ link register save eliminated.
 3757 0000 80B4     		push	{r7}
 3758              		.cfi_def_cfa_offset 4
 3759              		.cfi_offset 7, -4
 3760 0002 83B0     		sub	sp, sp, #12
 3761              		.cfi_def_cfa_offset 16
 3762 0004 00AF     		add	r7, sp, #0
 3763              		.cfi_def_cfa_register 7
 3764 0006 7860     		str	r0, [r7, #4]
 3765              		.loc 19 31 18
 3766 0008 7B68     		ldr	r3, [r7, #4]
 3767 000a 1846     		mov	r0, r3
 3768 000c 0C37     		adds	r7, r7, #12
 3769              		.cfi_def_cfa_offset 4
 3770 000e BD46     		mov	sp, r7
 3771              		.cfi_def_cfa_register 13
 3772              		@ sp needed
 3773 0010 5DF8047B 		ldr	r7, [sp], #4
 3774              		.cfi_restore 7
 3775              		.cfi_def_cfa_offset 0
 3776 0014 7047     		bx	lr
 3777              		.cfi_endproc
 3778              	.LFE4997:
 3780              		.weak	_ZN7daisysp9DelayLineIfLj1EEC1Ev
 3781              		.thumb_set _ZN7daisysp9DelayLineIfLj1EEC1Ev,_ZN7daisysp9DelayLineIfLj1EEC2Ev
 3782              		.section	.text._ZN7daisysp9DelayLineIfLj558EEC2Ev,"axG",%progbits,_ZN7daisysp9DelayLineIfLj558EEC5
 3783              		.align	1
 3784              		.weak	_ZN7daisysp9DelayLineIfLj558EEC2Ev
 3785              		.syntax unified
 3786              		.thumb
 3787              		.thumb_func
 3789              	_ZN7daisysp9DelayLineIfLj558EEC2Ev:
 3790              	.LFB5000:
 3791              		.loc 19 31 5
 3792              		.cfi_startproc
 3793              		@ args = 0, pretend = 0, frame = 8
ARM GAS  /var/folders/1_/rgbtf7293t93c5kflb58xcy40000gn/T//ccMetEze.s 			page 104


 3794              		@ frame_needed = 1, uses_anonymous_args = 0
 3795              		@ link register save eliminated.
 3796 0000 80B4     		push	{r7}
 3797              		.cfi_def_cfa_offset 4
 3798              		.cfi_offset 7, -4
 3799 0002 83B0     		sub	sp, sp, #12
 3800              		.cfi_def_cfa_offset 16
 3801 0004 00AF     		add	r7, sp, #0
 3802              		.cfi_def_cfa_register 7
 3803 0006 7860     		str	r0, [r7, #4]
 3804              		.loc 19 31 18
 3805 0008 7B68     		ldr	r3, [r7, #4]
 3806 000a 1846     		mov	r0, r3
 3807 000c 0C37     		adds	r7, r7, #12
 3808              		.cfi_def_cfa_offset 4
 3809 000e BD46     		mov	sp, r7
 3810              		.cfi_def_cfa_register 13
 3811              		@ sp needed
 3812 0010 5DF8047B 		ldr	r7, [sp], #4
 3813              		.cfi_restore 7
 3814              		.cfi_def_cfa_offset 0
 3815 0014 7047     		bx	lr
 3816              		.cfi_endproc
 3817              	.LFE5000:
 3819              		.weak	_ZN7daisysp9DelayLineIfLj558EEC1Ev
 3820              		.thumb_set _ZN7daisysp9DelayLineIfLj558EEC1Ev,_ZN7daisysp9DelayLineIfLj558EEC2Ev
 3821              		.section	.text._ZNK7daisysp9DelayLineIfLj5000EE4ReadEv,"axG",%progbits,_ZNK7daisysp9DelayLineIfLj5
 3822              		.align	1
 3823              		.weak	_ZNK7daisysp9DelayLineIfLj5000EE4ReadEv
 3824              		.syntax unified
 3825              		.thumb
 3826              		.thumb_func
 3828              	_ZNK7daisysp9DelayLineIfLj5000EE4ReadEv:
 3829              	.LFB5002:
  32:../DaisyExamples/DaisySP//Source/Utility/delayline.h ****     ~DelayLine() {}
  33:../DaisyExamples/DaisySP//Source/Utility/delayline.h ****     /** initializes the delay line by clearing the values within, and setting delay to 1 sample.
  34:../DaisyExamples/DaisySP//Source/Utility/delayline.h ****     */
  35:../DaisyExamples/DaisySP//Source/Utility/delayline.h ****     void Init() { Reset(); }
  36:../DaisyExamples/DaisySP//Source/Utility/delayline.h ****     /** clears buffer, sets write ptr to 0, and delay to 1 sample.
  37:../DaisyExamples/DaisySP//Source/Utility/delayline.h ****     */
  38:../DaisyExamples/DaisySP//Source/Utility/delayline.h ****     void Reset()
  39:../DaisyExamples/DaisySP//Source/Utility/delayline.h ****     {
  40:../DaisyExamples/DaisySP//Source/Utility/delayline.h ****         for(size_t i = 0; i < max_size; i++)
  41:../DaisyExamples/DaisySP//Source/Utility/delayline.h ****         {
  42:../DaisyExamples/DaisySP//Source/Utility/delayline.h ****             line_[i] = T(0);
  43:../DaisyExamples/DaisySP//Source/Utility/delayline.h ****         }
  44:../DaisyExamples/DaisySP//Source/Utility/delayline.h ****         write_ptr_ = 0;
  45:../DaisyExamples/DaisySP//Source/Utility/delayline.h ****         delay_     = 1;
  46:../DaisyExamples/DaisySP//Source/Utility/delayline.h ****     }
  47:../DaisyExamples/DaisySP//Source/Utility/delayline.h **** 
  48:../DaisyExamples/DaisySP//Source/Utility/delayline.h ****     /** sets the delay time in samples
  49:../DaisyExamples/DaisySP//Source/Utility/delayline.h ****         If a float is passed in, a fractional component will be calculated for interpolating the de
  50:../DaisyExamples/DaisySP//Source/Utility/delayline.h ****     */
  51:../DaisyExamples/DaisySP//Source/Utility/delayline.h ****     inline void SetDelay(size_t delay)
  52:../DaisyExamples/DaisySP//Source/Utility/delayline.h ****     {
  53:../DaisyExamples/DaisySP//Source/Utility/delayline.h ****         frac_  = 0.0f;
  54:../DaisyExamples/DaisySP//Source/Utility/delayline.h ****         delay_ = delay < max_size ? delay : max_size - 1;
ARM GAS  /var/folders/1_/rgbtf7293t93c5kflb58xcy40000gn/T//ccMetEze.s 			page 105


  55:../DaisyExamples/DaisySP//Source/Utility/delayline.h ****     }
  56:../DaisyExamples/DaisySP//Source/Utility/delayline.h **** 
  57:../DaisyExamples/DaisySP//Source/Utility/delayline.h ****     /** sets the delay time in samples
  58:../DaisyExamples/DaisySP//Source/Utility/delayline.h ****         If a float is passed in, a fractional component will be calculated for interpolating the de
  59:../DaisyExamples/DaisySP//Source/Utility/delayline.h ****     */
  60:../DaisyExamples/DaisySP//Source/Utility/delayline.h ****     inline void SetDelay(float delay)
  61:../DaisyExamples/DaisySP//Source/Utility/delayline.h ****     {
  62:../DaisyExamples/DaisySP//Source/Utility/delayline.h ****         int32_t int_delay = static_cast<int32_t>(delay);
  63:../DaisyExamples/DaisySP//Source/Utility/delayline.h ****         frac_             = delay - static_cast<float>(int_delay);
  64:../DaisyExamples/DaisySP//Source/Utility/delayline.h ****         delay_ = static_cast<size_t>(int_delay) < max_size ? int_delay
  65:../DaisyExamples/DaisySP//Source/Utility/delayline.h ****                                                            : max_size - 1;
  66:../DaisyExamples/DaisySP//Source/Utility/delayline.h ****     }
  67:../DaisyExamples/DaisySP//Source/Utility/delayline.h **** 
  68:../DaisyExamples/DaisySP//Source/Utility/delayline.h ****     /** writes the sample of type T to the delay line, and advances the write ptr
  69:../DaisyExamples/DaisySP//Source/Utility/delayline.h ****     */
  70:../DaisyExamples/DaisySP//Source/Utility/delayline.h ****     inline void Write(const T sample)
  71:../DaisyExamples/DaisySP//Source/Utility/delayline.h ****     {
  72:../DaisyExamples/DaisySP//Source/Utility/delayline.h ****         line_[write_ptr_] = sample;
  73:../DaisyExamples/DaisySP//Source/Utility/delayline.h ****         write_ptr_        = (write_ptr_ - 1 + max_size) % max_size;
  74:../DaisyExamples/DaisySP//Source/Utility/delayline.h ****     }
  75:../DaisyExamples/DaisySP//Source/Utility/delayline.h **** 
  76:../DaisyExamples/DaisySP//Source/Utility/delayline.h ****     /** returns the next sample of type T in the delay line, interpolated if necessary.
  77:../DaisyExamples/DaisySP//Source/Utility/delayline.h ****     */
  78:../DaisyExamples/DaisySP//Source/Utility/delayline.h ****     inline const T Read() const
 3830              		.loc 19 78 20
 3831              		.cfi_startproc
 3832              		@ args = 0, pretend = 0, frame = 16
 3833              		@ frame_needed = 1, uses_anonymous_args = 0
 3834              		@ link register save eliminated.
 3835 0000 80B4     		push	{r7}
 3836              		.cfi_def_cfa_offset 4
 3837              		.cfi_offset 7, -4
 3838 0002 85B0     		sub	sp, sp, #20
 3839              		.cfi_def_cfa_offset 24
 3840 0004 00AF     		add	r7, sp, #0
 3841              		.cfi_def_cfa_register 7
 3842 0006 7860     		str	r0, [r7, #4]
  79:../DaisyExamples/DaisySP//Source/Utility/delayline.h ****     {
  80:../DaisyExamples/DaisySP//Source/Utility/delayline.h ****         T a = line_[(write_ptr_ + delay_) % max_size];
 3843              		.loc 19 80 22
 3844 0008 7B68     		ldr	r3, [r7, #4]
 3845 000a 5A68     		ldr	r2, [r3, #4]
 3846              		.loc 19 80 35
 3847 000c 7B68     		ldr	r3, [r7, #4]
 3848 000e 9B68     		ldr	r3, [r3, #8]
 3849              		.loc 19 80 33
 3850 0010 1A44     		add	r2, r2, r3
 3851              		.loc 19 80 43
 3852 0012 1E4B     		ldr	r3, .L107
 3853 0014 A3FB0213 		umull	r1, r3, r3, r2
 3854 0018 1B0B     		lsrs	r3, r3, #12
 3855 001a 41F28831 		movw	r1, #5000
 3856 001e 01FB03F3 		mul	r3, r1, r3
 3857 0022 D31A     		subs	r3, r2, r3
 3858              		.loc 19 80 11
 3859 0024 7A68     		ldr	r2, [r7, #4]
 3860 0026 0233     		adds	r3, r3, #2
ARM GAS  /var/folders/1_/rgbtf7293t93c5kflb58xcy40000gn/T//ccMetEze.s 			page 106


 3861 0028 9B00     		lsls	r3, r3, #2
 3862 002a 1344     		add	r3, r3, r2
 3863 002c 0433     		adds	r3, r3, #4
 3864 002e 1B68     		ldr	r3, [r3]	@ float
 3865 0030 FB60     		str	r3, [r7, #12]	@ float
  81:../DaisyExamples/DaisySP//Source/Utility/delayline.h ****         T b = line_[(write_ptr_ + delay_ + 1) % max_size];
 3866              		.loc 19 81 22
 3867 0032 7B68     		ldr	r3, [r7, #4]
 3868 0034 5A68     		ldr	r2, [r3, #4]
 3869              		.loc 19 81 35
 3870 0036 7B68     		ldr	r3, [r7, #4]
 3871 0038 9B68     		ldr	r3, [r3, #8]
 3872              		.loc 19 81 33
 3873 003a 1344     		add	r3, r3, r2
 3874              		.loc 19 81 42
 3875 003c 5A1C     		adds	r2, r3, #1
 3876              		.loc 19 81 47
 3877 003e 134B     		ldr	r3, .L107
 3878 0040 A3FB0213 		umull	r1, r3, r3, r2
 3879 0044 1B0B     		lsrs	r3, r3, #12
 3880 0046 41F28831 		movw	r1, #5000
 3881 004a 01FB03F3 		mul	r3, r1, r3
 3882 004e D31A     		subs	r3, r2, r3
 3883              		.loc 19 81 11
 3884 0050 7A68     		ldr	r2, [r7, #4]
 3885 0052 0233     		adds	r3, r3, #2
 3886 0054 9B00     		lsls	r3, r3, #2
 3887 0056 1344     		add	r3, r3, r2
 3888 0058 0433     		adds	r3, r3, #4
 3889 005a 1B68     		ldr	r3, [r3]	@ float
 3890 005c BB60     		str	r3, [r7, #8]	@ float
  82:../DaisyExamples/DaisySP//Source/Utility/delayline.h ****         return a + (b - a) * frac_;
 3891              		.loc 19 82 23
 3892 005e 97ED027A 		vldr.32	s14, [r7, #8]
 3893 0062 D7ED037A 		vldr.32	s15, [r7, #12]
 3894 0066 37EE677A 		vsub.f32	s14, s14, s15
 3895              		.loc 19 82 30
 3896 006a 7B68     		ldr	r3, [r7, #4]
 3897 006c D3ED007A 		vldr.32	s15, [r3]
 3898              		.loc 19 82 28
 3899 0070 27EE277A 		vmul.f32	s14, s14, s15
 3900              		.loc 19 82 30
 3901 0074 D7ED037A 		vldr.32	s15, [r7, #12]
 3902 0078 77EE277A 		vadd.f32	s15, s14, s15
  83:../DaisyExamples/DaisySP//Source/Utility/delayline.h ****     }
 3903              		.loc 19 83 5
 3904 007c B0EE670A 		vmov.f32	s0, s15
 3905 0080 1437     		adds	r7, r7, #20
 3906              		.cfi_def_cfa_offset 4
 3907 0082 BD46     		mov	sp, r7
 3908              		.cfi_def_cfa_register 13
 3909              		@ sp needed
 3910 0084 5DF8047B 		ldr	r7, [sp], #4
 3911              		.cfi_restore 7
 3912              		.cfi_def_cfa_offset 0
 3913 0088 7047     		bx	lr
 3914              	.L108:
ARM GAS  /var/folders/1_/rgbtf7293t93c5kflb58xcy40000gn/T//ccMetEze.s 			page 107


 3915 008a 00BF     		.align	2
 3916              	.L107:
 3917 008c 5917B7D1 		.word	-776530087
 3918              		.cfi_endproc
 3919              	.LFE5002:
 3921              		.section	.text._ZNK7daisysp9DelayLineIfLj1EE4ReadEv,"axG",%progbits,_ZNK7daisysp9DelayLineIfLj1EE4
 3922              		.align	1
 3923              		.weak	_ZNK7daisysp9DelayLineIfLj1EE4ReadEv
 3924              		.syntax unified
 3925              		.thumb
 3926              		.thumb_func
 3928              	_ZNK7daisysp9DelayLineIfLj1EE4ReadEv:
 3929              	.LFB5003:
  78:../DaisyExamples/DaisySP//Source/Utility/delayline.h ****     {
 3930              		.loc 19 78 20
 3931              		.cfi_startproc
 3932              		@ args = 0, pretend = 0, frame = 16
 3933              		@ frame_needed = 1, uses_anonymous_args = 0
 3934              		@ link register save eliminated.
 3935 0000 80B4     		push	{r7}
 3936              		.cfi_def_cfa_offset 4
 3937              		.cfi_offset 7, -4
 3938 0002 85B0     		sub	sp, sp, #20
 3939              		.cfi_def_cfa_offset 24
 3940 0004 00AF     		add	r7, sp, #0
 3941              		.cfi_def_cfa_register 7
 3942 0006 7860     		str	r0, [r7, #4]
  80:../DaisyExamples/DaisySP//Source/Utility/delayline.h ****         T b = line_[(write_ptr_ + delay_ + 1) % max_size];
 3943              		.loc 19 80 11
 3944 0008 7B68     		ldr	r3, [r7, #4]
 3945 000a DB68     		ldr	r3, [r3, #12]	@ float
 3946 000c FB60     		str	r3, [r7, #12]	@ float
  81:../DaisyExamples/DaisySP//Source/Utility/delayline.h ****         return a + (b - a) * frac_;
 3947              		.loc 19 81 11
 3948 000e 7B68     		ldr	r3, [r7, #4]
 3949 0010 DB68     		ldr	r3, [r3, #12]	@ float
 3950 0012 BB60     		str	r3, [r7, #8]	@ float
  82:../DaisyExamples/DaisySP//Source/Utility/delayline.h ****     }
 3951              		.loc 19 82 23
 3952 0014 97ED027A 		vldr.32	s14, [r7, #8]
 3953 0018 D7ED037A 		vldr.32	s15, [r7, #12]
 3954 001c 37EE677A 		vsub.f32	s14, s14, s15
  82:../DaisyExamples/DaisySP//Source/Utility/delayline.h ****     }
 3955              		.loc 19 82 30
 3956 0020 7B68     		ldr	r3, [r7, #4]
 3957 0022 D3ED007A 		vldr.32	s15, [r3]
  82:../DaisyExamples/DaisySP//Source/Utility/delayline.h ****     }
 3958              		.loc 19 82 28
 3959 0026 27EE277A 		vmul.f32	s14, s14, s15
  82:../DaisyExamples/DaisySP//Source/Utility/delayline.h ****     }
 3960              		.loc 19 82 30
 3961 002a D7ED037A 		vldr.32	s15, [r7, #12]
 3962 002e 77EE277A 		vadd.f32	s15, s14, s15
 3963              		.loc 19 83 5
 3964 0032 B0EE670A 		vmov.f32	s0, s15
 3965 0036 1437     		adds	r7, r7, #20
 3966              		.cfi_def_cfa_offset 4
ARM GAS  /var/folders/1_/rgbtf7293t93c5kflb58xcy40000gn/T//ccMetEze.s 			page 108


 3967 0038 BD46     		mov	sp, r7
 3968              		.cfi_def_cfa_register 13
 3969              		@ sp needed
 3970 003a 5DF8047B 		ldr	r7, [sp], #4
 3971              		.cfi_restore 7
 3972              		.cfi_def_cfa_offset 0
 3973 003e 7047     		bx	lr
 3974              		.cfi_endproc
 3975              	.LFE5003:
 3977              		.section	.text._ZN7daisysp9DelayLineIfLj1EE5WriteEf,"axG",%progbits,_ZN7daisysp9DelayLineIfLj1EE5W
 3978              		.align	1
 3979              		.weak	_ZN7daisysp9DelayLineIfLj1EE5WriteEf
 3980              		.syntax unified
 3981              		.thumb
 3982              		.thumb_func
 3984              	_ZN7daisysp9DelayLineIfLj1EE5WriteEf:
 3985              	.LFB5004:
  70:../DaisyExamples/DaisySP//Source/Utility/delayline.h ****     {
 3986              		.loc 19 70 17
 3987              		.cfi_startproc
 3988              		@ args = 0, pretend = 0, frame = 8
 3989              		@ frame_needed = 1, uses_anonymous_args = 0
 3990              		@ link register save eliminated.
 3991 0000 80B4     		push	{r7}
 3992              		.cfi_def_cfa_offset 4
 3993              		.cfi_offset 7, -4
 3994 0002 83B0     		sub	sp, sp, #12
 3995              		.cfi_def_cfa_offset 16
 3996 0004 00AF     		add	r7, sp, #0
 3997              		.cfi_def_cfa_register 7
 3998 0006 7860     		str	r0, [r7, #4]
 3999 0008 87ED000A 		vstr.32	s0, [r7]
  72:../DaisyExamples/DaisySP//Source/Utility/delayline.h ****         write_ptr_        = (write_ptr_ - 1 + max_size) % max_size;
 4000              		.loc 19 72 15
 4001 000c 7B68     		ldr	r3, [r7, #4]
 4002 000e 5B68     		ldr	r3, [r3, #4]
  72:../DaisyExamples/DaisySP//Source/Utility/delayline.h ****         write_ptr_        = (write_ptr_ - 1 + max_size) % max_size;
 4003              		.loc 19 72 27
 4004 0010 7A68     		ldr	r2, [r7, #4]
 4005 0012 0233     		adds	r3, r3, #2
 4006 0014 9B00     		lsls	r3, r3, #2
 4007 0016 1344     		add	r3, r3, r2
 4008 0018 0433     		adds	r3, r3, #4
 4009 001a 3A68     		ldr	r2, [r7]	@ float
 4010 001c 1A60     		str	r2, [r3]	@ float
  73:../DaisyExamples/DaisySP//Source/Utility/delayline.h ****     }
 4011              		.loc 19 73 27
 4012 001e 7B68     		ldr	r3, [r7, #4]
 4013 0020 0022     		movs	r2, #0
 4014 0022 5A60     		str	r2, [r3, #4]
  74:../DaisyExamples/DaisySP//Source/Utility/delayline.h **** 
 4015              		.loc 19 74 5
 4016 0024 00BF     		nop
 4017 0026 0C37     		adds	r7, r7, #12
 4018              		.cfi_def_cfa_offset 4
 4019 0028 BD46     		mov	sp, r7
 4020              		.cfi_def_cfa_register 13
ARM GAS  /var/folders/1_/rgbtf7293t93c5kflb58xcy40000gn/T//ccMetEze.s 			page 109


 4021              		@ sp needed
 4022 002a 5DF8047B 		ldr	r7, [sp], #4
 4023              		.cfi_restore 7
 4024              		.cfi_def_cfa_offset 0
 4025 002e 7047     		bx	lr
 4026              		.cfi_endproc
 4027              	.LFE5004:
 4029              		.section	.text._ZN7daisysp9DelayLineIfLj5000EE5WriteEf,"axG",%progbits,_ZN7daisysp9DelayLineIfLj50
 4030              		.align	1
 4031              		.weak	_ZN7daisysp9DelayLineIfLj5000EE5WriteEf
 4032              		.syntax unified
 4033              		.thumb
 4034              		.thumb_func
 4036              	_ZN7daisysp9DelayLineIfLj5000EE5WriteEf:
 4037              	.LFB5005:
  70:../DaisyExamples/DaisySP//Source/Utility/delayline.h ****     {
 4038              		.loc 19 70 17
 4039              		.cfi_startproc
 4040              		@ args = 0, pretend = 0, frame = 8
 4041              		@ frame_needed = 1, uses_anonymous_args = 0
 4042              		@ link register save eliminated.
 4043 0000 80B4     		push	{r7}
 4044              		.cfi_def_cfa_offset 4
 4045              		.cfi_offset 7, -4
 4046 0002 83B0     		sub	sp, sp, #12
 4047              		.cfi_def_cfa_offset 16
 4048 0004 00AF     		add	r7, sp, #0
 4049              		.cfi_def_cfa_register 7
 4050 0006 7860     		str	r0, [r7, #4]
 4051 0008 87ED000A 		vstr.32	s0, [r7]
  72:../DaisyExamples/DaisySP//Source/Utility/delayline.h ****         write_ptr_        = (write_ptr_ - 1 + max_size) % max_size;
 4052              		.loc 19 72 15
 4053 000c 7B68     		ldr	r3, [r7, #4]
 4054 000e 5B68     		ldr	r3, [r3, #4]
  72:../DaisyExamples/DaisySP//Source/Utility/delayline.h ****         write_ptr_        = (write_ptr_ - 1 + max_size) % max_size;
 4055              		.loc 19 72 27
 4056 0010 7A68     		ldr	r2, [r7, #4]
 4057 0012 0233     		adds	r3, r3, #2
 4058 0014 9B00     		lsls	r3, r3, #2
 4059 0016 1344     		add	r3, r3, r2
 4060 0018 0433     		adds	r3, r3, #4
 4061 001a 3A68     		ldr	r2, [r7]	@ float
 4062 001c 1A60     		str	r2, [r3]	@ float
  73:../DaisyExamples/DaisySP//Source/Utility/delayline.h ****     }
 4063              		.loc 19 73 30
 4064 001e 7B68     		ldr	r3, [r7, #4]
 4065 0020 5A68     		ldr	r2, [r3, #4]
  73:../DaisyExamples/DaisySP//Source/Utility/delayline.h ****     }
 4066              		.loc 19 73 45
 4067 0022 41F28733 		movw	r3, #4999
 4068 0026 1344     		add	r3, r3, r2
  73:../DaisyExamples/DaisySP//Source/Utility/delayline.h ****     }
 4069              		.loc 19 73 57
 4070 0028 084A     		ldr	r2, .L113
 4071 002a A2FB0312 		umull	r1, r2, r2, r3
 4072 002e 120B     		lsrs	r2, r2, #12
 4073 0030 41F28831 		movw	r1, #5000
ARM GAS  /var/folders/1_/rgbtf7293t93c5kflb58xcy40000gn/T//ccMetEze.s 			page 110


 4074 0034 01FB02F2 		mul	r2, r1, r2
 4075 0038 9A1A     		subs	r2, r3, r2
  73:../DaisyExamples/DaisySP//Source/Utility/delayline.h ****     }
 4076              		.loc 19 73 27
 4077 003a 7B68     		ldr	r3, [r7, #4]
 4078 003c 5A60     		str	r2, [r3, #4]
  74:../DaisyExamples/DaisySP//Source/Utility/delayline.h **** 
 4079              		.loc 19 74 5
 4080 003e 00BF     		nop
 4081 0040 0C37     		adds	r7, r7, #12
 4082              		.cfi_def_cfa_offset 4
 4083 0042 BD46     		mov	sp, r7
 4084              		.cfi_def_cfa_register 13
 4085              		@ sp needed
 4086 0044 5DF8047B 		ldr	r7, [sp], #4
 4087              		.cfi_restore 7
 4088              		.cfi_def_cfa_offset 0
 4089 0048 7047     		bx	lr
 4090              	.L114:
 4091 004a 00BF     		.align	2
 4092              	.L113:
 4093 004c 5917B7D1 		.word	-776530087
 4094              		.cfi_endproc
 4095              	.LFE5005:
 4097              		.section	.text._ZNK7daisysp9DelayLineIfLj558EE4ReadEv,"axG",%progbits,_ZNK7daisysp9DelayLineIfLj55
 4098              		.align	1
 4099              		.weak	_ZNK7daisysp9DelayLineIfLj558EE4ReadEv
 4100              		.syntax unified
 4101              		.thumb
 4102              		.thumb_func
 4104              	_ZNK7daisysp9DelayLineIfLj558EE4ReadEv:
 4105              	.LFB5006:
  78:../DaisyExamples/DaisySP//Source/Utility/delayline.h ****     {
 4106              		.loc 19 78 20
 4107              		.cfi_startproc
 4108              		@ args = 0, pretend = 0, frame = 16
 4109              		@ frame_needed = 1, uses_anonymous_args = 0
 4110              		@ link register save eliminated.
 4111 0000 80B4     		push	{r7}
 4112              		.cfi_def_cfa_offset 4
 4113              		.cfi_offset 7, -4
 4114 0002 85B0     		sub	sp, sp, #20
 4115              		.cfi_def_cfa_offset 24
 4116 0004 00AF     		add	r7, sp, #0
 4117              		.cfi_def_cfa_register 7
 4118 0006 7860     		str	r0, [r7, #4]
  80:../DaisyExamples/DaisySP//Source/Utility/delayline.h ****         T b = line_[(write_ptr_ + delay_ + 1) % max_size];
 4119              		.loc 19 80 22
 4120 0008 7B68     		ldr	r3, [r7, #4]
 4121 000a 5A68     		ldr	r2, [r3, #4]
  80:../DaisyExamples/DaisySP//Source/Utility/delayline.h ****         T b = line_[(write_ptr_ + delay_ + 1) % max_size];
 4122              		.loc 19 80 35
 4123 000c 7B68     		ldr	r3, [r7, #4]
 4124 000e 9B68     		ldr	r3, [r3, #8]
  80:../DaisyExamples/DaisySP//Source/Utility/delayline.h ****         T b = line_[(write_ptr_ + delay_ + 1) % max_size];
 4125              		.loc 19 80 33
 4126 0010 1A44     		add	r2, r2, r3
ARM GAS  /var/folders/1_/rgbtf7293t93c5kflb58xcy40000gn/T//ccMetEze.s 			page 111


  80:../DaisyExamples/DaisySP//Source/Utility/delayline.h ****         T b = line_[(write_ptr_ + delay_ + 1) % max_size];
 4127              		.loc 19 80 43
 4128 0012 1E4B     		ldr	r3, .L117
 4129 0014 A3FB0213 		umull	r1, r3, r3, r2
 4130 0018 DB09     		lsrs	r3, r3, #7
 4131 001a 40F22E21 		movw	r1, #558
 4132 001e 01FB03F3 		mul	r3, r1, r3
 4133 0022 D31A     		subs	r3, r2, r3
  80:../DaisyExamples/DaisySP//Source/Utility/delayline.h ****         T b = line_[(write_ptr_ + delay_ + 1) % max_size];
 4134              		.loc 19 80 11
 4135 0024 7A68     		ldr	r2, [r7, #4]
 4136 0026 0233     		adds	r3, r3, #2
 4137 0028 9B00     		lsls	r3, r3, #2
 4138 002a 1344     		add	r3, r3, r2
 4139 002c 0433     		adds	r3, r3, #4
 4140 002e 1B68     		ldr	r3, [r3]	@ float
 4141 0030 FB60     		str	r3, [r7, #12]	@ float
  81:../DaisyExamples/DaisySP//Source/Utility/delayline.h ****         return a + (b - a) * frac_;
 4142              		.loc 19 81 22
 4143 0032 7B68     		ldr	r3, [r7, #4]
 4144 0034 5A68     		ldr	r2, [r3, #4]
  81:../DaisyExamples/DaisySP//Source/Utility/delayline.h ****         return a + (b - a) * frac_;
 4145              		.loc 19 81 35
 4146 0036 7B68     		ldr	r3, [r7, #4]
 4147 0038 9B68     		ldr	r3, [r3, #8]
  81:../DaisyExamples/DaisySP//Source/Utility/delayline.h ****         return a + (b - a) * frac_;
 4148              		.loc 19 81 33
 4149 003a 1344     		add	r3, r3, r2
  81:../DaisyExamples/DaisySP//Source/Utility/delayline.h ****         return a + (b - a) * frac_;
 4150              		.loc 19 81 42
 4151 003c 5A1C     		adds	r2, r3, #1
  81:../DaisyExamples/DaisySP//Source/Utility/delayline.h ****         return a + (b - a) * frac_;
 4152              		.loc 19 81 47
 4153 003e 134B     		ldr	r3, .L117
 4154 0040 A3FB0213 		umull	r1, r3, r3, r2
 4155 0044 DB09     		lsrs	r3, r3, #7
 4156 0046 40F22E21 		movw	r1, #558
 4157 004a 01FB03F3 		mul	r3, r1, r3
 4158 004e D31A     		subs	r3, r2, r3
  81:../DaisyExamples/DaisySP//Source/Utility/delayline.h ****         return a + (b - a) * frac_;
 4159              		.loc 19 81 11
 4160 0050 7A68     		ldr	r2, [r7, #4]
 4161 0052 0233     		adds	r3, r3, #2
 4162 0054 9B00     		lsls	r3, r3, #2
 4163 0056 1344     		add	r3, r3, r2
 4164 0058 0433     		adds	r3, r3, #4
 4165 005a 1B68     		ldr	r3, [r3]	@ float
 4166 005c BB60     		str	r3, [r7, #8]	@ float
  82:../DaisyExamples/DaisySP//Source/Utility/delayline.h ****     }
 4167              		.loc 19 82 23
 4168 005e 97ED027A 		vldr.32	s14, [r7, #8]
 4169 0062 D7ED037A 		vldr.32	s15, [r7, #12]
 4170 0066 37EE677A 		vsub.f32	s14, s14, s15
  82:../DaisyExamples/DaisySP//Source/Utility/delayline.h ****     }
 4171              		.loc 19 82 30
 4172 006a 7B68     		ldr	r3, [r7, #4]
 4173 006c D3ED007A 		vldr.32	s15, [r3]
ARM GAS  /var/folders/1_/rgbtf7293t93c5kflb58xcy40000gn/T//ccMetEze.s 			page 112


  82:../DaisyExamples/DaisySP//Source/Utility/delayline.h ****     }
 4174              		.loc 19 82 28
 4175 0070 27EE277A 		vmul.f32	s14, s14, s15
  82:../DaisyExamples/DaisySP//Source/Utility/delayline.h ****     }
 4176              		.loc 19 82 30
 4177 0074 D7ED037A 		vldr.32	s15, [r7, #12]
 4178 0078 77EE277A 		vadd.f32	s15, s14, s15
 4179              		.loc 19 83 5
 4180 007c B0EE670A 		vmov.f32	s0, s15
 4181 0080 1437     		adds	r7, r7, #20
 4182              		.cfi_def_cfa_offset 4
 4183 0082 BD46     		mov	sp, r7
 4184              		.cfi_def_cfa_register 13
 4185              		@ sp needed
 4186 0084 5DF8047B 		ldr	r7, [sp], #4
 4187              		.cfi_restore 7
 4188              		.cfi_def_cfa_offset 0
 4189 0088 7047     		bx	lr
 4190              	.L118:
 4191 008a 00BF     		.align	2
 4192              	.L117:
 4193 008c 0159B93A 		.word	985225473
 4194              		.cfi_endproc
 4195              	.LFE5006:
 4197              		.section	.text._ZN7daisysp9DelayLineIfLj558EE5WriteEf,"axG",%progbits,_ZN7daisysp9DelayLineIfLj558
 4198              		.align	1
 4199              		.weak	_ZN7daisysp9DelayLineIfLj558EE5WriteEf
 4200              		.syntax unified
 4201              		.thumb
 4202              		.thumb_func
 4204              	_ZN7daisysp9DelayLineIfLj558EE5WriteEf:
 4205              	.LFB5007:
  70:../DaisyExamples/DaisySP//Source/Utility/delayline.h ****     {
 4206              		.loc 19 70 17
 4207              		.cfi_startproc
 4208              		@ args = 0, pretend = 0, frame = 8
 4209              		@ frame_needed = 1, uses_anonymous_args = 0
 4210              		@ link register save eliminated.
 4211 0000 80B4     		push	{r7}
 4212              		.cfi_def_cfa_offset 4
 4213              		.cfi_offset 7, -4
 4214 0002 83B0     		sub	sp, sp, #12
 4215              		.cfi_def_cfa_offset 16
 4216 0004 00AF     		add	r7, sp, #0
 4217              		.cfi_def_cfa_register 7
 4218 0006 7860     		str	r0, [r7, #4]
 4219 0008 87ED000A 		vstr.32	s0, [r7]
  72:../DaisyExamples/DaisySP//Source/Utility/delayline.h ****         write_ptr_        = (write_ptr_ - 1 + max_size) % max_size;
 4220              		.loc 19 72 15
 4221 000c 7B68     		ldr	r3, [r7, #4]
 4222 000e 5B68     		ldr	r3, [r3, #4]
  72:../DaisyExamples/DaisySP//Source/Utility/delayline.h ****         write_ptr_        = (write_ptr_ - 1 + max_size) % max_size;
 4223              		.loc 19 72 27
 4224 0010 7A68     		ldr	r2, [r7, #4]
 4225 0012 0233     		adds	r3, r3, #2
 4226 0014 9B00     		lsls	r3, r3, #2
 4227 0016 1344     		add	r3, r3, r2
ARM GAS  /var/folders/1_/rgbtf7293t93c5kflb58xcy40000gn/T//ccMetEze.s 			page 113


 4228 0018 0433     		adds	r3, r3, #4
 4229 001a 3A68     		ldr	r2, [r7]	@ float
 4230 001c 1A60     		str	r2, [r3]	@ float
  73:../DaisyExamples/DaisySP//Source/Utility/delayline.h ****     }
 4231              		.loc 19 73 30
 4232 001e 7B68     		ldr	r3, [r7, #4]
 4233 0020 5B68     		ldr	r3, [r3, #4]
  73:../DaisyExamples/DaisySP//Source/Utility/delayline.h ****     }
 4234              		.loc 19 73 45
 4235 0022 03F22D22 		addw	r2, r3, #557
  73:../DaisyExamples/DaisySP//Source/Utility/delayline.h ****     }
 4236              		.loc 19 73 57
 4237 0026 084B     		ldr	r3, .L120
 4238 0028 A3FB0213 		umull	r1, r3, r3, r2
 4239 002c DB09     		lsrs	r3, r3, #7
 4240 002e 40F22E21 		movw	r1, #558
 4241 0032 01FB03F3 		mul	r3, r1, r3
 4242 0036 D31A     		subs	r3, r2, r3
  73:../DaisyExamples/DaisySP//Source/Utility/delayline.h ****     }
 4243              		.loc 19 73 27
 4244 0038 7A68     		ldr	r2, [r7, #4]
 4245 003a 5360     		str	r3, [r2, #4]
  74:../DaisyExamples/DaisySP//Source/Utility/delayline.h **** 
 4246              		.loc 19 74 5
 4247 003c 00BF     		nop
 4248 003e 0C37     		adds	r7, r7, #12
 4249              		.cfi_def_cfa_offset 4
 4250 0040 BD46     		mov	sp, r7
 4251              		.cfi_def_cfa_register 13
 4252              		@ sp needed
 4253 0042 5DF8047B 		ldr	r7, [sp], #4
 4254              		.cfi_restore 7
 4255              		.cfi_def_cfa_offset 0
 4256 0046 7047     		bx	lr
 4257              	.L121:
 4258              		.align	2
 4259              	.L120:
 4260 0048 0159B93A 		.word	985225473
 4261              		.cfi_endproc
 4262              	.LFE5007:
 4264              		.section	.text._ZN7daisysp9DelayLineIfLj5000EE8SetDelayEj,"axG",%progbits,_ZN7daisysp9DelayLineIfL
 4265              		.align	1
 4266              		.weak	_ZN7daisysp9DelayLineIfLj5000EE8SetDelayEj
 4267              		.syntax unified
 4268              		.thumb
 4269              		.thumb_func
 4271              	_ZN7daisysp9DelayLineIfLj5000EE8SetDelayEj:
 4272              	.LFB5008:
  51:../DaisyExamples/DaisySP//Source/Utility/delayline.h ****     {
 4273              		.loc 19 51 17
 4274              		.cfi_startproc
 4275              		@ args = 0, pretend = 0, frame = 8
 4276              		@ frame_needed = 1, uses_anonymous_args = 0
 4277              		@ link register save eliminated.
 4278 0000 80B4     		push	{r7}
 4279              		.cfi_def_cfa_offset 4
 4280              		.cfi_offset 7, -4
ARM GAS  /var/folders/1_/rgbtf7293t93c5kflb58xcy40000gn/T//ccMetEze.s 			page 114


 4281 0002 83B0     		sub	sp, sp, #12
 4282              		.cfi_def_cfa_offset 16
 4283 0004 00AF     		add	r7, sp, #0
 4284              		.cfi_def_cfa_register 7
 4285 0006 7860     		str	r0, [r7, #4]
 4286 0008 3960     		str	r1, [r7]
  53:../DaisyExamples/DaisySP//Source/Utility/delayline.h ****         delay_ = delay < max_size ? delay : max_size - 1;
 4287              		.loc 19 53 16
 4288 000a 7B68     		ldr	r3, [r7, #4]
 4289 000c 4FF00002 		mov	r2, #0
 4290 0010 1A60     		str	r2, [r3]	@ float
  54:../DaisyExamples/DaisySP//Source/Utility/delayline.h ****     }
 4291              		.loc 19 54 35
 4292 0012 3B68     		ldr	r3, [r7]
 4293 0014 41F28732 		movw	r2, #4999
 4294 0018 9A42     		cmp	r2, r3
 4295 001a 28BF     		it	cs
 4296 001c 1A46     		movcs	r2, r3
  54:../DaisyExamples/DaisySP//Source/Utility/delayline.h ****     }
 4297              		.loc 19 54 16
 4298 001e 7B68     		ldr	r3, [r7, #4]
 4299 0020 9A60     		str	r2, [r3, #8]
  55:../DaisyExamples/DaisySP//Source/Utility/delayline.h **** 
 4300              		.loc 19 55 5
 4301 0022 00BF     		nop
 4302 0024 0C37     		adds	r7, r7, #12
 4303              		.cfi_def_cfa_offset 4
 4304 0026 BD46     		mov	sp, r7
 4305              		.cfi_def_cfa_register 13
 4306              		@ sp needed
 4307 0028 5DF8047B 		ldr	r7, [sp], #4
 4308              		.cfi_restore 7
 4309              		.cfi_def_cfa_offset 0
 4310 002c 7047     		bx	lr
 4311              		.cfi_endproc
 4312              	.LFE5008:
 4314              		.section	.text._ZN7daisysp9DelayLineIfLj1EE4InitEv,"axG",%progbits,_ZN7daisysp9DelayLineIfLj1EE4In
 4315              		.align	1
 4316              		.weak	_ZN7daisysp9DelayLineIfLj1EE4InitEv
 4317              		.syntax unified
 4318              		.thumb
 4319              		.thumb_func
 4321              	_ZN7daisysp9DelayLineIfLj1EE4InitEv:
 4322              	.LFB5009:
  35:../DaisyExamples/DaisySP//Source/Utility/delayline.h ****     /** clears buffer, sets write ptr to 0, and delay to 1 sample.
 4323              		.loc 19 35 10
 4324              		.cfi_startproc
 4325              		@ args = 0, pretend = 0, frame = 8
 4326              		@ frame_needed = 1, uses_anonymous_args = 0
 4327 0000 80B5     		push	{r7, lr}
 4328              		.cfi_def_cfa_offset 8
 4329              		.cfi_offset 7, -8
 4330              		.cfi_offset 14, -4
 4331 0002 82B0     		sub	sp, sp, #8
 4332              		.cfi_def_cfa_offset 16
 4333 0004 00AF     		add	r7, sp, #0
 4334              		.cfi_def_cfa_register 7
ARM GAS  /var/folders/1_/rgbtf7293t93c5kflb58xcy40000gn/T//ccMetEze.s 			page 115


 4335 0006 7860     		str	r0, [r7, #4]
  35:../DaisyExamples/DaisySP//Source/Utility/delayline.h ****     /** clears buffer, sets write ptr to 0, and delay to 1 sample.
 4336              		.loc 19 35 24
 4337 0008 7868     		ldr	r0, [r7, #4]
 4338 000a FFF7FEFF 		bl	_ZN7daisysp9DelayLineIfLj1EE5ResetEv
  35:../DaisyExamples/DaisySP//Source/Utility/delayline.h ****     /** clears buffer, sets write ptr to 0, and delay to 1 sample.
 4339              		.loc 19 35 28
 4340 000e 00BF     		nop
 4341 0010 0837     		adds	r7, r7, #8
 4342              		.cfi_def_cfa_offset 8
 4343 0012 BD46     		mov	sp, r7
 4344              		.cfi_def_cfa_register 13
 4345              		@ sp needed
 4346 0014 80BD     		pop	{r7, pc}
 4347              		.cfi_endproc
 4348              	.LFE5009:
 4350              		.section	.text._ZN7daisysp9DelayLineIfLj1EE8SetDelayEj,"axG",%progbits,_ZN7daisysp9DelayLineIfLj1E
 4351              		.align	1
 4352              		.weak	_ZN7daisysp9DelayLineIfLj1EE8SetDelayEj
 4353              		.syntax unified
 4354              		.thumb
 4355              		.thumb_func
 4357              	_ZN7daisysp9DelayLineIfLj1EE8SetDelayEj:
 4358              	.LFB5010:
  51:../DaisyExamples/DaisySP//Source/Utility/delayline.h ****     {
 4359              		.loc 19 51 17
 4360              		.cfi_startproc
 4361              		@ args = 0, pretend = 0, frame = 8
 4362              		@ frame_needed = 1, uses_anonymous_args = 0
 4363              		@ link register save eliminated.
 4364 0000 80B4     		push	{r7}
 4365              		.cfi_def_cfa_offset 4
 4366              		.cfi_offset 7, -4
 4367 0002 83B0     		sub	sp, sp, #12
 4368              		.cfi_def_cfa_offset 16
 4369 0004 00AF     		add	r7, sp, #0
 4370              		.cfi_def_cfa_register 7
 4371 0006 7860     		str	r0, [r7, #4]
 4372 0008 3960     		str	r1, [r7]
  53:../DaisyExamples/DaisySP//Source/Utility/delayline.h ****         delay_ = delay < max_size ? delay : max_size - 1;
 4373              		.loc 19 53 16
 4374 000a 7B68     		ldr	r3, [r7, #4]
 4375 000c 4FF00002 		mov	r2, #0
 4376 0010 1A60     		str	r2, [r3]	@ float
  54:../DaisyExamples/DaisySP//Source/Utility/delayline.h ****     }
 4377              		.loc 19 54 16
 4378 0012 7B68     		ldr	r3, [r7, #4]
 4379 0014 0022     		movs	r2, #0
 4380 0016 9A60     		str	r2, [r3, #8]
  55:../DaisyExamples/DaisySP//Source/Utility/delayline.h **** 
 4381              		.loc 19 55 5
 4382 0018 00BF     		nop
 4383 001a 0C37     		adds	r7, r7, #12
 4384              		.cfi_def_cfa_offset 4
 4385 001c BD46     		mov	sp, r7
 4386              		.cfi_def_cfa_register 13
 4387              		@ sp needed
ARM GAS  /var/folders/1_/rgbtf7293t93c5kflb58xcy40000gn/T//ccMetEze.s 			page 116


 4388 001e 5DF8047B 		ldr	r7, [sp], #4
 4389              		.cfi_restore 7
 4390              		.cfi_def_cfa_offset 0
 4391 0022 7047     		bx	lr
 4392              		.cfi_endproc
 4393              	.LFE5010:
 4395              		.section	.text._ZN7daisysp9DelayLineIfLj5000EE4InitEv,"axG",%progbits,_ZN7daisysp9DelayLineIfLj500
 4396              		.align	1
 4397              		.weak	_ZN7daisysp9DelayLineIfLj5000EE4InitEv
 4398              		.syntax unified
 4399              		.thumb
 4400              		.thumb_func
 4402              	_ZN7daisysp9DelayLineIfLj5000EE4InitEv:
 4403              	.LFB5011:
  35:../DaisyExamples/DaisySP//Source/Utility/delayline.h ****     /** clears buffer, sets write ptr to 0, and delay to 1 sample.
 4404              		.loc 19 35 10
 4405              		.cfi_startproc
 4406              		@ args = 0, pretend = 0, frame = 8
 4407              		@ frame_needed = 1, uses_anonymous_args = 0
 4408 0000 80B5     		push	{r7, lr}
 4409              		.cfi_def_cfa_offset 8
 4410              		.cfi_offset 7, -8
 4411              		.cfi_offset 14, -4
 4412 0002 82B0     		sub	sp, sp, #8
 4413              		.cfi_def_cfa_offset 16
 4414 0004 00AF     		add	r7, sp, #0
 4415              		.cfi_def_cfa_register 7
 4416 0006 7860     		str	r0, [r7, #4]
  35:../DaisyExamples/DaisySP//Source/Utility/delayline.h ****     /** clears buffer, sets write ptr to 0, and delay to 1 sample.
 4417              		.loc 19 35 24
 4418 0008 7868     		ldr	r0, [r7, #4]
 4419 000a FFF7FEFF 		bl	_ZN7daisysp9DelayLineIfLj5000EE5ResetEv
  35:../DaisyExamples/DaisySP//Source/Utility/delayline.h ****     /** clears buffer, sets write ptr to 0, and delay to 1 sample.
 4420              		.loc 19 35 28
 4421 000e 00BF     		nop
 4422 0010 0837     		adds	r7, r7, #8
 4423              		.cfi_def_cfa_offset 8
 4424 0012 BD46     		mov	sp, r7
 4425              		.cfi_def_cfa_register 13
 4426              		@ sp needed
 4427 0014 80BD     		pop	{r7, pc}
 4428              		.cfi_endproc
 4429              	.LFE5011:
 4431              		.section	.text._ZN7daisysp9DelayLineIfLj558EE4InitEv,"axG",%progbits,_ZN7daisysp9DelayLineIfLj558E
 4432              		.align	1
 4433              		.weak	_ZN7daisysp9DelayLineIfLj558EE4InitEv
 4434              		.syntax unified
 4435              		.thumb
 4436              		.thumb_func
 4438              	_ZN7daisysp9DelayLineIfLj558EE4InitEv:
 4439              	.LFB5012:
  35:../DaisyExamples/DaisySP//Source/Utility/delayline.h ****     /** clears buffer, sets write ptr to 0, and delay to 1 sample.
 4440              		.loc 19 35 10
 4441              		.cfi_startproc
 4442              		@ args = 0, pretend = 0, frame = 8
 4443              		@ frame_needed = 1, uses_anonymous_args = 0
 4444 0000 80B5     		push	{r7, lr}
ARM GAS  /var/folders/1_/rgbtf7293t93c5kflb58xcy40000gn/T//ccMetEze.s 			page 117


 4445              		.cfi_def_cfa_offset 8
 4446              		.cfi_offset 7, -8
 4447              		.cfi_offset 14, -4
 4448 0002 82B0     		sub	sp, sp, #8
 4449              		.cfi_def_cfa_offset 16
 4450 0004 00AF     		add	r7, sp, #0
 4451              		.cfi_def_cfa_register 7
 4452 0006 7860     		str	r0, [r7, #4]
  35:../DaisyExamples/DaisySP//Source/Utility/delayline.h ****     /** clears buffer, sets write ptr to 0, and delay to 1 sample.
 4453              		.loc 19 35 24
 4454 0008 7868     		ldr	r0, [r7, #4]
 4455 000a FFF7FEFF 		bl	_ZN7daisysp9DelayLineIfLj558EE5ResetEv
  35:../DaisyExamples/DaisySP//Source/Utility/delayline.h ****     /** clears buffer, sets write ptr to 0, and delay to 1 sample.
 4456              		.loc 19 35 28
 4457 000e 00BF     		nop
 4458 0010 0837     		adds	r7, r7, #8
 4459              		.cfi_def_cfa_offset 8
 4460 0012 BD46     		mov	sp, r7
 4461              		.cfi_def_cfa_register 13
 4462              		@ sp needed
 4463 0014 80BD     		pop	{r7, pc}
 4464              		.cfi_endproc
 4465              	.LFE5012:
 4467              		.section	.text._ZN7daisysp9DelayLineIfLj558EE8SetDelayEj,"axG",%progbits,_ZN7daisysp9DelayLineIfLj
 4468              		.align	1
 4469              		.weak	_ZN7daisysp9DelayLineIfLj558EE8SetDelayEj
 4470              		.syntax unified
 4471              		.thumb
 4472              		.thumb_func
 4474              	_ZN7daisysp9DelayLineIfLj558EE8SetDelayEj:
 4475              	.LFB5013:
  51:../DaisyExamples/DaisySP//Source/Utility/delayline.h ****     {
 4476              		.loc 19 51 17
 4477              		.cfi_startproc
 4478              		@ args = 0, pretend = 0, frame = 8
 4479              		@ frame_needed = 1, uses_anonymous_args = 0
 4480              		@ link register save eliminated.
 4481 0000 80B4     		push	{r7}
 4482              		.cfi_def_cfa_offset 4
 4483              		.cfi_offset 7, -4
 4484 0002 83B0     		sub	sp, sp, #12
 4485              		.cfi_def_cfa_offset 16
 4486 0004 00AF     		add	r7, sp, #0
 4487              		.cfi_def_cfa_register 7
 4488 0006 7860     		str	r0, [r7, #4]
 4489 0008 3960     		str	r1, [r7]
  53:../DaisyExamples/DaisySP//Source/Utility/delayline.h ****         delay_ = delay < max_size ? delay : max_size - 1;
 4490              		.loc 19 53 16
 4491 000a 7B68     		ldr	r3, [r7, #4]
 4492 000c 4FF00002 		mov	r2, #0
 4493 0010 1A60     		str	r2, [r3]	@ float
  54:../DaisyExamples/DaisySP//Source/Utility/delayline.h ****     }
 4494              		.loc 19 54 35
 4495 0012 3B68     		ldr	r3, [r7]
 4496 0014 40F22D22 		movw	r2, #557
 4497 0018 9A42     		cmp	r2, r3
 4498 001a 28BF     		it	cs
ARM GAS  /var/folders/1_/rgbtf7293t93c5kflb58xcy40000gn/T//ccMetEze.s 			page 118


 4499 001c 1A46     		movcs	r2, r3
  54:../DaisyExamples/DaisySP//Source/Utility/delayline.h ****     }
 4500              		.loc 19 54 16
 4501 001e 7B68     		ldr	r3, [r7, #4]
 4502 0020 9A60     		str	r2, [r3, #8]
  55:../DaisyExamples/DaisySP//Source/Utility/delayline.h **** 
 4503              		.loc 19 55 5
 4504 0022 00BF     		nop
 4505 0024 0C37     		adds	r7, r7, #12
 4506              		.cfi_def_cfa_offset 4
 4507 0026 BD46     		mov	sp, r7
 4508              		.cfi_def_cfa_register 13
 4509              		@ sp needed
 4510 0028 5DF8047B 		ldr	r7, [sp], #4
 4511              		.cfi_restore 7
 4512              		.cfi_def_cfa_offset 0
 4513 002c 7047     		bx	lr
 4514              		.cfi_endproc
 4515              	.LFE5013:
 4517              		.section	.text._ZN7daisysp9DelayLineIfLj1EE5ResetEv,"axG",%progbits,_ZN7daisysp9DelayLineIfLj1EE5R
 4518              		.align	1
 4519              		.weak	_ZN7daisysp9DelayLineIfLj1EE5ResetEv
 4520              		.syntax unified
 4521              		.thumb
 4522              		.thumb_func
 4524              	_ZN7daisysp9DelayLineIfLj1EE5ResetEv:
 4525              	.LFB5132:
  38:../DaisyExamples/DaisySP//Source/Utility/delayline.h ****     {
 4526              		.loc 19 38 10
 4527              		.cfi_startproc
 4528              		@ args = 0, pretend = 0, frame = 16
 4529              		@ frame_needed = 1, uses_anonymous_args = 0
 4530              		@ link register save eliminated.
 4531 0000 80B4     		push	{r7}
 4532              		.cfi_def_cfa_offset 4
 4533              		.cfi_offset 7, -4
 4534 0002 85B0     		sub	sp, sp, #20
 4535              		.cfi_def_cfa_offset 24
 4536 0004 00AF     		add	r7, sp, #0
 4537              		.cfi_def_cfa_register 7
 4538 0006 7860     		str	r0, [r7, #4]
 4539              	.LBB20:
  40:../DaisyExamples/DaisySP//Source/Utility/delayline.h ****         {
 4540              		.loc 19 40 20
 4541 0008 0023     		movs	r3, #0
 4542 000a FB60     		str	r3, [r7, #12]
 4543              	.L130:
  40:../DaisyExamples/DaisySP//Source/Utility/delayline.h ****         {
 4544              		.loc 19 40 29 discriminator 3
 4545 000c FB68     		ldr	r3, [r7, #12]
 4546 000e 002B     		cmp	r3, #0
 4547 0010 0CD1     		bne	.L129
  42:../DaisyExamples/DaisySP//Source/Utility/delayline.h ****         }
 4548              		.loc 19 42 22 discriminator 2
 4549 0012 7A68     		ldr	r2, [r7, #4]
 4550 0014 FB68     		ldr	r3, [r7, #12]
 4551 0016 0233     		adds	r3, r3, #2
ARM GAS  /var/folders/1_/rgbtf7293t93c5kflb58xcy40000gn/T//ccMetEze.s 			page 119


 4552 0018 9B00     		lsls	r3, r3, #2
 4553 001a 1344     		add	r3, r3, r2
 4554 001c 0433     		adds	r3, r3, #4
 4555 001e 4FF00002 		mov	r2, #0
 4556 0022 1A60     		str	r2, [r3]	@ float
  40:../DaisyExamples/DaisySP//Source/Utility/delayline.h ****         {
 4557              		.loc 19 40 9 discriminator 2
 4558 0024 FB68     		ldr	r3, [r7, #12]
 4559 0026 0133     		adds	r3, r3, #1
 4560 0028 FB60     		str	r3, [r7, #12]
 4561 002a EFE7     		b	.L130
 4562              	.L129:
 4563              	.LBE20:
  44:../DaisyExamples/DaisySP//Source/Utility/delayline.h ****         delay_     = 1;
 4564              		.loc 19 44 20
 4565 002c 7B68     		ldr	r3, [r7, #4]
 4566 002e 0022     		movs	r2, #0
 4567 0030 5A60     		str	r2, [r3, #4]
  45:../DaisyExamples/DaisySP//Source/Utility/delayline.h ****     }
 4568              		.loc 19 45 20
 4569 0032 7B68     		ldr	r3, [r7, #4]
 4570 0034 0122     		movs	r2, #1
 4571 0036 9A60     		str	r2, [r3, #8]
  46:../DaisyExamples/DaisySP//Source/Utility/delayline.h **** 
 4572              		.loc 19 46 5
 4573 0038 00BF     		nop
 4574 003a 1437     		adds	r7, r7, #20
 4575              		.cfi_def_cfa_offset 4
 4576 003c BD46     		mov	sp, r7
 4577              		.cfi_def_cfa_register 13
 4578              		@ sp needed
 4579 003e 5DF8047B 		ldr	r7, [sp], #4
 4580              		.cfi_restore 7
 4581              		.cfi_def_cfa_offset 0
 4582 0042 7047     		bx	lr
 4583              		.cfi_endproc
 4584              	.LFE5132:
 4586              		.section	.text._ZN7daisysp9DelayLineIfLj5000EE5ResetEv,"axG",%progbits,_ZN7daisysp9DelayLineIfLj50
 4587              		.align	1
 4588              		.weak	_ZN7daisysp9DelayLineIfLj5000EE5ResetEv
 4589              		.syntax unified
 4590              		.thumb
 4591              		.thumb_func
 4593              	_ZN7daisysp9DelayLineIfLj5000EE5ResetEv:
 4594              	.LFB5133:
  38:../DaisyExamples/DaisySP//Source/Utility/delayline.h ****     {
 4595              		.loc 19 38 10
 4596              		.cfi_startproc
 4597              		@ args = 0, pretend = 0, frame = 16
 4598              		@ frame_needed = 1, uses_anonymous_args = 0
 4599              		@ link register save eliminated.
 4600 0000 80B4     		push	{r7}
 4601              		.cfi_def_cfa_offset 4
 4602              		.cfi_offset 7, -4
 4603 0002 85B0     		sub	sp, sp, #20
 4604              		.cfi_def_cfa_offset 24
 4605 0004 00AF     		add	r7, sp, #0
ARM GAS  /var/folders/1_/rgbtf7293t93c5kflb58xcy40000gn/T//ccMetEze.s 			page 120


 4606              		.cfi_def_cfa_register 7
 4607 0006 7860     		str	r0, [r7, #4]
 4608              	.LBB21:
  40:../DaisyExamples/DaisySP//Source/Utility/delayline.h ****         {
 4609              		.loc 19 40 20
 4610 0008 0023     		movs	r3, #0
 4611 000a FB60     		str	r3, [r7, #12]
 4612              	.L133:
  40:../DaisyExamples/DaisySP//Source/Utility/delayline.h ****         {
 4613              		.loc 19 40 29 discriminator 3
 4614 000c FB68     		ldr	r3, [r7, #12]
 4615 000e 41F28732 		movw	r2, #4999
 4616 0012 9342     		cmp	r3, r2
 4617 0014 0CD8     		bhi	.L132
  42:../DaisyExamples/DaisySP//Source/Utility/delayline.h ****         }
 4618              		.loc 19 42 22 discriminator 2
 4619 0016 7A68     		ldr	r2, [r7, #4]
 4620 0018 FB68     		ldr	r3, [r7, #12]
 4621 001a 0233     		adds	r3, r3, #2
 4622 001c 9B00     		lsls	r3, r3, #2
 4623 001e 1344     		add	r3, r3, r2
 4624 0020 0433     		adds	r3, r3, #4
 4625 0022 4FF00002 		mov	r2, #0
 4626 0026 1A60     		str	r2, [r3]	@ float
  40:../DaisyExamples/DaisySP//Source/Utility/delayline.h ****         {
 4627              		.loc 19 40 9 discriminator 2
 4628 0028 FB68     		ldr	r3, [r7, #12]
 4629 002a 0133     		adds	r3, r3, #1
 4630 002c FB60     		str	r3, [r7, #12]
 4631 002e EDE7     		b	.L133
 4632              	.L132:
 4633              	.LBE21:
  44:../DaisyExamples/DaisySP//Source/Utility/delayline.h ****         delay_     = 1;
 4634              		.loc 19 44 20
 4635 0030 7B68     		ldr	r3, [r7, #4]
 4636 0032 0022     		movs	r2, #0
 4637 0034 5A60     		str	r2, [r3, #4]
  45:../DaisyExamples/DaisySP//Source/Utility/delayline.h ****     }
 4638              		.loc 19 45 20
 4639 0036 7B68     		ldr	r3, [r7, #4]
 4640 0038 0122     		movs	r2, #1
 4641 003a 9A60     		str	r2, [r3, #8]
  46:../DaisyExamples/DaisySP//Source/Utility/delayline.h **** 
 4642              		.loc 19 46 5
 4643 003c 00BF     		nop
 4644 003e 1437     		adds	r7, r7, #20
 4645              		.cfi_def_cfa_offset 4
 4646 0040 BD46     		mov	sp, r7
 4647              		.cfi_def_cfa_register 13
 4648              		@ sp needed
 4649 0042 5DF8047B 		ldr	r7, [sp], #4
 4650              		.cfi_restore 7
 4651              		.cfi_def_cfa_offset 0
 4652 0046 7047     		bx	lr
 4653              		.cfi_endproc
 4654              	.LFE5133:
 4656              		.section	.text._ZN7daisysp9DelayLineIfLj558EE5ResetEv,"axG",%progbits,_ZN7daisysp9DelayLineIfLj558
ARM GAS  /var/folders/1_/rgbtf7293t93c5kflb58xcy40000gn/T//ccMetEze.s 			page 121


 4657              		.align	1
 4658              		.weak	_ZN7daisysp9DelayLineIfLj558EE5ResetEv
 4659              		.syntax unified
 4660              		.thumb
 4661              		.thumb_func
 4663              	_ZN7daisysp9DelayLineIfLj558EE5ResetEv:
 4664              	.LFB5134:
  38:../DaisyExamples/DaisySP//Source/Utility/delayline.h ****     {
 4665              		.loc 19 38 10
 4666              		.cfi_startproc
 4667              		@ args = 0, pretend = 0, frame = 16
 4668              		@ frame_needed = 1, uses_anonymous_args = 0
 4669              		@ link register save eliminated.
 4670 0000 80B4     		push	{r7}
 4671              		.cfi_def_cfa_offset 4
 4672              		.cfi_offset 7, -4
 4673 0002 85B0     		sub	sp, sp, #20
 4674              		.cfi_def_cfa_offset 24
 4675 0004 00AF     		add	r7, sp, #0
 4676              		.cfi_def_cfa_register 7
 4677 0006 7860     		str	r0, [r7, #4]
 4678              	.LBB22:
  40:../DaisyExamples/DaisySP//Source/Utility/delayline.h ****         {
 4679              		.loc 19 40 20
 4680 0008 0023     		movs	r3, #0
 4681 000a FB60     		str	r3, [r7, #12]
 4682              	.L136:
  40:../DaisyExamples/DaisySP//Source/Utility/delayline.h ****         {
 4683              		.loc 19 40 29 discriminator 3
 4684 000c FB68     		ldr	r3, [r7, #12]
 4685 000e 40F22D22 		movw	r2, #557
 4686 0012 9342     		cmp	r3, r2
 4687 0014 0CD8     		bhi	.L135
  42:../DaisyExamples/DaisySP//Source/Utility/delayline.h ****         }
 4688              		.loc 19 42 22 discriminator 2
 4689 0016 7A68     		ldr	r2, [r7, #4]
 4690 0018 FB68     		ldr	r3, [r7, #12]
 4691 001a 0233     		adds	r3, r3, #2
 4692 001c 9B00     		lsls	r3, r3, #2
 4693 001e 1344     		add	r3, r3, r2
 4694 0020 0433     		adds	r3, r3, #4
 4695 0022 4FF00002 		mov	r2, #0
 4696 0026 1A60     		str	r2, [r3]	@ float
  40:../DaisyExamples/DaisySP//Source/Utility/delayline.h ****         {
 4697              		.loc 19 40 9 discriminator 2
 4698 0028 FB68     		ldr	r3, [r7, #12]
 4699 002a 0133     		adds	r3, r3, #1
 4700 002c FB60     		str	r3, [r7, #12]
 4701 002e EDE7     		b	.L136
 4702              	.L135:
 4703              	.LBE22:
  44:../DaisyExamples/DaisySP//Source/Utility/delayline.h ****         delay_     = 1;
 4704              		.loc 19 44 20
 4705 0030 7B68     		ldr	r3, [r7, #4]
 4706 0032 0022     		movs	r2, #0
 4707 0034 5A60     		str	r2, [r3, #4]
  45:../DaisyExamples/DaisySP//Source/Utility/delayline.h ****     }
ARM GAS  /var/folders/1_/rgbtf7293t93c5kflb58xcy40000gn/T//ccMetEze.s 			page 122


 4708              		.loc 19 45 20
 4709 0036 7B68     		ldr	r3, [r7, #4]
 4710 0038 0122     		movs	r2, #1
 4711 003a 9A60     		str	r2, [r3, #8]
  46:../DaisyExamples/DaisySP//Source/Utility/delayline.h **** 
 4712              		.loc 19 46 5
 4713 003c 00BF     		nop
 4714 003e 1437     		adds	r7, r7, #20
 4715              		.cfi_def_cfa_offset 4
 4716 0040 BD46     		mov	sp, r7
 4717              		.cfi_def_cfa_register 13
 4718              		@ sp needed
 4719 0042 5DF8047B 		ldr	r7, [sp], #4
 4720              		.cfi_restore 7
 4721              		.cfi_def_cfa_offset 0
 4722 0046 7047     		bx	lr
 4723              		.cfi_endproc
 4724              	.LFE5134:
 4726              		.section	.text.__tcf_0,"ax",%progbits
 4727              		.align	1
 4728              		.syntax unified
 4729              		.thumb
 4730              		.thumb_func
 4732              	__tcf_0:
 4733              	.LFB5274:
  27:FDN_stereo.cpp **** static DelayLine<float, 4999U + 1U> FDN_del_R[DEL_NUM];
 4734              		.loc 18 27 37
 4735              		.cfi_startproc
 4736              		@ args = 0, pretend = 0, frame = 8
 4737              		@ frame_needed = 1, uses_anonymous_args = 0
 4738 0000 90B5     		push	{r4, r7, lr}
 4739              		.cfi_def_cfa_offset 12
 4740              		.cfi_offset 4, -12
 4741              		.cfi_offset 7, -8
 4742              		.cfi_offset 14, -4
 4743 0002 83B0     		sub	sp, sp, #12
 4744              		.cfi_def_cfa_offset 24
 4745 0004 00AF     		add	r7, sp, #0
 4746              		.cfi_def_cfa_register 7
 4747 0006 7860     		str	r0, [r7, #4]
  27:FDN_stereo.cpp **** static DelayLine<float, 4999U + 1U> FDN_del_R[DEL_NUM];
 4748              		.loc 18 27 37
 4749 0008 064C     		ldr	r4, .L140
 4750              	.L139:
  27:FDN_stereo.cpp **** static DelayLine<float, 4999U + 1U> FDN_del_R[DEL_NUM];
 4751              		.loc 18 27 37 is_stmt 0 discriminator 4
 4752 000a 074B     		ldr	r3, .L140+4
 4753 000c 9C42     		cmp	r4, r3
 4754 000e 06D0     		beq	.L137
  27:FDN_stereo.cpp **** static DelayLine<float, 4999U + 1U> FDN_del_R[DEL_NUM];
 4755              		.loc 18 27 37 discriminator 3
 4756 0010 064B     		ldr	r3, .L140+8
 4757 0012 2344     		add	r3, r3, r4
 4758 0014 1C46     		mov	r4, r3
 4759 0016 2046     		mov	r0, r4
 4760 0018 FFF7FEFF 		bl	_ZN7daisysp9DelayLineIfLj5000EED1Ev
 4761 001c F5E7     		b	.L139
ARM GAS  /var/folders/1_/rgbtf7293t93c5kflb58xcy40000gn/T//ccMetEze.s 			page 123


 4762              	.L137:
  27:FDN_stereo.cpp **** static DelayLine<float, 4999U + 1U> FDN_del_R[DEL_NUM];
 4763              		.loc 18 27 37
 4764 001e 0C37     		adds	r7, r7, #12
 4765              		.cfi_def_cfa_offset 12
 4766 0020 BD46     		mov	sp, r7
 4767              		.cfi_def_cfa_register 13
 4768              		@ sp needed
 4769 0022 90BD     		pop	{r4, r7, pc}
 4770              	.L141:
 4771              		.align	2
 4772              	.L140:
 4773 0024 B0380100 		.word	_ZL9FDN_del_L+80048
 4774 0028 00000000 		.word	_ZL9FDN_del_L
 4775 002c D4B1FFFF 		.word	-20012
 4776              		.cfi_endproc
 4777              	.LFE5274:
 4779              		.section	.text.__tcf_1,"ax",%progbits
 4780              		.align	1
 4781              		.syntax unified
 4782              		.thumb
 4783              		.thumb_func
 4785              	__tcf_1:
 4786              	.LFB5275:
  28:FDN_stereo.cpp **** 
 4787              		.loc 18 28 37 is_stmt 1
 4788              		.cfi_startproc
 4789              		@ args = 0, pretend = 0, frame = 8
 4790              		@ frame_needed = 1, uses_anonymous_args = 0
 4791 0000 90B5     		push	{r4, r7, lr}
 4792              		.cfi_def_cfa_offset 12
 4793              		.cfi_offset 4, -12
 4794              		.cfi_offset 7, -8
 4795              		.cfi_offset 14, -4
 4796 0002 83B0     		sub	sp, sp, #12
 4797              		.cfi_def_cfa_offset 24
 4798 0004 00AF     		add	r7, sp, #0
 4799              		.cfi_def_cfa_register 7
 4800 0006 7860     		str	r0, [r7, #4]
  28:FDN_stereo.cpp **** 
 4801              		.loc 18 28 37
 4802 0008 064C     		ldr	r4, .L145
 4803              	.L144:
  28:FDN_stereo.cpp **** 
 4804              		.loc 18 28 37 is_stmt 0 discriminator 4
 4805 000a 074B     		ldr	r3, .L145+4
 4806 000c 9C42     		cmp	r4, r3
 4807 000e 06D0     		beq	.L142
  28:FDN_stereo.cpp **** 
 4808              		.loc 18 28 37 discriminator 3
 4809 0010 064B     		ldr	r3, .L145+8
 4810 0012 2344     		add	r3, r3, r4
 4811 0014 1C46     		mov	r4, r3
 4812 0016 2046     		mov	r0, r4
 4813 0018 FFF7FEFF 		bl	_ZN7daisysp9DelayLineIfLj5000EED1Ev
 4814 001c F5E7     		b	.L144
 4815              	.L142:
ARM GAS  /var/folders/1_/rgbtf7293t93c5kflb58xcy40000gn/T//ccMetEze.s 			page 124


  28:FDN_stereo.cpp **** 
 4816              		.loc 18 28 37
 4817 001e 0C37     		adds	r7, r7, #12
 4818              		.cfi_def_cfa_offset 12
 4819 0020 BD46     		mov	sp, r7
 4820              		.cfi_def_cfa_register 13
 4821              		@ sp needed
 4822 0022 90BD     		pop	{r4, r7, pc}
 4823              	.L146:
 4824              		.align	2
 4825              	.L145:
 4826 0024 B0380100 		.word	_ZL9FDN_del_R+80048
 4827 0028 00000000 		.word	_ZL9FDN_del_R
 4828 002c D4B1FFFF 		.word	-20012
 4829              		.cfi_endproc
 4830              	.LFE5275:
 4832              		.section	.text.__tcf_2,"ax",%progbits
 4833              		.align	1
 4834              		.syntax unified
 4835              		.thumb
 4836              		.thumb_func
 4838              	__tcf_2:
 4839              	.LFB5276:
  31:FDN_stereo.cpp **** static DelayLine<float, 1U> lpf_del_R[DEL_NUM];
 4840              		.loc 18 31 29 is_stmt 1
 4841              		.cfi_startproc
 4842              		@ args = 0, pretend = 0, frame = 8
 4843              		@ frame_needed = 1, uses_anonymous_args = 0
 4844 0000 90B5     		push	{r4, r7, lr}
 4845              		.cfi_def_cfa_offset 12
 4846              		.cfi_offset 4, -12
 4847              		.cfi_offset 7, -8
 4848              		.cfi_offset 14, -4
 4849 0002 83B0     		sub	sp, sp, #12
 4850              		.cfi_def_cfa_offset 24
 4851 0004 00AF     		add	r7, sp, #0
 4852              		.cfi_def_cfa_register 7
 4853 0006 7860     		str	r0, [r7, #4]
  31:FDN_stereo.cpp **** static DelayLine<float, 1U> lpf_del_R[DEL_NUM];
 4854              		.loc 18 31 29
 4855 0008 054C     		ldr	r4, .L150
 4856              	.L149:
  31:FDN_stereo.cpp **** static DelayLine<float, 1U> lpf_del_R[DEL_NUM];
 4857              		.loc 18 31 29 is_stmt 0 discriminator 4
 4858 000a 064B     		ldr	r3, .L150+4
 4859 000c 9C42     		cmp	r4, r3
 4860 000e 04D0     		beq	.L147
  31:FDN_stereo.cpp **** static DelayLine<float, 1U> lpf_del_R[DEL_NUM];
 4861              		.loc 18 31 29 discriminator 3
 4862 0010 103C     		subs	r4, r4, #16
 4863 0012 2046     		mov	r0, r4
 4864 0014 FFF7FEFF 		bl	_ZN7daisysp9DelayLineIfLj1EED1Ev
 4865 0018 F7E7     		b	.L149
 4866              	.L147:
  31:FDN_stereo.cpp **** static DelayLine<float, 1U> lpf_del_R[DEL_NUM];
 4867              		.loc 18 31 29
 4868 001a 0C37     		adds	r7, r7, #12
ARM GAS  /var/folders/1_/rgbtf7293t93c5kflb58xcy40000gn/T//ccMetEze.s 			page 125


 4869              		.cfi_def_cfa_offset 12
 4870 001c BD46     		mov	sp, r7
 4871              		.cfi_def_cfa_register 13
 4872              		@ sp needed
 4873 001e 90BD     		pop	{r4, r7, pc}
 4874              	.L151:
 4875              		.align	2
 4876              	.L150:
 4877 0020 40000000 		.word	_ZL9lpf_del_L+64
 4878 0024 00000000 		.word	_ZL9lpf_del_L
 4879              		.cfi_endproc
 4880              	.LFE5276:
 4882              		.section	.text.__tcf_3,"ax",%progbits
 4883              		.align	1
 4884              		.syntax unified
 4885              		.thumb
 4886              		.thumb_func
 4888              	__tcf_3:
 4889              	.LFB5277:
  32:FDN_stereo.cpp **** 
 4890              		.loc 18 32 29 is_stmt 1
 4891              		.cfi_startproc
 4892              		@ args = 0, pretend = 0, frame = 8
 4893              		@ frame_needed = 1, uses_anonymous_args = 0
 4894 0000 90B5     		push	{r4, r7, lr}
 4895              		.cfi_def_cfa_offset 12
 4896              		.cfi_offset 4, -12
 4897              		.cfi_offset 7, -8
 4898              		.cfi_offset 14, -4
 4899 0002 83B0     		sub	sp, sp, #12
 4900              		.cfi_def_cfa_offset 24
 4901 0004 00AF     		add	r7, sp, #0
 4902              		.cfi_def_cfa_register 7
 4903 0006 7860     		str	r0, [r7, #4]
  32:FDN_stereo.cpp **** 
 4904              		.loc 18 32 29
 4905 0008 054C     		ldr	r4, .L155
 4906              	.L154:
  32:FDN_stereo.cpp **** 
 4907              		.loc 18 32 29 is_stmt 0 discriminator 4
 4908 000a 064B     		ldr	r3, .L155+4
 4909 000c 9C42     		cmp	r4, r3
 4910 000e 04D0     		beq	.L152
  32:FDN_stereo.cpp **** 
 4911              		.loc 18 32 29 discriminator 3
 4912 0010 103C     		subs	r4, r4, #16
 4913 0012 2046     		mov	r0, r4
 4914 0014 FFF7FEFF 		bl	_ZN7daisysp9DelayLineIfLj1EED1Ev
 4915 0018 F7E7     		b	.L154
 4916              	.L152:
  32:FDN_stereo.cpp **** 
 4917              		.loc 18 32 29
 4918 001a 0C37     		adds	r7, r7, #12
 4919              		.cfi_def_cfa_offset 12
 4920 001c BD46     		mov	sp, r7
 4921              		.cfi_def_cfa_register 13
 4922              		@ sp needed
ARM GAS  /var/folders/1_/rgbtf7293t93c5kflb58xcy40000gn/T//ccMetEze.s 			page 126


 4923 001e 90BD     		pop	{r4, r7, pc}
 4924              	.L156:
 4925              		.align	2
 4926              	.L155:
 4927 0020 40000000 		.word	_ZL9lpf_del_R+64
 4928 0024 00000000 		.word	_ZL9lpf_del_R
 4929              		.cfi_endproc
 4930              	.LFE5277:
 4932              		.section	.text.__tcf_4,"ax",%progbits
 4933              		.align	1
 4934              		.syntax unified
 4935              		.thumb
 4936              		.thumb_func
 4938              	__tcf_4:
 4939              	.LFB5278:
  37:FDN_stereo.cpp **** 
 4940              		.loc 18 37 36 is_stmt 1
 4941              		.cfi_startproc
 4942              		@ args = 0, pretend = 0, frame = 8
 4943              		@ frame_needed = 1, uses_anonymous_args = 0
 4944 0000 90B5     		push	{r4, r7, lr}
 4945              		.cfi_def_cfa_offset 12
 4946              		.cfi_offset 4, -12
 4947              		.cfi_offset 7, -8
 4948              		.cfi_offset 14, -4
 4949 0002 83B0     		sub	sp, sp, #12
 4950              		.cfi_def_cfa_offset 24
 4951 0004 00AF     		add	r7, sp, #0
 4952              		.cfi_def_cfa_register 7
 4953 0006 7860     		str	r0, [r7, #4]
  37:FDN_stereo.cpp **** 
 4954              		.loc 18 37 36
 4955 0008 064C     		ldr	r4, .L160
 4956              	.L159:
  37:FDN_stereo.cpp **** 
 4957              		.loc 18 37 36 is_stmt 0 discriminator 4
 4958 000a 074B     		ldr	r3, .L160+4
 4959 000c 9C42     		cmp	r4, r3
 4960 000e 05D0     		beq	.L157
  37:FDN_stereo.cpp **** 
 4961              		.loc 18 37 36 discriminator 3
 4962 0010 A4F6C404 		subw	r4, r4, #2244
 4963 0014 2046     		mov	r0, r4
 4964 0016 FFF7FEFF 		bl	_ZN7daisysp9DelayLineIfLj558EED1Ev
 4965 001a F6E7     		b	.L159
 4966              	.L157:
  37:FDN_stereo.cpp **** 
 4967              		.loc 18 37 36
 4968 001c 0C37     		adds	r7, r7, #12
 4969              		.cfi_def_cfa_offset 12
 4970 001e BD46     		mov	sp, r7
 4971              		.cfi_def_cfa_register 13
 4972              		@ sp needed
 4973 0020 90BD     		pop	{r4, r7, pc}
 4974              	.L161:
 4975 0022 00BF     		.align	2
 4976              	.L160:
ARM GAS  /var/folders/1_/rgbtf7293t93c5kflb58xcy40000gn/T//ccMetEze.s 			page 127


 4977 0024 10230000 		.word	_ZL7apf_del+8976
 4978 0028 00000000 		.word	_ZL7apf_del
 4979              		.cfi_endproc
 4980              	.LFE5278:
 4982              		.section	.text._Z41__static_initialization_and_destruction_0ii,"ax",%progbits
 4983              		.align	1
 4984              		.syntax unified
 4985              		.thumb
 4986              		.thumb_func
 4988              	_Z41__static_initialization_and_destruction_0ii:
 4989              	.LFB5273:
 222:FDN_stereo.cpp **** }...
 4990              		.loc 18 222 1 is_stmt 1
 4991              		.cfi_startproc
 4992              		@ args = 0, pretend = 0, frame = 8
 4993              		@ frame_needed = 1, uses_anonymous_args = 0
 4994 0000 B0B5     		push	{r4, r5, r7, lr}
 4995              		.cfi_def_cfa_offset 16
 4996              		.cfi_offset 4, -16
 4997              		.cfi_offset 5, -12
 4998              		.cfi_offset 7, -8
 4999              		.cfi_offset 14, -4
 5000 0002 82B0     		sub	sp, sp, #8
 5001              		.cfi_def_cfa_offset 24
 5002 0004 00AF     		add	r7, sp, #0
 5003              		.cfi_def_cfa_register 7
 5004 0006 7860     		str	r0, [r7, #4]
 5005 0008 3960     		str	r1, [r7]
 5006              		.loc 18 222 1
 5007 000a 7B68     		ldr	r3, [r7, #4]
 5008 000c 012B     		cmp	r3, #1
 5009 000e 63D1     		bne	.L174
 5010              		.loc 18 222 1 is_stmt 0 discriminator 1
 5011 0010 3B68     		ldr	r3, [r7]
 5012 0012 4FF6FF72 		movw	r2, #65535
 5013 0016 9342     		cmp	r3, r2
 5014 0018 5ED1     		bne	.L174
  12:FDN_stereo.cpp **** DaisyPatchSM patch;
 5015              		.loc 18 12 14 is_stmt 1
 5016 001a 3148     		ldr	r0, .L175
 5017 001c FFF7FEFF 		bl	_ZN5daisy8patch_sm12DaisyPatchSMC1Ev
 5018 0020 304A     		ldr	r2, .L175+4
 5019 0022 3149     		ldr	r1, .L175+8
 5020 0024 2E48     		ldr	r0, .L175
 5021 0026 FFF7FEFF 		bl	__aeabi_atexit
  27:FDN_stereo.cpp **** static DelayLine<float, 4999U + 1U> FDN_del_L[DEL_NUM];
 5022              		.loc 18 27 54
 5023 002a 304B     		ldr	r3, .L175+12
 5024 002c 0324     		movs	r4, #3
 5025 002e 1D46     		mov	r5, r3
 5026              	.L165:
  27:FDN_stereo.cpp **** static DelayLine<float, 4999U + 1U> FDN_del_L[DEL_NUM];
 5027              		.loc 18 27 54 is_stmt 0 discriminator 4
 5028 0030 002C     		cmp	r4, #0
 5029 0032 08DB     		blt	.L164
  27:FDN_stereo.cpp **** static DelayLine<float, 4999U + 1U> FDN_del_L[DEL_NUM];
 5030              		.loc 18 27 54 discriminator 3
ARM GAS  /var/folders/1_/rgbtf7293t93c5kflb58xcy40000gn/T//ccMetEze.s 			page 128


 5031 0034 2846     		mov	r0, r5
 5032 0036 FFF7FEFF 		bl	_ZN7daisysp9DelayLineIfLj5000EEC1Ev
 5033 003a 44F62C63 		movw	r3, #20012
 5034 003e 2B44     		add	r3, r3, r5
 5035 0040 1D46     		mov	r5, r3
 5036 0042 013C     		subs	r4, r4, #1
 5037 0044 F4E7     		b	.L165
 5038              	.L164:
  27:FDN_stereo.cpp **** static DelayLine<float, 4999U + 1U> FDN_del_L[DEL_NUM];
 5039              		.loc 18 27 37 is_stmt 1 discriminator 2
 5040 0046 274A     		ldr	r2, .L175+4
 5041 0048 2949     		ldr	r1, .L175+16
 5042 004a 0020     		movs	r0, #0
 5043 004c FFF7FEFF 		bl	__aeabi_atexit
  28:FDN_stereo.cpp **** static DelayLine<float, 4999U + 1U> FDN_del_R[DEL_NUM];
 5044              		.loc 18 28 54 discriminator 2
 5045 0050 284B     		ldr	r3, .L175+20
 5046 0052 0324     		movs	r4, #3
 5047 0054 1D46     		mov	r5, r3
 5048              	.L167:
  28:FDN_stereo.cpp **** static DelayLine<float, 4999U + 1U> FDN_del_R[DEL_NUM];
 5049              		.loc 18 28 54 is_stmt 0 discriminator 4
 5050 0056 002C     		cmp	r4, #0
 5051 0058 08DB     		blt	.L166
  28:FDN_stereo.cpp **** static DelayLine<float, 4999U + 1U> FDN_del_R[DEL_NUM];
 5052              		.loc 18 28 54 discriminator 3
 5053 005a 2846     		mov	r0, r5
 5054 005c FFF7FEFF 		bl	_ZN7daisysp9DelayLineIfLj5000EEC1Ev
 5055 0060 44F62C63 		movw	r3, #20012
 5056 0064 2B44     		add	r3, r3, r5
 5057 0066 1D46     		mov	r5, r3
 5058 0068 013C     		subs	r4, r4, #1
 5059 006a F4E7     		b	.L167
 5060              	.L166:
  28:FDN_stereo.cpp **** static DelayLine<float, 4999U + 1U> FDN_del_R[DEL_NUM];
 5061              		.loc 18 28 37 is_stmt 1 discriminator 2
 5062 006c 1D4A     		ldr	r2, .L175+4
 5063 006e 2249     		ldr	r1, .L175+24
 5064 0070 0020     		movs	r0, #0
 5065 0072 FFF7FEFF 		bl	__aeabi_atexit
  31:FDN_stereo.cpp **** static DelayLine<float, 1U> lpf_del_L[DEL_NUM];
 5066              		.loc 18 31 46 discriminator 2
 5067 0076 214B     		ldr	r3, .L175+28
 5068 0078 0324     		movs	r4, #3
 5069 007a 1D46     		mov	r5, r3
 5070              	.L169:
  31:FDN_stereo.cpp **** static DelayLine<float, 1U> lpf_del_L[DEL_NUM];
 5071              		.loc 18 31 46 is_stmt 0 discriminator 4
 5072 007c 002C     		cmp	r4, #0
 5073 007e 05DB     		blt	.L168
  31:FDN_stereo.cpp **** static DelayLine<float, 1U> lpf_del_L[DEL_NUM];
 5074              		.loc 18 31 46 discriminator 3
 5075 0080 2846     		mov	r0, r5
 5076 0082 FFF7FEFF 		bl	_ZN7daisysp9DelayLineIfLj1EEC1Ev
 5077 0086 1035     		adds	r5, r5, #16
 5078 0088 013C     		subs	r4, r4, #1
 5079 008a F7E7     		b	.L169
ARM GAS  /var/folders/1_/rgbtf7293t93c5kflb58xcy40000gn/T//ccMetEze.s 			page 129


 5080              	.L168:
  31:FDN_stereo.cpp **** static DelayLine<float, 1U> lpf_del_L[DEL_NUM];
 5081              		.loc 18 31 29 is_stmt 1 discriminator 2
 5082 008c 154A     		ldr	r2, .L175+4
 5083 008e 1C49     		ldr	r1, .L175+32
 5084 0090 0020     		movs	r0, #0
 5085 0092 FFF7FEFF 		bl	__aeabi_atexit
  32:FDN_stereo.cpp **** static DelayLine<float, 1U> lpf_del_R[DEL_NUM];
 5086              		.loc 18 32 46 discriminator 2
 5087 0096 1B4B     		ldr	r3, .L175+36
 5088 0098 0324     		movs	r4, #3
 5089 009a 1D46     		mov	r5, r3
 5090              	.L171:
  32:FDN_stereo.cpp **** static DelayLine<float, 1U> lpf_del_R[DEL_NUM];
 5091              		.loc 18 32 46 is_stmt 0 discriminator 4
 5092 009c 002C     		cmp	r4, #0
 5093 009e 05DB     		blt	.L170
  32:FDN_stereo.cpp **** static DelayLine<float, 1U> lpf_del_R[DEL_NUM];
 5094              		.loc 18 32 46 discriminator 3
 5095 00a0 2846     		mov	r0, r5
 5096 00a2 FFF7FEFF 		bl	_ZN7daisysp9DelayLineIfLj1EEC1Ev
 5097 00a6 1035     		adds	r5, r5, #16
 5098 00a8 013C     		subs	r4, r4, #1
 5099 00aa F7E7     		b	.L171
 5100              	.L170:
  32:FDN_stereo.cpp **** static DelayLine<float, 1U> lpf_del_R[DEL_NUM];
 5101              		.loc 18 32 29 is_stmt 1 discriminator 2
 5102 00ac 0D4A     		ldr	r2, .L175+4
 5103 00ae 1649     		ldr	r1, .L175+40
 5104 00b0 0020     		movs	r0, #0
 5105 00b2 FFF7FEFF 		bl	__aeabi_atexit
  37:FDN_stereo.cpp **** static DelayLine<float, 557U + 1U> apf_del[DEL_NUM];
 5106              		.loc 18 37 51 discriminator 2
 5107 00b6 154B     		ldr	r3, .L175+44
 5108 00b8 0324     		movs	r4, #3
 5109 00ba 1D46     		mov	r5, r3
 5110              	.L173:
  37:FDN_stereo.cpp **** static DelayLine<float, 557U + 1U> apf_del[DEL_NUM];
 5111              		.loc 18 37 51 is_stmt 0 discriminator 4
 5112 00bc 002C     		cmp	r4, #0
 5113 00be 06DB     		blt	.L172
  37:FDN_stereo.cpp **** static DelayLine<float, 557U + 1U> apf_del[DEL_NUM];
 5114              		.loc 18 37 51 discriminator 3
 5115 00c0 2846     		mov	r0, r5
 5116 00c2 FFF7FEFF 		bl	_ZN7daisysp9DelayLineIfLj558EEC1Ev
 5117 00c6 05F6C405 		addw	r5, r5, #2244
 5118 00ca 013C     		subs	r4, r4, #1
 5119 00cc F6E7     		b	.L173
 5120              	.L172:
  37:FDN_stereo.cpp **** static DelayLine<float, 557U + 1U> apf_del[DEL_NUM];
 5121              		.loc 18 37 36 is_stmt 1 discriminator 2
 5122 00ce 054A     		ldr	r2, .L175+4
 5123 00d0 0F49     		ldr	r1, .L175+48
 5124 00d2 0020     		movs	r0, #0
 5125 00d4 FFF7FEFF 		bl	__aeabi_atexit
 5126              	.L174:
 5127              		.loc 18 222 1
ARM GAS  /var/folders/1_/rgbtf7293t93c5kflb58xcy40000gn/T//ccMetEze.s 			page 130


 5128 00d8 00BF     		nop
 5129 00da 0837     		adds	r7, r7, #8
 5130              		.cfi_def_cfa_offset 16
 5131 00dc BD46     		mov	sp, r7
 5132              		.cfi_def_cfa_register 13
 5133              		@ sp needed
 5134 00de B0BD     		pop	{r4, r5, r7, pc}
 5135              	.L176:
 5136              		.align	2
 5137              	.L175:
 5138 00e0 00000000 		.word	patch
 5139 00e4 00000000 		.word	__dso_handle
 5140 00e8 00000000 		.word	_ZN5daisy8patch_sm12DaisyPatchSMD1Ev
 5141 00ec 00000000 		.word	_ZL9FDN_del_L
 5142 00f0 00000000 		.word	__tcf_0
 5143 00f4 00000000 		.word	_ZL9FDN_del_R
 5144 00f8 00000000 		.word	__tcf_1
 5145 00fc 00000000 		.word	_ZL9lpf_del_L
 5146 0100 00000000 		.word	__tcf_2
 5147 0104 00000000 		.word	_ZL9lpf_del_R
 5148 0108 00000000 		.word	__tcf_3
 5149 010c 00000000 		.word	_ZL7apf_del
 5150 0110 00000000 		.word	__tcf_4
 5151              		.cfi_endproc
 5152              	.LFE5273:
 5154              		.section	.text._ZN7daisysp9DelayLineIfLj5000EED2Ev,"axG",%progbits,_ZN7daisysp9DelayLineIfLj5000EE
 5155              		.align	1
 5156              		.weak	_ZN7daisysp9DelayLineIfLj5000EED2Ev
 5157              		.syntax unified
 5158              		.thumb
 5159              		.thumb_func
 5161              	_ZN7daisysp9DelayLineIfLj5000EED2Ev:
 5162              	.LFB5280:
  32:../DaisyExamples/DaisySP//Source/Utility/delayline.h ****     /** initializes the delay line by clearing the values within, and setting delay to 1 sample.
 5163              		.loc 19 32 5
 5164              		.cfi_startproc
 5165              		@ args = 0, pretend = 0, frame = 8
 5166              		@ frame_needed = 1, uses_anonymous_args = 0
 5167              		@ link register save eliminated.
 5168 0000 80B4     		push	{r7}
 5169              		.cfi_def_cfa_offset 4
 5170              		.cfi_offset 7, -4
 5171 0002 83B0     		sub	sp, sp, #12
 5172              		.cfi_def_cfa_offset 16
 5173 0004 00AF     		add	r7, sp, #0
 5174              		.cfi_def_cfa_register 7
 5175 0006 7860     		str	r0, [r7, #4]
  32:../DaisyExamples/DaisySP//Source/Utility/delayline.h ****     /** initializes the delay line by clearing the values within, and setting delay to 1 sample.
 5176              		.loc 19 32 19
 5177 0008 7B68     		ldr	r3, [r7, #4]
 5178 000a 1846     		mov	r0, r3
 5179 000c 0C37     		adds	r7, r7, #12
 5180              		.cfi_def_cfa_offset 4
 5181 000e BD46     		mov	sp, r7
 5182              		.cfi_def_cfa_register 13
 5183              		@ sp needed
 5184 0010 5DF8047B 		ldr	r7, [sp], #4
ARM GAS  /var/folders/1_/rgbtf7293t93c5kflb58xcy40000gn/T//ccMetEze.s 			page 131


 5185              		.cfi_restore 7
 5186              		.cfi_def_cfa_offset 0
 5187 0014 7047     		bx	lr
 5188              		.cfi_endproc
 5189              	.LFE5280:
 5191              		.weak	_ZN7daisysp9DelayLineIfLj5000EED1Ev
 5192              		.thumb_set _ZN7daisysp9DelayLineIfLj5000EED1Ev,_ZN7daisysp9DelayLineIfLj5000EED2Ev
 5193              		.section	.text._ZN7daisysp9DelayLineIfLj1EED2Ev,"axG",%progbits,_ZN7daisysp9DelayLineIfLj1EED5Ev,c
 5194              		.align	1
 5195              		.weak	_ZN7daisysp9DelayLineIfLj1EED2Ev
 5196              		.syntax unified
 5197              		.thumb
 5198              		.thumb_func
 5200              	_ZN7daisysp9DelayLineIfLj1EED2Ev:
 5201              	.LFB5283:
  32:../DaisyExamples/DaisySP//Source/Utility/delayline.h ****     /** initializes the delay line by clearing the values within, and setting delay to 1 sample.
 5202              		.loc 19 32 5
 5203              		.cfi_startproc
 5204              		@ args = 0, pretend = 0, frame = 8
 5205              		@ frame_needed = 1, uses_anonymous_args = 0
 5206              		@ link register save eliminated.
 5207 0000 80B4     		push	{r7}
 5208              		.cfi_def_cfa_offset 4
 5209              		.cfi_offset 7, -4
 5210 0002 83B0     		sub	sp, sp, #12
 5211              		.cfi_def_cfa_offset 16
 5212 0004 00AF     		add	r7, sp, #0
 5213              		.cfi_def_cfa_register 7
 5214 0006 7860     		str	r0, [r7, #4]
  32:../DaisyExamples/DaisySP//Source/Utility/delayline.h ****     /** initializes the delay line by clearing the values within, and setting delay to 1 sample.
 5215              		.loc 19 32 19
 5216 0008 7B68     		ldr	r3, [r7, #4]
 5217 000a 1846     		mov	r0, r3
 5218 000c 0C37     		adds	r7, r7, #12
 5219              		.cfi_def_cfa_offset 4
 5220 000e BD46     		mov	sp, r7
 5221              		.cfi_def_cfa_register 13
 5222              		@ sp needed
 5223 0010 5DF8047B 		ldr	r7, [sp], #4
 5224              		.cfi_restore 7
 5225              		.cfi_def_cfa_offset 0
 5226 0014 7047     		bx	lr
 5227              		.cfi_endproc
 5228              	.LFE5283:
 5230              		.weak	_ZN7daisysp9DelayLineIfLj1EED1Ev
 5231              		.thumb_set _ZN7daisysp9DelayLineIfLj1EED1Ev,_ZN7daisysp9DelayLineIfLj1EED2Ev
 5232              		.section	.text._ZN7daisysp9DelayLineIfLj558EED2Ev,"axG",%progbits,_ZN7daisysp9DelayLineIfLj558EED5
 5233              		.align	1
 5234              		.weak	_ZN7daisysp9DelayLineIfLj558EED2Ev
 5235              		.syntax unified
 5236              		.thumb
 5237              		.thumb_func
 5239              	_ZN7daisysp9DelayLineIfLj558EED2Ev:
 5240              	.LFB5286:
  32:../DaisyExamples/DaisySP//Source/Utility/delayline.h ****     /** initializes the delay line by clearing the values within, and setting delay to 1 sample.
 5241              		.loc 19 32 5
 5242              		.cfi_startproc
ARM GAS  /var/folders/1_/rgbtf7293t93c5kflb58xcy40000gn/T//ccMetEze.s 			page 132


 5243              		@ args = 0, pretend = 0, frame = 8
 5244              		@ frame_needed = 1, uses_anonymous_args = 0
 5245              		@ link register save eliminated.
 5246 0000 80B4     		push	{r7}
 5247              		.cfi_def_cfa_offset 4
 5248              		.cfi_offset 7, -4
 5249 0002 83B0     		sub	sp, sp, #12
 5250              		.cfi_def_cfa_offset 16
 5251 0004 00AF     		add	r7, sp, #0
 5252              		.cfi_def_cfa_register 7
 5253 0006 7860     		str	r0, [r7, #4]
  32:../DaisyExamples/DaisySP//Source/Utility/delayline.h ****     /** initializes the delay line by clearing the values within, and setting delay to 1 sample.
 5254              		.loc 19 32 19
 5255 0008 7B68     		ldr	r3, [r7, #4]
 5256 000a 1846     		mov	r0, r3
 5257 000c 0C37     		adds	r7, r7, #12
 5258              		.cfi_def_cfa_offset 4
 5259 000e BD46     		mov	sp, r7
 5260              		.cfi_def_cfa_register 13
 5261              		@ sp needed
 5262 0010 5DF8047B 		ldr	r7, [sp], #4
 5263              		.cfi_restore 7
 5264              		.cfi_def_cfa_offset 0
 5265 0014 7047     		bx	lr
 5266              		.cfi_endproc
 5267              	.LFE5286:
 5269              		.weak	_ZN7daisysp9DelayLineIfLj558EED1Ev
 5270              		.thumb_set _ZN7daisysp9DelayLineIfLj558EED1Ev,_ZN7daisysp9DelayLineIfLj558EED2Ev
 5271              		.section	.text._GLOBAL__sub_I_patch,"ax",%progbits
 5272              		.align	1
 5273              		.syntax unified
 5274              		.thumb
 5275              		.thumb_func
 5277              	_GLOBAL__sub_I_patch:
 5278              	.LFB5288:
 5279              		.loc 18 222 1
 5280              		.cfi_startproc
 5281              		@ args = 0, pretend = 0, frame = 0
 5282              		@ frame_needed = 1, uses_anonymous_args = 0
 5283 0000 80B5     		push	{r7, lr}
 5284              		.cfi_def_cfa_offset 8
 5285              		.cfi_offset 7, -8
 5286              		.cfi_offset 14, -4
 5287 0002 00AF     		add	r7, sp, #0
 5288              		.cfi_def_cfa_register 7
 5289              		.loc 18 222 1
 5290 0004 4FF6FF71 		movw	r1, #65535
 5291 0008 0120     		movs	r0, #1
 5292 000a FFF7FEFF 		bl	_Z41__static_initialization_and_destruction_0ii
 5293 000e 80BD     		pop	{r7, pc}
 5294              		.cfi_endproc
 5295              	.LFE5288:
 5297              		.section	.init_array,"aw",%init_array
 5298              		.align	2
 5299 0000 00000000 		.word	_GLOBAL__sub_I_patch(target1)
 5300              		.text
 5301              	.Letext0:
ARM GAS  /var/folders/1_/rgbtf7293t93c5kflb58xcy40000gn/T//ccMetEze.s 			page 133


 5302              		.file 20 "/Library/DaisyToolchain/0.2.0/arm/arm-none-eabi/include/machine/_default_types.h"
 5303              		.file 21 "/Library/DaisyToolchain/0.2.0/arm/arm-none-eabi/include/sys/_stdint.h"
 5304              		.file 22 "/Library/DaisyToolchain/0.2.0/arm/arm-none-eabi/include/stdint.h"
 5305              		.file 23 "/Library/DaisyToolchain/0.2.0/arm/lib/gcc/arm-none-eabi/10.3.1/include/stddef.h"
 5306              		.file 24 "/Library/DaisyToolchain/0.2.0/arm/arm-none-eabi/include/c++/10.3.1/bits/cpp_type_traits.
 5307              		.file 25 "/Library/DaisyToolchain/0.2.0/arm/arm-none-eabi/include/c++/10.3.1/cstdint"
 5308              		.file 26 "/Library/DaisyToolchain/0.2.0/arm/arm-none-eabi/include/c++/10.3.1/cstdlib"
 5309              		.file 27 "/Library/DaisyToolchain/0.2.0/arm/arm-none-eabi/include/c++/10.3.1/type_traits"
 5310              		.file 28 "/Library/DaisyToolchain/0.2.0/arm/arm-none-eabi/include/c++/10.3.1/bits/stl_pair.h"
 5311              		.file 29 "/Library/DaisyToolchain/0.2.0/arm/arm-none-eabi/include/c++/10.3.1/debug/debug.h"
 5312              		.file 30 "/Library/DaisyToolchain/0.2.0/arm/arm-none-eabi/include/c++/10.3.1/cwchar"
 5313              		.file 31 "/Library/DaisyToolchain/0.2.0/arm/arm-none-eabi/include/c++/10.3.1/bits/exception_ptr.h"
 5314              		.file 32 "/Library/DaisyToolchain/0.2.0/arm/arm-none-eabi/include/c++/10.3.1/arm-none-eabi/thumb/v
 5315              		.file 33 "/Library/DaisyToolchain/0.2.0/arm/arm-none-eabi/include/c++/10.3.1/clocale"
 5316              		.file 34 "/Library/DaisyToolchain/0.2.0/arm/arm-none-eabi/include/c++/10.3.1/cstdio"
 5317              		.file 35 "/Library/DaisyToolchain/0.2.0/arm/arm-none-eabi/include/c++/10.3.1/bits/basic_string.h"
 5318              		.file 36 "/Library/DaisyToolchain/0.2.0/arm/arm-none-eabi/include/c++/10.3.1/bits/stl_iterator.h"
 5319              		.file 37 "/Library/DaisyToolchain/0.2.0/arm/arm-none-eabi/include/c++/10.3.1/bits/algorithmfwd.h"
 5320              		.file 38 "/Library/DaisyToolchain/0.2.0/arm/arm-none-eabi/include/c++/10.3.1/cstring"
 5321              		.file 39 "/Library/DaisyToolchain/0.2.0/arm/arm-none-eabi/include/c++/10.3.1/cstdarg"
 5322              		.file 40 "/Library/DaisyToolchain/0.2.0/arm/arm-none-eabi/include/c++/10.3.1/bits/predefined_ops.h
 5323              		.file 41 "/Library/DaisyToolchain/0.2.0/arm/arm-none-eabi/include/sys/_types.h"
 5324              		.file 42 "/Library/DaisyToolchain/0.2.0/arm/arm-none-eabi/include/sys/reent.h"
 5325              		.file 43 "/Library/DaisyToolchain/0.2.0/arm/arm-none-eabi/include/sys/lock.h"
 5326              		.file 44 "/Library/DaisyToolchain/0.2.0/arm/arm-none-eabi/include/math.h"
 5327              		.file 45 "/Library/DaisyToolchain/0.2.0/arm/arm-none-eabi/include/stdlib.h"
 5328              		.file 46 "/Library/DaisyToolchain/0.2.0/arm/arm-none-eabi/include/c++/10.3.1/math.h"
 5329              		.file 47 "../DaisyExamples/DaisySP//Source/Control/adenv.h"
 5330              		.file 48 "/Library/DaisyToolchain/0.2.0/arm/lib/gcc/arm-none-eabi/10.3.1/include/stdarg.h"
 5331              		.file 49 "/Library/DaisyToolchain/0.2.0/arm/arm-none-eabi/include/wchar.h"
 5332              		.file 50 "/Library/DaisyToolchain/0.2.0/arm/arm-none-eabi/include/locale.h"
 5333              		.file 51 "/Library/DaisyToolchain/0.2.0/arm/arm-none-eabi/include/stdio.h"
 5334              		.file 52 "/Library/DaisyToolchain/0.2.0/arm/arm-none-eabi/include/c++/10.3.1/stdlib.h"
 5335              		.file 53 "/Library/DaisyToolchain/0.2.0/arm/arm-none-eabi/include/string.h"
 5336              		.file 54 "../DaisyExamples/libDaisy//src/per/tim.h"
 5337              		.file 55 "../DaisyExamples/libDaisy//src/per/sai.h"
 5338              		.file 56 "../DaisyExamples/libDaisy//src/util/wav_format.h"
 5339              		.file 57 "../DaisyExamples/libDaisy//src/dev/max11300.h"
 5340              		.file 58 "../DaisyExamples/libDaisy//src/dev/sdram.h"
 5341              		.file 59 "../DaisyExamples/libDaisy//src/dev/sr_595.h"
 5342              		.file 60 "<built-in>"
ARM GAS  /var/folders/1_/rgbtf7293t93c5kflb58xcy40000gn/T//ccMetEze.s 			page 134


DEFINED SYMBOLS
                            *ABS*:0000000000000000 FDN_stereo.cpp
/var/folders/1_/rgbtf7293t93c5kflb58xcy40000gn/T//ccMetEze.s:19     .text._ZSt3absf:0000000000000000 $t
/var/folders/1_/rgbtf7293t93c5kflb58xcy40000gn/T//ccMetEze.s:25     .text._ZSt3absf:0000000000000000 _ZSt3absf
/var/folders/1_/rgbtf7293t93c5kflb58xcy40000gn/T//ccMetEze.s:59     .text._ZSt4ceilf:0000000000000000 $t
/var/folders/1_/rgbtf7293t93c5kflb58xcy40000gn/T//ccMetEze.s:65     .text._ZSt4ceilf:0000000000000000 _ZSt4ceilf
/var/folders/1_/rgbtf7293t93c5kflb58xcy40000gn/T//ccMetEze.s:99     .text._ZSt5floorf:0000000000000000 $t
/var/folders/1_/rgbtf7293t93c5kflb58xcy40000gn/T//ccMetEze.s:105    .text._ZSt5floorf:0000000000000000 _ZSt5floorf
/var/folders/1_/rgbtf7293t93c5kflb58xcy40000gn/T//ccMetEze.s:138    .rodata._ZStL19piecewise_construct:0000000000000000 $d
/var/folders/1_/rgbtf7293t93c5kflb58xcy40000gn/T//ccMetEze.s:141    .rodata._ZStL19piecewise_construct:0000000000000000 _ZStL19piecewise_construct
/var/folders/1_/rgbtf7293t93c5kflb58xcy40000gn/T//ccMetEze.s:144    .text._ZL20__gthread_key_deletei:0000000000000000 $t
/var/folders/1_/rgbtf7293t93c5kflb58xcy40000gn/T//ccMetEze.s:149    .text._ZL20__gthread_key_deletei:0000000000000000 _ZL20__gthread_key_deletei
/var/folders/1_/rgbtf7293t93c5kflb58xcy40000gn/T//ccMetEze.s:182    .rodata._ZN7daisyspL9kRandFracE:0000000000000000 $d
/var/folders/1_/rgbtf7293t93c5kflb58xcy40000gn/T//ccMetEze.s:185    .rodata._ZN7daisyspL9kRandFracE:0000000000000000 _ZN7daisyspL9kRandFracE
/var/folders/1_/rgbtf7293t93c5kflb58xcy40000gn/T//ccMetEze.s:188    .rodata._ZN7daisyspL11kOneTwelfthE:0000000000000000 $d
/var/folders/1_/rgbtf7293t93c5kflb58xcy40000gn/T//ccMetEze.s:191    .rodata._ZN7daisyspL11kOneTwelfthE:0000000000000000 _ZN7daisyspL11kOneTwelfthE
/var/folders/1_/rgbtf7293t93c5kflb58xcy40000gn/T//ccMetEze.s:194    .text._ZN7daisysp4fmaxEff:0000000000000000 $t
/var/folders/1_/rgbtf7293t93c5kflb58xcy40000gn/T//ccMetEze.s:200    .text._ZN7daisysp4fmaxEff:0000000000000000 _ZN7daisysp4fmaxEff
/var/folders/1_/rgbtf7293t93c5kflb58xcy40000gn/T//ccMetEze.s:245    .text._ZN7daisysp4fminEff:0000000000000000 $t
/var/folders/1_/rgbtf7293t93c5kflb58xcy40000gn/T//ccMetEze.s:251    .text._ZN7daisysp4fminEff:0000000000000000 _ZN7daisysp4fminEff
/var/folders/1_/rgbtf7293t93c5kflb58xcy40000gn/T//ccMetEze.s:295    .text._ZN7daisysp6fclampEfff:0000000000000000 $t
/var/folders/1_/rgbtf7293t93c5kflb58xcy40000gn/T//ccMetEze.s:301    .text._ZN7daisysp6fclampEfff:0000000000000000 _ZN7daisysp6fclampEfff
/var/folders/1_/rgbtf7293t93c5kflb58xcy40000gn/T//ccMetEze.s:339    .text._ZN7daisysp4fmapEfffNS_7MappingE:0000000000000000 $t
/var/folders/1_/rgbtf7293t93c5kflb58xcy40000gn/T//ccMetEze.s:345    .text._ZN7daisysp4fmapEfffNS_7MappingE:0000000000000000 _ZN7daisysp4fmapEfffNS_7MappingE
/var/folders/1_/rgbtf7293t93c5kflb58xcy40000gn/T//ccMetEze.s:458    .text._ZN5daisy3PinC2Ev:0000000000000000 $t
/var/folders/1_/rgbtf7293t93c5kflb58xcy40000gn/T//ccMetEze.s:464    .text._ZN5daisy3PinC2Ev:0000000000000000 _ZN5daisy3PinC2Ev
/var/folders/1_/rgbtf7293t93c5kflb58xcy40000gn/T//ccMetEze.s:464    .text._ZN5daisy3PinC2Ev:0000000000000000 _ZN5daisy3PinC1Ev
/var/folders/1_/rgbtf7293t93c5kflb58xcy40000gn/T//ccMetEze.s:507    .text._ZN5daisy6SystemC2Ev:0000000000000000 $t
/var/folders/1_/rgbtf7293t93c5kflb58xcy40000gn/T//ccMetEze.s:513    .text._ZN5daisy6SystemC2Ev:0000000000000000 _ZN5daisy6SystemC2Ev
/var/folders/1_/rgbtf7293t93c5kflb58xcy40000gn/T//ccMetEze.s:513    .text._ZN5daisy6SystemC2Ev:0000000000000000 _ZN5daisy6SystemC1Ev
/var/folders/1_/rgbtf7293t93c5kflb58xcy40000gn/T//ccMetEze.s:547    .text._ZN5daisy6SystemD2Ev:0000000000000000 $t
/var/folders/1_/rgbtf7293t93c5kflb58xcy40000gn/T//ccMetEze.s:553    .text._ZN5daisy6SystemD2Ev:0000000000000000 _ZN5daisy6SystemD2Ev
/var/folders/1_/rgbtf7293t93c5kflb58xcy40000gn/T//ccMetEze.s:553    .text._ZN5daisy6SystemD2Ev:0000000000000000 _ZN5daisy6SystemD1Ev
/var/folders/1_/rgbtf7293t93c5kflb58xcy40000gn/T//ccMetEze.s:586    .text._ZN5daisy10QSPIHandleC2Ev:0000000000000000 $t
/var/folders/1_/rgbtf7293t93c5kflb58xcy40000gn/T//ccMetEze.s:592    .text._ZN5daisy10QSPIHandleC2Ev:0000000000000000 _ZN5daisy10QSPIHandleC2Ev
/var/folders/1_/rgbtf7293t93c5kflb58xcy40000gn/T//ccMetEze.s:592    .text._ZN5daisy10QSPIHandleC2Ev:0000000000000000 _ZN5daisy10QSPIHandleC1Ev
/var/folders/1_/rgbtf7293t93c5kflb58xcy40000gn/T//ccMetEze.s:632    .text._ZN5daisy9DacHandleC2Ev:0000000000000000 $t
/var/folders/1_/rgbtf7293t93c5kflb58xcy40000gn/T//ccMetEze.s:638    .text._ZN5daisy9DacHandleC2Ev:0000000000000000 _ZN5daisy9DacHandleC2Ev
/var/folders/1_/rgbtf7293t93c5kflb58xcy40000gn/T//ccMetEze.s:638    .text._ZN5daisy9DacHandleC2Ev:0000000000000000 _ZN5daisy9DacHandleC1Ev
/var/folders/1_/rgbtf7293t93c5kflb58xcy40000gn/T//ccMetEze.s:678    .text._ZN5daisy4GPIO6ConfigC2Ev:0000000000000000 $t
/var/folders/1_/rgbtf7293t93c5kflb58xcy40000gn/T//ccMetEze.s:684    .text._ZN5daisy4GPIO6ConfigC2Ev:0000000000000000 _ZN5daisy4GPIO6ConfigC2Ev
/var/folders/1_/rgbtf7293t93c5kflb58xcy40000gn/T//ccMetEze.s:684    .text._ZN5daisy4GPIO6ConfigC2Ev:0000000000000000 _ZN5daisy4GPIO6ConfigC1Ev
/var/folders/1_/rgbtf7293t93c5kflb58xcy40000gn/T//ccMetEze.s:730    .text._ZN5daisy4GPIOC2Ev:0000000000000000 $t
/var/folders/1_/rgbtf7293t93c5kflb58xcy40000gn/T//ccMetEze.s:736    .text._ZN5daisy4GPIOC2Ev:0000000000000000 _ZN5daisy4GPIOC2Ev
/var/folders/1_/rgbtf7293t93c5kflb58xcy40000gn/T//ccMetEze.s:736    .text._ZN5daisy4GPIOC2Ev:0000000000000000 _ZN5daisy4GPIOC1Ev
/var/folders/1_/rgbtf7293t93c5kflb58xcy40000gn/T//ccMetEze.s:772    .text._ZN5daisy9I2CHandleC2Ev:0000000000000000 $t
/var/folders/1_/rgbtf7293t93c5kflb58xcy40000gn/T//ccMetEze.s:778    .text._ZN5daisy9I2CHandleC2Ev:0000000000000000 _ZN5daisy9I2CHandleC2Ev
/var/folders/1_/rgbtf7293t93c5kflb58xcy40000gn/T//ccMetEze.s:778    .text._ZN5daisy9I2CHandleC2Ev:0000000000000000 _ZN5daisy9I2CHandleC1Ev
/var/folders/1_/rgbtf7293t93c5kflb58xcy40000gn/T//ccMetEze.s:818    .text._ZN5daisy11AudioHandleC2Ev:0000000000000000 $t
/var/folders/1_/rgbtf7293t93c5kflb58xcy40000gn/T//ccMetEze.s:824    .text._ZN5daisy11AudioHandleC2Ev:0000000000000000 _ZN5daisy11AudioHandleC2Ev
/var/folders/1_/rgbtf7293t93c5kflb58xcy40000gn/T//ccMetEze.s:824    .text._ZN5daisy11AudioHandleC2Ev:0000000000000000 _ZN5daisy11AudioHandleC1Ev
/var/folders/1_/rgbtf7293t93c5kflb58xcy40000gn/T//ccMetEze.s:864    .text._ZN5daisy11AudioHandleD2Ev:0000000000000000 $t
/var/folders/1_/rgbtf7293t93c5kflb58xcy40000gn/T//ccMetEze.s:870    .text._ZN5daisy11AudioHandleD2Ev:0000000000000000 _ZN5daisy11AudioHandleD2Ev
/var/folders/1_/rgbtf7293t93c5kflb58xcy40000gn/T//ccMetEze.s:870    .text._ZN5daisy11AudioHandleD2Ev:0000000000000000 _ZN5daisy11AudioHandleD1Ev
/var/folders/1_/rgbtf7293t93c5kflb58xcy40000gn/T//ccMetEze.s:903    .text._ZN5daisy9AdcHandleC2Ev:0000000000000000 $t
/var/folders/1_/rgbtf7293t93c5kflb58xcy40000gn/T//ccMetEze.s:909    .text._ZN5daisy9AdcHandleC2Ev:0000000000000000 _ZN5daisy9AdcHandleC2Ev
/var/folders/1_/rgbtf7293t93c5kflb58xcy40000gn/T//ccMetEze.s:909    .text._ZN5daisy9AdcHandleC2Ev:0000000000000000 _ZN5daisy9AdcHandleC1Ev
ARM GAS  /var/folders/1_/rgbtf7293t93c5kflb58xcy40000gn/T//ccMetEze.s 			page 135


/var/folders/1_/rgbtf7293t93c5kflb58xcy40000gn/T//ccMetEze.s:943    .text._ZN5daisy9AdcHandleD2Ev:0000000000000000 $t
/var/folders/1_/rgbtf7293t93c5kflb58xcy40000gn/T//ccMetEze.s:949    .text._ZN5daisy9AdcHandleD2Ev:0000000000000000 _ZN5daisy9AdcHandleD2Ev
/var/folders/1_/rgbtf7293t93c5kflb58xcy40000gn/T//ccMetEze.s:949    .text._ZN5daisy9AdcHandleD2Ev:0000000000000000 _ZN5daisy9AdcHandleD1Ev
/var/folders/1_/rgbtf7293t93c5kflb58xcy40000gn/T//ccMetEze.s:982    .text._ZN5daisy9UsbHandleC2Ev:0000000000000000 $t
/var/folders/1_/rgbtf7293t93c5kflb58xcy40000gn/T//ccMetEze.s:988    .text._ZN5daisy9UsbHandleC2Ev:0000000000000000 _ZN5daisy9UsbHandleC2Ev
/var/folders/1_/rgbtf7293t93c5kflb58xcy40000gn/T//ccMetEze.s:988    .text._ZN5daisy9UsbHandleC2Ev:0000000000000000 _ZN5daisy9UsbHandleC1Ev
/var/folders/1_/rgbtf7293t93c5kflb58xcy40000gn/T//ccMetEze.s:1022   .text._ZN5daisy9UsbHandleD2Ev:0000000000000000 $t
/var/folders/1_/rgbtf7293t93c5kflb58xcy40000gn/T//ccMetEze.s:1028   .text._ZN5daisy9UsbHandleD2Ev:0000000000000000 _ZN5daisy9UsbHandleD2Ev
/var/folders/1_/rgbtf7293t93c5kflb58xcy40000gn/T//ccMetEze.s:1028   .text._ZN5daisy9UsbHandleD2Ev:0000000000000000 _ZN5daisy9UsbHandleD1Ev
/var/folders/1_/rgbtf7293t93c5kflb58xcy40000gn/T//ccMetEze.s:1061   .text._ZN5daisy13AnalogControlC2Ev:0000000000000000 $t
/var/folders/1_/rgbtf7293t93c5kflb58xcy40000gn/T//ccMetEze.s:1067   .text._ZN5daisy13AnalogControlC2Ev:0000000000000000 _ZN5daisy13AnalogControlC2Ev
/var/folders/1_/rgbtf7293t93c5kflb58xcy40000gn/T//ccMetEze.s:1067   .text._ZN5daisy13AnalogControlC2Ev:0000000000000000 _ZN5daisy13AnalogControlC1Ev
/var/folders/1_/rgbtf7293t93c5kflb58xcy40000gn/T//ccMetEze.s:1101   .text._ZN5daisy13AnalogControlD2Ev:0000000000000000 $t
/var/folders/1_/rgbtf7293t93c5kflb58xcy40000gn/T//ccMetEze.s:1107   .text._ZN5daisy13AnalogControlD2Ev:0000000000000000 _ZN5daisy13AnalogControlD2Ev
/var/folders/1_/rgbtf7293t93c5kflb58xcy40000gn/T//ccMetEze.s:1107   .text._ZN5daisy13AnalogControlD2Ev:0000000000000000 _ZN5daisy13AnalogControlD1Ev
/var/folders/1_/rgbtf7293t93c5kflb58xcy40000gn/T//ccMetEze.s:1140   .text._ZN5daisy6GateInC2Ev:0000000000000000 $t
/var/folders/1_/rgbtf7293t93c5kflb58xcy40000gn/T//ccMetEze.s:1146   .text._ZN5daisy6GateInC2Ev:0000000000000000 _ZN5daisy6GateInC2Ev
/var/folders/1_/rgbtf7293t93c5kflb58xcy40000gn/T//ccMetEze.s:1146   .text._ZN5daisy6GateInC2Ev:0000000000000000 _ZN5daisy6GateInC1Ev
/var/folders/1_/rgbtf7293t93c5kflb58xcy40000gn/T//ccMetEze.s:1183   .text._ZN5daisy6GateInD2Ev:0000000000000000 $t
/var/folders/1_/rgbtf7293t93c5kflb58xcy40000gn/T//ccMetEze.s:1189   .text._ZN5daisy6GateInD2Ev:0000000000000000 _ZN5daisy6GateInD2Ev
/var/folders/1_/rgbtf7293t93c5kflb58xcy40000gn/T//ccMetEze.s:1189   .text._ZN5daisy6GateInD2Ev:0000000000000000 _ZN5daisy6GateInD1Ev
/var/folders/1_/rgbtf7293t93c5kflb58xcy40000gn/T//ccMetEze.s:1222   .rodata._ZN5daisyL15kWavFileChunkIdE:0000000000000000 $d
/var/folders/1_/rgbtf7293t93c5kflb58xcy40000gn/T//ccMetEze.s:1225   .rodata._ZN5daisyL15kWavFileChunkIdE:0000000000000000 _ZN5daisyL15kWavFileChunkIdE
/var/folders/1_/rgbtf7293t93c5kflb58xcy40000gn/T//ccMetEze.s:1228   .rodata._ZN5daisyL14kWavFileWaveIdE:0000000000000000 $d
/var/folders/1_/rgbtf7293t93c5kflb58xcy40000gn/T//ccMetEze.s:1231   .rodata._ZN5daisyL14kWavFileWaveIdE:0000000000000000 _ZN5daisyL14kWavFileWaveIdE
/var/folders/1_/rgbtf7293t93c5kflb58xcy40000gn/T//ccMetEze.s:1234   .rodata._ZN5daisyL19kWavFileSubChunk1IdE:0000000000000000 $d
/var/folders/1_/rgbtf7293t93c5kflb58xcy40000gn/T//ccMetEze.s:1237   .rodata._ZN5daisyL19kWavFileSubChunk1IdE:0000000000000000 _ZN5daisyL19kWavFileSubChunk1IdE
/var/folders/1_/rgbtf7293t93c5kflb58xcy40000gn/T//ccMetEze.s:1240   .rodata._ZN5daisyL19kWavFileSubChunk2IdE:0000000000000000 $d
/var/folders/1_/rgbtf7293t93c5kflb58xcy40000gn/T//ccMetEze.s:1243   .rodata._ZN5daisyL19kWavFileSubChunk2IdE:0000000000000000 _ZN5daisyL19kWavFileSubChunk2IdE
/var/folders/1_/rgbtf7293t93c5kflb58xcy40000gn/T//ccMetEze.s:1246   .rodata._ZL19kMaxSr595DaisyChain:0000000000000000 $d
/var/folders/1_/rgbtf7293t93c5kflb58xcy40000gn/T//ccMetEze.s:1249   .rodata._ZL19kMaxSr595DaisyChain:0000000000000000 _ZL19kMaxSr595DaisyChain
/var/folders/1_/rgbtf7293t93c5kflb58xcy40000gn/T//ccMetEze.s:1252   .text._ZN5daisy7Pcm3060C2Ev:0000000000000000 $t
/var/folders/1_/rgbtf7293t93c5kflb58xcy40000gn/T//ccMetEze.s:1258   .text._ZN5daisy7Pcm3060C2Ev:0000000000000000 _ZN5daisy7Pcm3060C2Ev
/var/folders/1_/rgbtf7293t93c5kflb58xcy40000gn/T//ccMetEze.s:1258   .text._ZN5daisy7Pcm3060C2Ev:0000000000000000 _ZN5daisy7Pcm3060C1Ev
/var/folders/1_/rgbtf7293t93c5kflb58xcy40000gn/T//ccMetEze.s:1295   .text._ZN5daisy7Pcm3060D2Ev:0000000000000000 $t
/var/folders/1_/rgbtf7293t93c5kflb58xcy40000gn/T//ccMetEze.s:1301   .text._ZN5daisy7Pcm3060D2Ev:0000000000000000 _ZN5daisy7Pcm3060D2Ev
/var/folders/1_/rgbtf7293t93c5kflb58xcy40000gn/T//ccMetEze.s:1301   .text._ZN5daisy7Pcm3060D2Ev:0000000000000000 _ZN5daisy7Pcm3060D1Ev
/var/folders/1_/rgbtf7293t93c5kflb58xcy40000gn/T//ccMetEze.s:1334   .text._ZN5daisy8patch_sm12DaisyPatchSMC2Ev:0000000000000000 $t
/var/folders/1_/rgbtf7293t93c5kflb58xcy40000gn/T//ccMetEze.s:1340   .text._ZN5daisy8patch_sm12DaisyPatchSMC2Ev:0000000000000000 _ZN5daisy8patch_sm12DaisyPatchSMC2Ev
/var/folders/1_/rgbtf7293t93c5kflb58xcy40000gn/T//ccMetEze.s:1340   .text._ZN5daisy8patch_sm12DaisyPatchSMC2Ev:0000000000000000 _ZN5daisy8patch_sm12DaisyPatchSMC1Ev
/var/folders/1_/rgbtf7293t93c5kflb58xcy40000gn/T//ccMetEze.s:1427   .text._ZN5daisy8patch_sm12DaisyPatchSMD2Ev:0000000000000000 $t
/var/folders/1_/rgbtf7293t93c5kflb58xcy40000gn/T//ccMetEze.s:1433   .text._ZN5daisy8patch_sm12DaisyPatchSMD2Ev:0000000000000000 _ZN5daisy8patch_sm12DaisyPatchSMD2Ev
/var/folders/1_/rgbtf7293t93c5kflb58xcy40000gn/T//ccMetEze.s:1433   .text._ZN5daisy8patch_sm12DaisyPatchSMD2Ev:0000000000000000 _ZN5daisy8patch_sm12DaisyPatchSMD1Ev
/var/folders/1_/rgbtf7293t93c5kflb58xcy40000gn/T//ccMetEze.s:1519   .bss.patch:0000000000000000 patch
/var/folders/1_/rgbtf7293t93c5kflb58xcy40000gn/T//ccMetEze.s:1516   .bss.patch:0000000000000000 $d
/var/folders/1_/rgbtf7293t93c5kflb58xcy40000gn/T//ccMetEze.s:1522   .bss._ZL9FDN_del_L:0000000000000000 $d
/var/folders/1_/rgbtf7293t93c5kflb58xcy40000gn/T//ccMetEze.s:1525   .bss._ZL9FDN_del_L:0000000000000000 _ZL9FDN_del_L
/var/folders/1_/rgbtf7293t93c5kflb58xcy40000gn/T//ccMetEze.s:1528   .bss._ZL9FDN_del_R:0000000000000000 $d
/var/folders/1_/rgbtf7293t93c5kflb58xcy40000gn/T//ccMetEze.s:1531   .bss._ZL9FDN_del_R:0000000000000000 _ZL9FDN_del_R
/var/folders/1_/rgbtf7293t93c5kflb58xcy40000gn/T//ccMetEze.s:1534   .bss._ZL9lpf_del_L:0000000000000000 $d
/var/folders/1_/rgbtf7293t93c5kflb58xcy40000gn/T//ccMetEze.s:1537   .bss._ZL9lpf_del_L:0000000000000000 _ZL9lpf_del_L
/var/folders/1_/rgbtf7293t93c5kflb58xcy40000gn/T//ccMetEze.s:1540   .bss._ZL9lpf_del_R:0000000000000000 $d
/var/folders/1_/rgbtf7293t93c5kflb58xcy40000gn/T//ccMetEze.s:1543   .bss._ZL9lpf_del_R:0000000000000000 _ZL9lpf_del_R
/var/folders/1_/rgbtf7293t93c5kflb58xcy40000gn/T//ccMetEze.s:1546   .bss._ZL7apf_del:0000000000000000 $d
/var/folders/1_/rgbtf7293t93c5kflb58xcy40000gn/T//ccMetEze.s:1549   .bss._ZL7apf_del:0000000000000000 _ZL7apf_del
/var/folders/1_/rgbtf7293t93c5kflb58xcy40000gn/T//ccMetEze.s:1552   .rodata._ZL15hadamard_matrix:0000000000000000 $d
/var/folders/1_/rgbtf7293t93c5kflb58xcy40000gn/T//ccMetEze.s:1555   .rodata._ZL15hadamard_matrix:0000000000000000 _ZL15hadamard_matrix
ARM GAS  /var/folders/1_/rgbtf7293t93c5kflb58xcy40000gn/T//ccMetEze.s 			page 136


/var/folders/1_/rgbtf7293t93c5kflb58xcy40000gn/T//ccMetEze.s:1561   .rodata._ZL6primes:0000000000000000 $d
/var/folders/1_/rgbtf7293t93c5kflb58xcy40000gn/T//ccMetEze.s:1564   .rodata._ZL6primes:0000000000000000 _ZL6primes
/var/folders/1_/rgbtf7293t93c5kflb58xcy40000gn/T//ccMetEze.s:2239   .bss.selectedPrimes:0000000000000000 selectedPrimes
/var/folders/1_/rgbtf7293t93c5kflb58xcy40000gn/T//ccMetEze.s:2236   .bss.selectedPrimes:0000000000000000 $d
/var/folders/1_/rgbtf7293t93c5kflb58xcy40000gn/T//ccMetEze.s:2246   .bss.u:0000000000000000 u
/var/folders/1_/rgbtf7293t93c5kflb58xcy40000gn/T//ccMetEze.s:2243   .bss.u:0000000000000000 $d
/var/folders/1_/rgbtf7293t93c5kflb58xcy40000gn/T//ccMetEze.s:2253   .bss.sig_out_L:0000000000000000 sig_out_L
/var/folders/1_/rgbtf7293t93c5kflb58xcy40000gn/T//ccMetEze.s:2250   .bss.sig_out_L:0000000000000000 $d
/var/folders/1_/rgbtf7293t93c5kflb58xcy40000gn/T//ccMetEze.s:2260   .bss.sig_out_R:0000000000000000 sig_out_R
/var/folders/1_/rgbtf7293t93c5kflb58xcy40000gn/T//ccMetEze.s:2257   .bss.sig_out_R:0000000000000000 $d
/var/folders/1_/rgbtf7293t93c5kflb58xcy40000gn/T//ccMetEze.s:2267   .bss.lpf_y_L:0000000000000000 lpf_y_L
/var/folders/1_/rgbtf7293t93c5kflb58xcy40000gn/T//ccMetEze.s:2264   .bss.lpf_y_L:0000000000000000 $d
/var/folders/1_/rgbtf7293t93c5kflb58xcy40000gn/T//ccMetEze.s:2274   .bss.lpf_y_R:0000000000000000 lpf_y_R
/var/folders/1_/rgbtf7293t93c5kflb58xcy40000gn/T//ccMetEze.s:2271   .bss.lpf_y_R:0000000000000000 $d
/var/folders/1_/rgbtf7293t93c5kflb58xcy40000gn/T//ccMetEze.s:2281   .bss.apf_del_out:0000000000000000 apf_del_out
/var/folders/1_/rgbtf7293t93c5kflb58xcy40000gn/T//ccMetEze.s:2278   .bss.apf_del_out:0000000000000000 $d
/var/folders/1_/rgbtf7293t93c5kflb58xcy40000gn/T//ccMetEze.s:2288   .bss.apf_feedback:0000000000000000 apf_feedback
/var/folders/1_/rgbtf7293t93c5kflb58xcy40000gn/T//ccMetEze.s:2285   .bss.apf_feedback:0000000000000000 $d
/var/folders/1_/rgbtf7293t93c5kflb58xcy40000gn/T//ccMetEze.s:2295   .bss.apf_y:0000000000000000 apf_y
/var/folders/1_/rgbtf7293t93c5kflb58xcy40000gn/T//ccMetEze.s:2292   .bss.apf_y:0000000000000000 $d
/var/folders/1_/rgbtf7293t93c5kflb58xcy40000gn/T//ccMetEze.s:2302   .bss.FDN_del_out_L:0000000000000000 FDN_del_out_L
/var/folders/1_/rgbtf7293t93c5kflb58xcy40000gn/T//ccMetEze.s:2299   .bss.FDN_del_out_L:0000000000000000 $d
/var/folders/1_/rgbtf7293t93c5kflb58xcy40000gn/T//ccMetEze.s:2309   .bss.FDN_del_out_R:0000000000000000 FDN_del_out_R
/var/folders/1_/rgbtf7293t93c5kflb58xcy40000gn/T//ccMetEze.s:2306   .bss.FDN_del_out_R:0000000000000000 $d
/var/folders/1_/rgbtf7293t93c5kflb58xcy40000gn/T//ccMetEze.s:2316   .bss.FDN_feedback_L:0000000000000000 FDN_feedback_L
/var/folders/1_/rgbtf7293t93c5kflb58xcy40000gn/T//ccMetEze.s:2313   .bss.FDN_feedback_L:0000000000000000 $d
/var/folders/1_/rgbtf7293t93c5kflb58xcy40000gn/T//ccMetEze.s:2323   .bss.FDN_feedback_R:0000000000000000 FDN_feedback_R
/var/folders/1_/rgbtf7293t93c5kflb58xcy40000gn/T//ccMetEze.s:2320   .bss.FDN_feedback_R:0000000000000000 $d
/var/folders/1_/rgbtf7293t93c5kflb58xcy40000gn/T//ccMetEze.s:2329   .bss.idx:0000000000000000 idx
/var/folders/1_/rgbtf7293t93c5kflb58xcy40000gn/T//ccMetEze.s:2330   .bss.idx:0000000000000000 $d
/var/folders/1_/rgbtf7293t93c5kflb58xcy40000gn/T//ccMetEze.s:2335   .bss.r:0000000000000000 r
/var/folders/1_/rgbtf7293t93c5kflb58xcy40000gn/T//ccMetEze.s:2336   .bss.r:0000000000000000 $d
/var/folders/1_/rgbtf7293t93c5kflb58xcy40000gn/T//ccMetEze.s:2341   .bss.c:0000000000000000 c
/var/folders/1_/rgbtf7293t93c5kflb58xcy40000gn/T//ccMetEze.s:2342   .bss.c:0000000000000000 $d
/var/folders/1_/rgbtf7293t93c5kflb58xcy40000gn/T//ccMetEze.s:2348   .bss.wetCV:0000000000000000 wetCV
/var/folders/1_/rgbtf7293t93c5kflb58xcy40000gn/T//ccMetEze.s:2345   .bss.wetCV:0000000000000000 $d
/var/folders/1_/rgbtf7293t93c5kflb58xcy40000gn/T//ccMetEze.s:2355   .bss.lengthCV:0000000000000000 lengthCV
/var/folders/1_/rgbtf7293t93c5kflb58xcy40000gn/T//ccMetEze.s:2352   .bss.lengthCV:0000000000000000 $d
/var/folders/1_/rgbtf7293t93c5kflb58xcy40000gn/T//ccMetEze.s:2362   .bss.densityCV:0000000000000000 densityCV
/var/folders/1_/rgbtf7293t93c5kflb58xcy40000gn/T//ccMetEze.s:2359   .bss.densityCV:0000000000000000 $d
/var/folders/1_/rgbtf7293t93c5kflb58xcy40000gn/T//ccMetEze.s:2369   .bss.feedbackGainCV:0000000000000000 feedbackGainCV
/var/folders/1_/rgbtf7293t93c5kflb58xcy40000gn/T//ccMetEze.s:2366   .bss.feedbackGainCV:0000000000000000 $d
/var/folders/1_/rgbtf7293t93c5kflb58xcy40000gn/T//ccMetEze.s:2376   .bss.dryFactor:0000000000000000 dryFactor
/var/folders/1_/rgbtf7293t93c5kflb58xcy40000gn/T//ccMetEze.s:2373   .bss.dryFactor:0000000000000000 $d
/var/folders/1_/rgbtf7293t93c5kflb58xcy40000gn/T//ccMetEze.s:2383   .bss.wetFactor:0000000000000000 wetFactor
/var/folders/1_/rgbtf7293t93c5kflb58xcy40000gn/T//ccMetEze.s:2380   .bss.wetFactor:0000000000000000 $d
/var/folders/1_/rgbtf7293t93c5kflb58xcy40000gn/T//ccMetEze.s:2386   .text._ZL13AudioCallbackPKfPfj:0000000000000000 $t
/var/folders/1_/rgbtf7293t93c5kflb58xcy40000gn/T//ccMetEze.s:2391   .text._ZL13AudioCallbackPKfPfj:0000000000000000 _ZL13AudioCallbackPKfPfj
/var/folders/1_/rgbtf7293t93c5kflb58xcy40000gn/T//ccMetEze.s:3828   .text._ZNK7daisysp9DelayLineIfLj5000EE4ReadEv:0000000000000000 _ZNK7daisysp9DelayLineIfLj5000EE4ReadEv
/var/folders/1_/rgbtf7293t93c5kflb58xcy40000gn/T//ccMetEze.s:3928   .text._ZNK7daisysp9DelayLineIfLj1EE4ReadEv:0000000000000000 _ZNK7daisysp9DelayLineIfLj1EE4ReadEv
/var/folders/1_/rgbtf7293t93c5kflb58xcy40000gn/T//ccMetEze.s:3984   .text._ZN7daisysp9DelayLineIfLj1EE5WriteEf:0000000000000000 _ZN7daisysp9DelayLineIfLj1EE5WriteEf
/var/folders/1_/rgbtf7293t93c5kflb58xcy40000gn/T//ccMetEze.s:2769   .text._ZL13AudioCallbackPKfPfj:0000000000000324 $d
/var/folders/1_/rgbtf7293t93c5kflb58xcy40000gn/T//ccMetEze.s:2795   .text._ZL13AudioCallbackPKfPfj:0000000000000384 $t
/var/folders/1_/rgbtf7293t93c5kflb58xcy40000gn/T//ccMetEze.s:4036   .text._ZN7daisysp9DelayLineIfLj5000EE5WriteEf:0000000000000000 _ZN7daisysp9DelayLineIfLj5000EE5WriteEf
/var/folders/1_/rgbtf7293t93c5kflb58xcy40000gn/T//ccMetEze.s:4104   .text._ZNK7daisysp9DelayLineIfLj558EE4ReadEv:0000000000000000 _ZNK7daisysp9DelayLineIfLj558EE4ReadEv
/var/folders/1_/rgbtf7293t93c5kflb58xcy40000gn/T//ccMetEze.s:4204   .text._ZN7daisysp9DelayLineIfLj558EE5WriteEf:0000000000000000 _ZN7daisysp9DelayLineIfLj558EE5WriteEf
/var/folders/1_/rgbtf7293t93c5kflb58xcy40000gn/T//ccMetEze.s:3109   .text._ZL13AudioCallbackPKfPfj:0000000000000630 $d
ARM GAS  /var/folders/1_/rgbtf7293t93c5kflb58xcy40000gn/T//ccMetEze.s 			page 137


/var/folders/1_/rgbtf7293t93c5kflb58xcy40000gn/T//ccMetEze.s:3129   .text._ZL13AudioCallbackPKfPfj:0000000000000678 $t
/var/folders/1_/rgbtf7293t93c5kflb58xcy40000gn/T//ccMetEze.s:4271   .text._ZN7daisysp9DelayLineIfLj5000EE8SetDelayEj:0000000000000000 _ZN7daisysp9DelayLineIfLj5000EE8SetDelayEj
/var/folders/1_/rgbtf7293t93c5kflb58xcy40000gn/T//ccMetEze.s:3437   .text._ZL13AudioCallbackPKfPfj:00000000000008e0 $d
/var/folders/1_/rgbtf7293t93c5kflb58xcy40000gn/T//ccMetEze.s:3459   .rodata:0000000000000000 $d
/var/folders/1_/rgbtf7293t93c5kflb58xcy40000gn/T//ccMetEze.s:3472   .text.main:0000000000000000 $t
/var/folders/1_/rgbtf7293t93c5kflb58xcy40000gn/T//ccMetEze.s:3478   .text.main:0000000000000000 main
/var/folders/1_/rgbtf7293t93c5kflb58xcy40000gn/T//ccMetEze.s:4321   .text._ZN7daisysp9DelayLineIfLj1EE4InitEv:0000000000000000 _ZN7daisysp9DelayLineIfLj1EE4InitEv
/var/folders/1_/rgbtf7293t93c5kflb58xcy40000gn/T//ccMetEze.s:4357   .text._ZN7daisysp9DelayLineIfLj1EE8SetDelayEj:0000000000000000 _ZN7daisysp9DelayLineIfLj1EE8SetDelayEj
/var/folders/1_/rgbtf7293t93c5kflb58xcy40000gn/T//ccMetEze.s:4402   .text._ZN7daisysp9DelayLineIfLj5000EE4InitEv:0000000000000000 _ZN7daisysp9DelayLineIfLj5000EE4InitEv
/var/folders/1_/rgbtf7293t93c5kflb58xcy40000gn/T//ccMetEze.s:4438   .text._ZN7daisysp9DelayLineIfLj558EE4InitEv:0000000000000000 _ZN7daisysp9DelayLineIfLj558EE4InitEv
/var/folders/1_/rgbtf7293t93c5kflb58xcy40000gn/T//ccMetEze.s:4474   .text._ZN7daisysp9DelayLineIfLj558EE8SetDelayEj:0000000000000000 _ZN7daisysp9DelayLineIfLj558EE8SetDelayEj
/var/folders/1_/rgbtf7293t93c5kflb58xcy40000gn/T//ccMetEze.s:3690   .text.main:0000000000000174 $d
/var/folders/1_/rgbtf7293t93c5kflb58xcy40000gn/T//ccMetEze.s:3704   .text._ZN7daisysp9DelayLineIfLj5000EEC2Ev:0000000000000000 $t
/var/folders/1_/rgbtf7293t93c5kflb58xcy40000gn/T//ccMetEze.s:3710   .text._ZN7daisysp9DelayLineIfLj5000EEC2Ev:0000000000000000 _ZN7daisysp9DelayLineIfLj5000EEC2Ev
/var/folders/1_/rgbtf7293t93c5kflb58xcy40000gn/T//ccMetEze.s:3710   .text._ZN7daisysp9DelayLineIfLj5000EEC2Ev:0000000000000000 _ZN7daisysp9DelayLineIfLj5000EEC1Ev
/var/folders/1_/rgbtf7293t93c5kflb58xcy40000gn/T//ccMetEze.s:3744   .text._ZN7daisysp9DelayLineIfLj1EEC2Ev:0000000000000000 $t
/var/folders/1_/rgbtf7293t93c5kflb58xcy40000gn/T//ccMetEze.s:3750   .text._ZN7daisysp9DelayLineIfLj1EEC2Ev:0000000000000000 _ZN7daisysp9DelayLineIfLj1EEC2Ev
/var/folders/1_/rgbtf7293t93c5kflb58xcy40000gn/T//ccMetEze.s:3750   .text._ZN7daisysp9DelayLineIfLj1EEC2Ev:0000000000000000 _ZN7daisysp9DelayLineIfLj1EEC1Ev
/var/folders/1_/rgbtf7293t93c5kflb58xcy40000gn/T//ccMetEze.s:3783   .text._ZN7daisysp9DelayLineIfLj558EEC2Ev:0000000000000000 $t
/var/folders/1_/rgbtf7293t93c5kflb58xcy40000gn/T//ccMetEze.s:3789   .text._ZN7daisysp9DelayLineIfLj558EEC2Ev:0000000000000000 _ZN7daisysp9DelayLineIfLj558EEC2Ev
/var/folders/1_/rgbtf7293t93c5kflb58xcy40000gn/T//ccMetEze.s:3789   .text._ZN7daisysp9DelayLineIfLj558EEC2Ev:0000000000000000 _ZN7daisysp9DelayLineIfLj558EEC1Ev
/var/folders/1_/rgbtf7293t93c5kflb58xcy40000gn/T//ccMetEze.s:3822   .text._ZNK7daisysp9DelayLineIfLj5000EE4ReadEv:0000000000000000 $t
/var/folders/1_/rgbtf7293t93c5kflb58xcy40000gn/T//ccMetEze.s:3917   .text._ZNK7daisysp9DelayLineIfLj5000EE4ReadEv:000000000000008c $d
/var/folders/1_/rgbtf7293t93c5kflb58xcy40000gn/T//ccMetEze.s:3922   .text._ZNK7daisysp9DelayLineIfLj1EE4ReadEv:0000000000000000 $t
/var/folders/1_/rgbtf7293t93c5kflb58xcy40000gn/T//ccMetEze.s:3978   .text._ZN7daisysp9DelayLineIfLj1EE5WriteEf:0000000000000000 $t
/var/folders/1_/rgbtf7293t93c5kflb58xcy40000gn/T//ccMetEze.s:4030   .text._ZN7daisysp9DelayLineIfLj5000EE5WriteEf:0000000000000000 $t
/var/folders/1_/rgbtf7293t93c5kflb58xcy40000gn/T//ccMetEze.s:4093   .text._ZN7daisysp9DelayLineIfLj5000EE5WriteEf:000000000000004c $d
/var/folders/1_/rgbtf7293t93c5kflb58xcy40000gn/T//ccMetEze.s:4098   .text._ZNK7daisysp9DelayLineIfLj558EE4ReadEv:0000000000000000 $t
/var/folders/1_/rgbtf7293t93c5kflb58xcy40000gn/T//ccMetEze.s:4193   .text._ZNK7daisysp9DelayLineIfLj558EE4ReadEv:000000000000008c $d
/var/folders/1_/rgbtf7293t93c5kflb58xcy40000gn/T//ccMetEze.s:4198   .text._ZN7daisysp9DelayLineIfLj558EE5WriteEf:0000000000000000 $t
/var/folders/1_/rgbtf7293t93c5kflb58xcy40000gn/T//ccMetEze.s:4260   .text._ZN7daisysp9DelayLineIfLj558EE5WriteEf:0000000000000048 $d
/var/folders/1_/rgbtf7293t93c5kflb58xcy40000gn/T//ccMetEze.s:4265   .text._ZN7daisysp9DelayLineIfLj5000EE8SetDelayEj:0000000000000000 $t
/var/folders/1_/rgbtf7293t93c5kflb58xcy40000gn/T//ccMetEze.s:4315   .text._ZN7daisysp9DelayLineIfLj1EE4InitEv:0000000000000000 $t
/var/folders/1_/rgbtf7293t93c5kflb58xcy40000gn/T//ccMetEze.s:4524   .text._ZN7daisysp9DelayLineIfLj1EE5ResetEv:0000000000000000 _ZN7daisysp9DelayLineIfLj1EE5ResetEv
/var/folders/1_/rgbtf7293t93c5kflb58xcy40000gn/T//ccMetEze.s:4351   .text._ZN7daisysp9DelayLineIfLj1EE8SetDelayEj:0000000000000000 $t
/var/folders/1_/rgbtf7293t93c5kflb58xcy40000gn/T//ccMetEze.s:4396   .text._ZN7daisysp9DelayLineIfLj5000EE4InitEv:0000000000000000 $t
/var/folders/1_/rgbtf7293t93c5kflb58xcy40000gn/T//ccMetEze.s:4593   .text._ZN7daisysp9DelayLineIfLj5000EE5ResetEv:0000000000000000 _ZN7daisysp9DelayLineIfLj5000EE5ResetEv
/var/folders/1_/rgbtf7293t93c5kflb58xcy40000gn/T//ccMetEze.s:4432   .text._ZN7daisysp9DelayLineIfLj558EE4InitEv:0000000000000000 $t
/var/folders/1_/rgbtf7293t93c5kflb58xcy40000gn/T//ccMetEze.s:4663   .text._ZN7daisysp9DelayLineIfLj558EE5ResetEv:0000000000000000 _ZN7daisysp9DelayLineIfLj558EE5ResetEv
/var/folders/1_/rgbtf7293t93c5kflb58xcy40000gn/T//ccMetEze.s:4468   .text._ZN7daisysp9DelayLineIfLj558EE8SetDelayEj:0000000000000000 $t
/var/folders/1_/rgbtf7293t93c5kflb58xcy40000gn/T//ccMetEze.s:4518   .text._ZN7daisysp9DelayLineIfLj1EE5ResetEv:0000000000000000 $t
/var/folders/1_/rgbtf7293t93c5kflb58xcy40000gn/T//ccMetEze.s:4587   .text._ZN7daisysp9DelayLineIfLj5000EE5ResetEv:0000000000000000 $t
/var/folders/1_/rgbtf7293t93c5kflb58xcy40000gn/T//ccMetEze.s:4657   .text._ZN7daisysp9DelayLineIfLj558EE5ResetEv:0000000000000000 $t
/var/folders/1_/rgbtf7293t93c5kflb58xcy40000gn/T//ccMetEze.s:4727   .text.__tcf_0:0000000000000000 $t
/var/folders/1_/rgbtf7293t93c5kflb58xcy40000gn/T//ccMetEze.s:4732   .text.__tcf_0:0000000000000000 __tcf_0
/var/folders/1_/rgbtf7293t93c5kflb58xcy40000gn/T//ccMetEze.s:5161   .text._ZN7daisysp9DelayLineIfLj5000EED2Ev:0000000000000000 _ZN7daisysp9DelayLineIfLj5000EED1Ev
/var/folders/1_/rgbtf7293t93c5kflb58xcy40000gn/T//ccMetEze.s:4773   .text.__tcf_0:0000000000000024 $d
/var/folders/1_/rgbtf7293t93c5kflb58xcy40000gn/T//ccMetEze.s:4780   .text.__tcf_1:0000000000000000 $t
/var/folders/1_/rgbtf7293t93c5kflb58xcy40000gn/T//ccMetEze.s:4785   .text.__tcf_1:0000000000000000 __tcf_1
/var/folders/1_/rgbtf7293t93c5kflb58xcy40000gn/T//ccMetEze.s:4826   .text.__tcf_1:0000000000000024 $d
/var/folders/1_/rgbtf7293t93c5kflb58xcy40000gn/T//ccMetEze.s:4833   .text.__tcf_2:0000000000000000 $t
/var/folders/1_/rgbtf7293t93c5kflb58xcy40000gn/T//ccMetEze.s:4838   .text.__tcf_2:0000000000000000 __tcf_2
/var/folders/1_/rgbtf7293t93c5kflb58xcy40000gn/T//ccMetEze.s:5200   .text._ZN7daisysp9DelayLineIfLj1EED2Ev:0000000000000000 _ZN7daisysp9DelayLineIfLj1EED1Ev
/var/folders/1_/rgbtf7293t93c5kflb58xcy40000gn/T//ccMetEze.s:4877   .text.__tcf_2:0000000000000020 $d
/var/folders/1_/rgbtf7293t93c5kflb58xcy40000gn/T//ccMetEze.s:4883   .text.__tcf_3:0000000000000000 $t
/var/folders/1_/rgbtf7293t93c5kflb58xcy40000gn/T//ccMetEze.s:4888   .text.__tcf_3:0000000000000000 __tcf_3
/var/folders/1_/rgbtf7293t93c5kflb58xcy40000gn/T//ccMetEze.s:4927   .text.__tcf_3:0000000000000020 $d
ARM GAS  /var/folders/1_/rgbtf7293t93c5kflb58xcy40000gn/T//ccMetEze.s 			page 138


/var/folders/1_/rgbtf7293t93c5kflb58xcy40000gn/T//ccMetEze.s:4933   .text.__tcf_4:0000000000000000 $t
/var/folders/1_/rgbtf7293t93c5kflb58xcy40000gn/T//ccMetEze.s:4938   .text.__tcf_4:0000000000000000 __tcf_4
/var/folders/1_/rgbtf7293t93c5kflb58xcy40000gn/T//ccMetEze.s:5239   .text._ZN7daisysp9DelayLineIfLj558EED2Ev:0000000000000000 _ZN7daisysp9DelayLineIfLj558EED1Ev
/var/folders/1_/rgbtf7293t93c5kflb58xcy40000gn/T//ccMetEze.s:4977   .text.__tcf_4:0000000000000024 $d
/var/folders/1_/rgbtf7293t93c5kflb58xcy40000gn/T//ccMetEze.s:4983   .text._Z41__static_initialization_and_destruction_0ii:0000000000000000 $t
/var/folders/1_/rgbtf7293t93c5kflb58xcy40000gn/T//ccMetEze.s:4988   .text._Z41__static_initialization_and_destruction_0ii:0000000000000000 _Z41__static_initialization_and_destruction_0ii
/var/folders/1_/rgbtf7293t93c5kflb58xcy40000gn/T//ccMetEze.s:5138   .text._Z41__static_initialization_and_destruction_0ii:00000000000000e0 $d
/var/folders/1_/rgbtf7293t93c5kflb58xcy40000gn/T//ccMetEze.s:5155   .text._ZN7daisysp9DelayLineIfLj5000EED2Ev:0000000000000000 $t
/var/folders/1_/rgbtf7293t93c5kflb58xcy40000gn/T//ccMetEze.s:5161   .text._ZN7daisysp9DelayLineIfLj5000EED2Ev:0000000000000000 _ZN7daisysp9DelayLineIfLj5000EED2Ev
/var/folders/1_/rgbtf7293t93c5kflb58xcy40000gn/T//ccMetEze.s:5194   .text._ZN7daisysp9DelayLineIfLj1EED2Ev:0000000000000000 $t
/var/folders/1_/rgbtf7293t93c5kflb58xcy40000gn/T//ccMetEze.s:5200   .text._ZN7daisysp9DelayLineIfLj1EED2Ev:0000000000000000 _ZN7daisysp9DelayLineIfLj1EED2Ev
/var/folders/1_/rgbtf7293t93c5kflb58xcy40000gn/T//ccMetEze.s:5233   .text._ZN7daisysp9DelayLineIfLj558EED2Ev:0000000000000000 $t
/var/folders/1_/rgbtf7293t93c5kflb58xcy40000gn/T//ccMetEze.s:5239   .text._ZN7daisysp9DelayLineIfLj558EED2Ev:0000000000000000 _ZN7daisysp9DelayLineIfLj558EED2Ev
/var/folders/1_/rgbtf7293t93c5kflb58xcy40000gn/T//ccMetEze.s:5272   .text._GLOBAL__sub_I_patch:0000000000000000 $t
/var/folders/1_/rgbtf7293t93c5kflb58xcy40000gn/T//ccMetEze.s:5277   .text._GLOBAL__sub_I_patch:0000000000000000 _GLOBAL__sub_I_patch
/var/folders/1_/rgbtf7293t93c5kflb58xcy40000gn/T//ccMetEze.s:5298   .init_array:0000000000000000 $d
                           .group:0000000000000000 _ZN5daisy3PinC5Ev
                           .group:0000000000000000 _ZN5daisy6SystemC5Ev
                           .group:0000000000000000 _ZN5daisy6SystemD5Ev
                           .group:0000000000000000 _ZN5daisy10QSPIHandleC5Ev
                           .group:0000000000000000 _ZN5daisy9DacHandleC5Ev
                           .group:0000000000000000 _ZN5daisy4GPIO6ConfigC5Ev
                           .group:0000000000000000 _ZN5daisy4GPIOC5Ev
                           .group:0000000000000000 _ZN5daisy9I2CHandleC5Ev
                           .group:0000000000000000 _ZN5daisy11AudioHandleC5Ev
                           .group:0000000000000000 _ZN5daisy11AudioHandleD5Ev
                           .group:0000000000000000 _ZN5daisy9AdcHandleC5Ev
                           .group:0000000000000000 _ZN5daisy9AdcHandleD5Ev
                           .group:0000000000000000 _ZN5daisy9UsbHandleC5Ev
                           .group:0000000000000000 _ZN5daisy9UsbHandleD5Ev
                           .group:0000000000000000 _ZN5daisy13AnalogControlC5Ev
                           .group:0000000000000000 _ZN5daisy13AnalogControlD5Ev
                           .group:0000000000000000 _ZN5daisy6GateInC5Ev
                           .group:0000000000000000 _ZN5daisy6GateInD5Ev
                           .group:0000000000000000 _ZN5daisy7Pcm3060C5Ev
                           .group:0000000000000000 _ZN5daisy7Pcm3060D5Ev
                           .group:0000000000000000 _ZN5daisy8patch_sm12DaisyPatchSMC5Ev
                           .group:0000000000000000 _ZN5daisy8patch_sm12DaisyPatchSMD5Ev
                           .group:0000000000000000 _ZN7daisysp9DelayLineIfLj5000EEC5Ev
                           .group:0000000000000000 _ZN7daisysp9DelayLineIfLj1EEC5Ev
                           .group:0000000000000000 _ZN7daisysp9DelayLineIfLj558EEC5Ev
                           .group:0000000000000000 _ZN7daisysp9DelayLineIfLj5000EED5Ev
                           .group:0000000000000000 _ZN7daisysp9DelayLineIfLj1EED5Ev
                           .group:0000000000000000 _ZN7daisysp9DelayLineIfLj558EED5Ev

UNDEFINED SYMBOLS
log10f
powf
_ZN5daisy8patch_sm12DaisyPatchSM21ProcessAnalogControlsEv
_ZN5daisy8patch_sm12DaisyPatchSM11GetAdcValueEi
_ZNK5daisy9AdcHandle8GetFloatEh
_ZN5daisy8patch_sm12DaisyPatchSM4InitEv
_ZN5daisy8patch_sm12DaisyPatchSM17SetAudioBlockSizeEj
_ZN5daisy8patch_sm12DaisyPatchSM10StartAudioEPFvPKfPfjE
__aeabi_atexit
__dso_handle
