ARM GAS  /var/folders/1_/rgbtf7293t93c5kflb58xcy40000gn/T//cchnO2o5.s 			page 1


   1              		.cpu cortex-m7
   2              		.arch armv7e-m
   3              		.fpu fpv5-d16
   4              		.eabi_attribute 28, 1
   5              		.eabi_attribute 20, 1
   6              		.eabi_attribute 21, 1
   7              		.eabi_attribute 23, 3
   8              		.eabi_attribute 24, 1
   9              		.eabi_attribute 25, 1
  10              		.eabi_attribute 26, 1
  11              		.eabi_attribute 30, 6
  12              		.eabi_attribute 34, 1
  13              		.eabi_attribute 18, 4
  14              		.file	"FDN_stereo.cpp"
  15              		.text
  16              	.Ltext0:
  17              		.cfi_sections	.debug_frame
  18              		.section	.text._ZSt3absf,"axG",%progbits,_ZSt3absf,comdat
  19              		.align	1
  20              		.weak	_ZSt3absf
  21              		.syntax unified
  22              		.thumb
  23              		.thumb_func
  25              	_ZSt3absf:
  26              	.LFB141:
  27              		.file 1 "/Library/DaisyToolchain/0.2.0/arm/arm-none-eabi/include/c++/10.3.1/bits/std_abs.h"
   1:/Library/DaisyToolchain/0.2.0/arm/arm-none-eabi/include/c++/10.3.1/bits/std_abs.h **** // -*- C++ -*- C library enhancements header.
   2:/Library/DaisyToolchain/0.2.0/arm/arm-none-eabi/include/c++/10.3.1/bits/std_abs.h **** 
   3:/Library/DaisyToolchain/0.2.0/arm/arm-none-eabi/include/c++/10.3.1/bits/std_abs.h **** // Copyright (C) 2016-2020 Free Software Foundation, Inc.
   4:/Library/DaisyToolchain/0.2.0/arm/arm-none-eabi/include/c++/10.3.1/bits/std_abs.h **** //
   5:/Library/DaisyToolchain/0.2.0/arm/arm-none-eabi/include/c++/10.3.1/bits/std_abs.h **** // This file is part of the GNU ISO C++ Library.  This library is free
   6:/Library/DaisyToolchain/0.2.0/arm/arm-none-eabi/include/c++/10.3.1/bits/std_abs.h **** // software; you can redistribute it and/or modify it under the
   7:/Library/DaisyToolchain/0.2.0/arm/arm-none-eabi/include/c++/10.3.1/bits/std_abs.h **** // terms of the GNU General Public License as published by the
   8:/Library/DaisyToolchain/0.2.0/arm/arm-none-eabi/include/c++/10.3.1/bits/std_abs.h **** // Free Software Foundation; either version 3, or (at your option)
   9:/Library/DaisyToolchain/0.2.0/arm/arm-none-eabi/include/c++/10.3.1/bits/std_abs.h **** // any later version.
  10:/Library/DaisyToolchain/0.2.0/arm/arm-none-eabi/include/c++/10.3.1/bits/std_abs.h **** 
  11:/Library/DaisyToolchain/0.2.0/arm/arm-none-eabi/include/c++/10.3.1/bits/std_abs.h **** // This library is distributed in the hope that it will be useful,
  12:/Library/DaisyToolchain/0.2.0/arm/arm-none-eabi/include/c++/10.3.1/bits/std_abs.h **** // but WITHOUT ANY WARRANTY; without even the implied warranty of
  13:/Library/DaisyToolchain/0.2.0/arm/arm-none-eabi/include/c++/10.3.1/bits/std_abs.h **** // MERCHANTABILITY or FITNESS FOR A PARTICULAR PURPOSE.  See the
  14:/Library/DaisyToolchain/0.2.0/arm/arm-none-eabi/include/c++/10.3.1/bits/std_abs.h **** // GNU General Public License for more details.
  15:/Library/DaisyToolchain/0.2.0/arm/arm-none-eabi/include/c++/10.3.1/bits/std_abs.h **** 
  16:/Library/DaisyToolchain/0.2.0/arm/arm-none-eabi/include/c++/10.3.1/bits/std_abs.h **** // Under Section 7 of GPL version 3, you are granted additional
  17:/Library/DaisyToolchain/0.2.0/arm/arm-none-eabi/include/c++/10.3.1/bits/std_abs.h **** // permissions described in the GCC Runtime Library Exception, version
  18:/Library/DaisyToolchain/0.2.0/arm/arm-none-eabi/include/c++/10.3.1/bits/std_abs.h **** // 3.1, as published by the Free Software Foundation.
  19:/Library/DaisyToolchain/0.2.0/arm/arm-none-eabi/include/c++/10.3.1/bits/std_abs.h **** 
  20:/Library/DaisyToolchain/0.2.0/arm/arm-none-eabi/include/c++/10.3.1/bits/std_abs.h **** // You should have received a copy of the GNU General Public License and
  21:/Library/DaisyToolchain/0.2.0/arm/arm-none-eabi/include/c++/10.3.1/bits/std_abs.h **** // a copy of the GCC Runtime Library Exception along with this program;
  22:/Library/DaisyToolchain/0.2.0/arm/arm-none-eabi/include/c++/10.3.1/bits/std_abs.h **** // see the files COPYING3 and COPYING.RUNTIME respectively.  If not, see
  23:/Library/DaisyToolchain/0.2.0/arm/arm-none-eabi/include/c++/10.3.1/bits/std_abs.h **** // <http://www.gnu.org/licenses/>.
  24:/Library/DaisyToolchain/0.2.0/arm/arm-none-eabi/include/c++/10.3.1/bits/std_abs.h **** 
  25:/Library/DaisyToolchain/0.2.0/arm/arm-none-eabi/include/c++/10.3.1/bits/std_abs.h **** /** @file include/bits/std_abs.h
  26:/Library/DaisyToolchain/0.2.0/arm/arm-none-eabi/include/c++/10.3.1/bits/std_abs.h ****  *  This is an internal header file, included by other library headers.
  27:/Library/DaisyToolchain/0.2.0/arm/arm-none-eabi/include/c++/10.3.1/bits/std_abs.h ****  *  Do not attempt to use it directly. @headername{cmath, cstdlib}
  28:/Library/DaisyToolchain/0.2.0/arm/arm-none-eabi/include/c++/10.3.1/bits/std_abs.h ****  */
  29:/Library/DaisyToolchain/0.2.0/arm/arm-none-eabi/include/c++/10.3.1/bits/std_abs.h **** 
  30:/Library/DaisyToolchain/0.2.0/arm/arm-none-eabi/include/c++/10.3.1/bits/std_abs.h **** #ifndef _GLIBCXX_BITS_STD_ABS_H
  31:/Library/DaisyToolchain/0.2.0/arm/arm-none-eabi/include/c++/10.3.1/bits/std_abs.h **** #define _GLIBCXX_BITS_STD_ABS_H
ARM GAS  /var/folders/1_/rgbtf7293t93c5kflb58xcy40000gn/T//cchnO2o5.s 			page 2


  32:/Library/DaisyToolchain/0.2.0/arm/arm-none-eabi/include/c++/10.3.1/bits/std_abs.h **** 
  33:/Library/DaisyToolchain/0.2.0/arm/arm-none-eabi/include/c++/10.3.1/bits/std_abs.h **** #pragma GCC system_header
  34:/Library/DaisyToolchain/0.2.0/arm/arm-none-eabi/include/c++/10.3.1/bits/std_abs.h **** 
  35:/Library/DaisyToolchain/0.2.0/arm/arm-none-eabi/include/c++/10.3.1/bits/std_abs.h **** #include <bits/c++config.h>
  36:/Library/DaisyToolchain/0.2.0/arm/arm-none-eabi/include/c++/10.3.1/bits/std_abs.h **** 
  37:/Library/DaisyToolchain/0.2.0/arm/arm-none-eabi/include/c++/10.3.1/bits/std_abs.h **** #define _GLIBCXX_INCLUDE_NEXT_C_HEADERS
  38:/Library/DaisyToolchain/0.2.0/arm/arm-none-eabi/include/c++/10.3.1/bits/std_abs.h **** #include_next <stdlib.h>
  39:/Library/DaisyToolchain/0.2.0/arm/arm-none-eabi/include/c++/10.3.1/bits/std_abs.h **** #ifdef __CORRECT_ISO_CPP_MATH_H_PROTO
  40:/Library/DaisyToolchain/0.2.0/arm/arm-none-eabi/include/c++/10.3.1/bits/std_abs.h **** # include_next <math.h>
  41:/Library/DaisyToolchain/0.2.0/arm/arm-none-eabi/include/c++/10.3.1/bits/std_abs.h **** #endif
  42:/Library/DaisyToolchain/0.2.0/arm/arm-none-eabi/include/c++/10.3.1/bits/std_abs.h **** #undef _GLIBCXX_INCLUDE_NEXT_C_HEADERS
  43:/Library/DaisyToolchain/0.2.0/arm/arm-none-eabi/include/c++/10.3.1/bits/std_abs.h **** 
  44:/Library/DaisyToolchain/0.2.0/arm/arm-none-eabi/include/c++/10.3.1/bits/std_abs.h **** #undef abs
  45:/Library/DaisyToolchain/0.2.0/arm/arm-none-eabi/include/c++/10.3.1/bits/std_abs.h **** 
  46:/Library/DaisyToolchain/0.2.0/arm/arm-none-eabi/include/c++/10.3.1/bits/std_abs.h **** extern "C++"
  47:/Library/DaisyToolchain/0.2.0/arm/arm-none-eabi/include/c++/10.3.1/bits/std_abs.h **** {
  48:/Library/DaisyToolchain/0.2.0/arm/arm-none-eabi/include/c++/10.3.1/bits/std_abs.h **** namespace std _GLIBCXX_VISIBILITY(default)
  49:/Library/DaisyToolchain/0.2.0/arm/arm-none-eabi/include/c++/10.3.1/bits/std_abs.h **** {
  50:/Library/DaisyToolchain/0.2.0/arm/arm-none-eabi/include/c++/10.3.1/bits/std_abs.h **** _GLIBCXX_BEGIN_NAMESPACE_VERSION
  51:/Library/DaisyToolchain/0.2.0/arm/arm-none-eabi/include/c++/10.3.1/bits/std_abs.h **** 
  52:/Library/DaisyToolchain/0.2.0/arm/arm-none-eabi/include/c++/10.3.1/bits/std_abs.h ****   using ::abs;
  53:/Library/DaisyToolchain/0.2.0/arm/arm-none-eabi/include/c++/10.3.1/bits/std_abs.h **** 
  54:/Library/DaisyToolchain/0.2.0/arm/arm-none-eabi/include/c++/10.3.1/bits/std_abs.h **** #ifndef __CORRECT_ISO_CPP_STDLIB_H_PROTO
  55:/Library/DaisyToolchain/0.2.0/arm/arm-none-eabi/include/c++/10.3.1/bits/std_abs.h ****   inline long
  56:/Library/DaisyToolchain/0.2.0/arm/arm-none-eabi/include/c++/10.3.1/bits/std_abs.h ****   abs(long __i) { return __builtin_labs(__i); }
  57:/Library/DaisyToolchain/0.2.0/arm/arm-none-eabi/include/c++/10.3.1/bits/std_abs.h **** #endif
  58:/Library/DaisyToolchain/0.2.0/arm/arm-none-eabi/include/c++/10.3.1/bits/std_abs.h **** 
  59:/Library/DaisyToolchain/0.2.0/arm/arm-none-eabi/include/c++/10.3.1/bits/std_abs.h **** #ifdef _GLIBCXX_USE_LONG_LONG
  60:/Library/DaisyToolchain/0.2.0/arm/arm-none-eabi/include/c++/10.3.1/bits/std_abs.h ****   inline long long
  61:/Library/DaisyToolchain/0.2.0/arm/arm-none-eabi/include/c++/10.3.1/bits/std_abs.h ****   abs(long long __x) { return __builtin_llabs (__x); }
  62:/Library/DaisyToolchain/0.2.0/arm/arm-none-eabi/include/c++/10.3.1/bits/std_abs.h **** #endif
  63:/Library/DaisyToolchain/0.2.0/arm/arm-none-eabi/include/c++/10.3.1/bits/std_abs.h **** 
  64:/Library/DaisyToolchain/0.2.0/arm/arm-none-eabi/include/c++/10.3.1/bits/std_abs.h **** // _GLIBCXX_RESOLVE_LIB_DEFECTS
  65:/Library/DaisyToolchain/0.2.0/arm/arm-none-eabi/include/c++/10.3.1/bits/std_abs.h **** // 2192. Validity and return type of std::abs(0u) is unclear
  66:/Library/DaisyToolchain/0.2.0/arm/arm-none-eabi/include/c++/10.3.1/bits/std_abs.h **** // 2294. <cstdlib> should declare abs(double)
  67:/Library/DaisyToolchain/0.2.0/arm/arm-none-eabi/include/c++/10.3.1/bits/std_abs.h **** // 2735. std::abs(short), std::abs(signed char) and others should return int
  68:/Library/DaisyToolchain/0.2.0/arm/arm-none-eabi/include/c++/10.3.1/bits/std_abs.h **** 
  69:/Library/DaisyToolchain/0.2.0/arm/arm-none-eabi/include/c++/10.3.1/bits/std_abs.h **** #ifndef __CORRECT_ISO_CPP_MATH_H_PROTO
  70:/Library/DaisyToolchain/0.2.0/arm/arm-none-eabi/include/c++/10.3.1/bits/std_abs.h ****   inline _GLIBCXX_CONSTEXPR double
  71:/Library/DaisyToolchain/0.2.0/arm/arm-none-eabi/include/c++/10.3.1/bits/std_abs.h ****   abs(double __x)
  72:/Library/DaisyToolchain/0.2.0/arm/arm-none-eabi/include/c++/10.3.1/bits/std_abs.h ****   { return __builtin_fabs(__x); }
  73:/Library/DaisyToolchain/0.2.0/arm/arm-none-eabi/include/c++/10.3.1/bits/std_abs.h **** 
  74:/Library/DaisyToolchain/0.2.0/arm/arm-none-eabi/include/c++/10.3.1/bits/std_abs.h ****   inline _GLIBCXX_CONSTEXPR float
  75:/Library/DaisyToolchain/0.2.0/arm/arm-none-eabi/include/c++/10.3.1/bits/std_abs.h ****   abs(float __x)
  76:/Library/DaisyToolchain/0.2.0/arm/arm-none-eabi/include/c++/10.3.1/bits/std_abs.h ****   { return __builtin_fabsf(__x); }
  28              		.loc 1 76 3
  29              		.cfi_startproc
  30              		@ args = 0, pretend = 0, frame = 8
  31              		@ frame_needed = 1, uses_anonymous_args = 0
  32              		@ link register save eliminated.
  33 0000 80B4     		push	{r7}
  34              		.cfi_def_cfa_offset 4
  35              		.cfi_offset 7, -4
  36 0002 83B0     		sub	sp, sp, #12
  37              		.cfi_def_cfa_offset 16
  38 0004 00AF     		add	r7, sp, #0
  39              		.cfi_def_cfa_register 7
ARM GAS  /var/folders/1_/rgbtf7293t93c5kflb58xcy40000gn/T//cchnO2o5.s 			page 3


  40 0006 87ED010A 		vstr.32	s0, [r7, #4]
  41              		.loc 1 76 31
  42 000a D7ED017A 		vldr.32	s15, [r7, #4]
  43 000e F0EEE77A 		vabs.f32	s15, s15
  44              		.loc 1 76 34
  45 0012 B0EE670A 		vmov.f32	s0, s15
  46 0016 0C37     		adds	r7, r7, #12
  47              		.cfi_def_cfa_offset 4
  48 0018 BD46     		mov	sp, r7
  49              		.cfi_def_cfa_register 13
  50              		@ sp needed
  51 001a 5DF8047B 		ldr	r7, [sp], #4
  52              		.cfi_restore 7
  53              		.cfi_def_cfa_offset 0
  54 001e 7047     		bx	lr
  55              		.cfi_endproc
  56              	.LFE141:
  58              		.section	.text._ZSt4ceilf,"axG",%progbits,_ZSt4ceilf,comdat
  59              		.align	1
  60              		.weak	_ZSt4ceilf
  61              		.syntax unified
  62              		.thumb
  63              		.thumb_func
  65              	_ZSt4ceilf:
  66              	.LFB155:
  67              		.file 2 "/Library/DaisyToolchain/0.2.0/arm/arm-none-eabi/include/c++/10.3.1/cmath"
   1:/Library/DaisyToolchain/0.2.0/arm/arm-none-eabi/include/c++/10.3.1/cmath **** // -*- C++ -*- C forwarding header.
   2:/Library/DaisyToolchain/0.2.0/arm/arm-none-eabi/include/c++/10.3.1/cmath **** 
   3:/Library/DaisyToolchain/0.2.0/arm/arm-none-eabi/include/c++/10.3.1/cmath **** // Copyright (C) 1997-2020 Free Software Foundation, Inc.
   4:/Library/DaisyToolchain/0.2.0/arm/arm-none-eabi/include/c++/10.3.1/cmath **** //
   5:/Library/DaisyToolchain/0.2.0/arm/arm-none-eabi/include/c++/10.3.1/cmath **** // This file is part of the GNU ISO C++ Library.  This library is free
   6:/Library/DaisyToolchain/0.2.0/arm/arm-none-eabi/include/c++/10.3.1/cmath **** // software; you can redistribute it and/or modify it under the
   7:/Library/DaisyToolchain/0.2.0/arm/arm-none-eabi/include/c++/10.3.1/cmath **** // terms of the GNU General Public License as published by the
   8:/Library/DaisyToolchain/0.2.0/arm/arm-none-eabi/include/c++/10.3.1/cmath **** // Free Software Foundation; either version 3, or (at your option)
   9:/Library/DaisyToolchain/0.2.0/arm/arm-none-eabi/include/c++/10.3.1/cmath **** // any later version.
  10:/Library/DaisyToolchain/0.2.0/arm/arm-none-eabi/include/c++/10.3.1/cmath **** 
  11:/Library/DaisyToolchain/0.2.0/arm/arm-none-eabi/include/c++/10.3.1/cmath **** // This library is distributed in the hope that it will be useful,
  12:/Library/DaisyToolchain/0.2.0/arm/arm-none-eabi/include/c++/10.3.1/cmath **** // but WITHOUT ANY WARRANTY; without even the implied warranty of
  13:/Library/DaisyToolchain/0.2.0/arm/arm-none-eabi/include/c++/10.3.1/cmath **** // MERCHANTABILITY or FITNESS FOR A PARTICULAR PURPOSE.  See the
  14:/Library/DaisyToolchain/0.2.0/arm/arm-none-eabi/include/c++/10.3.1/cmath **** // GNU General Public License for more details.
  15:/Library/DaisyToolchain/0.2.0/arm/arm-none-eabi/include/c++/10.3.1/cmath **** 
  16:/Library/DaisyToolchain/0.2.0/arm/arm-none-eabi/include/c++/10.3.1/cmath **** // Under Section 7 of GPL version 3, you are granted additional
  17:/Library/DaisyToolchain/0.2.0/arm/arm-none-eabi/include/c++/10.3.1/cmath **** // permissions described in the GCC Runtime Library Exception, version
  18:/Library/DaisyToolchain/0.2.0/arm/arm-none-eabi/include/c++/10.3.1/cmath **** // 3.1, as published by the Free Software Foundation.
  19:/Library/DaisyToolchain/0.2.0/arm/arm-none-eabi/include/c++/10.3.1/cmath **** 
  20:/Library/DaisyToolchain/0.2.0/arm/arm-none-eabi/include/c++/10.3.1/cmath **** // You should have received a copy of the GNU General Public License and
  21:/Library/DaisyToolchain/0.2.0/arm/arm-none-eabi/include/c++/10.3.1/cmath **** // a copy of the GCC Runtime Library Exception along with this program;
  22:/Library/DaisyToolchain/0.2.0/arm/arm-none-eabi/include/c++/10.3.1/cmath **** // see the files COPYING3 and COPYING.RUNTIME respectively.  If not, see
  23:/Library/DaisyToolchain/0.2.0/arm/arm-none-eabi/include/c++/10.3.1/cmath **** // <http://www.gnu.org/licenses/>.
  24:/Library/DaisyToolchain/0.2.0/arm/arm-none-eabi/include/c++/10.3.1/cmath **** 
  25:/Library/DaisyToolchain/0.2.0/arm/arm-none-eabi/include/c++/10.3.1/cmath **** /** @file include/cmath
  26:/Library/DaisyToolchain/0.2.0/arm/arm-none-eabi/include/c++/10.3.1/cmath ****  *  This is a Standard C++ Library file.  You should @c \#include this file
  27:/Library/DaisyToolchain/0.2.0/arm/arm-none-eabi/include/c++/10.3.1/cmath ****  *  in your programs, rather than any of the @a *.h implementation files.
  28:/Library/DaisyToolchain/0.2.0/arm/arm-none-eabi/include/c++/10.3.1/cmath ****  *
  29:/Library/DaisyToolchain/0.2.0/arm/arm-none-eabi/include/c++/10.3.1/cmath ****  *  This is the C++ version of the Standard C Library header @c math.h,
  30:/Library/DaisyToolchain/0.2.0/arm/arm-none-eabi/include/c++/10.3.1/cmath ****  *  and its contents are (mostly) the same as that header, but are all
  31:/Library/DaisyToolchain/0.2.0/arm/arm-none-eabi/include/c++/10.3.1/cmath ****  *  contained in the namespace @c std (except for names which are defined
ARM GAS  /var/folders/1_/rgbtf7293t93c5kflb58xcy40000gn/T//cchnO2o5.s 			page 4


  32:/Library/DaisyToolchain/0.2.0/arm/arm-none-eabi/include/c++/10.3.1/cmath ****  *  as macros in C).
  33:/Library/DaisyToolchain/0.2.0/arm/arm-none-eabi/include/c++/10.3.1/cmath ****  */
  34:/Library/DaisyToolchain/0.2.0/arm/arm-none-eabi/include/c++/10.3.1/cmath **** 
  35:/Library/DaisyToolchain/0.2.0/arm/arm-none-eabi/include/c++/10.3.1/cmath **** //
  36:/Library/DaisyToolchain/0.2.0/arm/arm-none-eabi/include/c++/10.3.1/cmath **** // ISO C++ 14882: 26.5  C library
  37:/Library/DaisyToolchain/0.2.0/arm/arm-none-eabi/include/c++/10.3.1/cmath **** //
  38:/Library/DaisyToolchain/0.2.0/arm/arm-none-eabi/include/c++/10.3.1/cmath **** 
  39:/Library/DaisyToolchain/0.2.0/arm/arm-none-eabi/include/c++/10.3.1/cmath **** #pragma GCC system_header
  40:/Library/DaisyToolchain/0.2.0/arm/arm-none-eabi/include/c++/10.3.1/cmath **** 
  41:/Library/DaisyToolchain/0.2.0/arm/arm-none-eabi/include/c++/10.3.1/cmath **** #include <bits/c++config.h>
  42:/Library/DaisyToolchain/0.2.0/arm/arm-none-eabi/include/c++/10.3.1/cmath **** #include <bits/cpp_type_traits.h>
  43:/Library/DaisyToolchain/0.2.0/arm/arm-none-eabi/include/c++/10.3.1/cmath **** #include <ext/type_traits.h>
  44:/Library/DaisyToolchain/0.2.0/arm/arm-none-eabi/include/c++/10.3.1/cmath **** #define _GLIBCXX_INCLUDE_NEXT_C_HEADERS
  45:/Library/DaisyToolchain/0.2.0/arm/arm-none-eabi/include/c++/10.3.1/cmath **** #include_next <math.h>
  46:/Library/DaisyToolchain/0.2.0/arm/arm-none-eabi/include/c++/10.3.1/cmath **** #undef _GLIBCXX_INCLUDE_NEXT_C_HEADERS
  47:/Library/DaisyToolchain/0.2.0/arm/arm-none-eabi/include/c++/10.3.1/cmath **** #include <bits/std_abs.h>
  48:/Library/DaisyToolchain/0.2.0/arm/arm-none-eabi/include/c++/10.3.1/cmath **** 
  49:/Library/DaisyToolchain/0.2.0/arm/arm-none-eabi/include/c++/10.3.1/cmath **** #ifndef _GLIBCXX_CMATH
  50:/Library/DaisyToolchain/0.2.0/arm/arm-none-eabi/include/c++/10.3.1/cmath **** #define _GLIBCXX_CMATH 1
  51:/Library/DaisyToolchain/0.2.0/arm/arm-none-eabi/include/c++/10.3.1/cmath **** 
  52:/Library/DaisyToolchain/0.2.0/arm/arm-none-eabi/include/c++/10.3.1/cmath **** // Get rid of those macros defined in <math.h> in lieu of real functions.
  53:/Library/DaisyToolchain/0.2.0/arm/arm-none-eabi/include/c++/10.3.1/cmath **** #undef div
  54:/Library/DaisyToolchain/0.2.0/arm/arm-none-eabi/include/c++/10.3.1/cmath **** #undef acos
  55:/Library/DaisyToolchain/0.2.0/arm/arm-none-eabi/include/c++/10.3.1/cmath **** #undef asin
  56:/Library/DaisyToolchain/0.2.0/arm/arm-none-eabi/include/c++/10.3.1/cmath **** #undef atan
  57:/Library/DaisyToolchain/0.2.0/arm/arm-none-eabi/include/c++/10.3.1/cmath **** #undef atan2
  58:/Library/DaisyToolchain/0.2.0/arm/arm-none-eabi/include/c++/10.3.1/cmath **** #undef ceil
  59:/Library/DaisyToolchain/0.2.0/arm/arm-none-eabi/include/c++/10.3.1/cmath **** #undef cos
  60:/Library/DaisyToolchain/0.2.0/arm/arm-none-eabi/include/c++/10.3.1/cmath **** #undef cosh
  61:/Library/DaisyToolchain/0.2.0/arm/arm-none-eabi/include/c++/10.3.1/cmath **** #undef exp
  62:/Library/DaisyToolchain/0.2.0/arm/arm-none-eabi/include/c++/10.3.1/cmath **** #undef fabs
  63:/Library/DaisyToolchain/0.2.0/arm/arm-none-eabi/include/c++/10.3.1/cmath **** #undef floor
  64:/Library/DaisyToolchain/0.2.0/arm/arm-none-eabi/include/c++/10.3.1/cmath **** #undef fmod
  65:/Library/DaisyToolchain/0.2.0/arm/arm-none-eabi/include/c++/10.3.1/cmath **** #undef frexp
  66:/Library/DaisyToolchain/0.2.0/arm/arm-none-eabi/include/c++/10.3.1/cmath **** #undef ldexp
  67:/Library/DaisyToolchain/0.2.0/arm/arm-none-eabi/include/c++/10.3.1/cmath **** #undef log
  68:/Library/DaisyToolchain/0.2.0/arm/arm-none-eabi/include/c++/10.3.1/cmath **** #undef log10
  69:/Library/DaisyToolchain/0.2.0/arm/arm-none-eabi/include/c++/10.3.1/cmath **** #undef modf
  70:/Library/DaisyToolchain/0.2.0/arm/arm-none-eabi/include/c++/10.3.1/cmath **** #undef pow
  71:/Library/DaisyToolchain/0.2.0/arm/arm-none-eabi/include/c++/10.3.1/cmath **** #undef sin
  72:/Library/DaisyToolchain/0.2.0/arm/arm-none-eabi/include/c++/10.3.1/cmath **** #undef sinh
  73:/Library/DaisyToolchain/0.2.0/arm/arm-none-eabi/include/c++/10.3.1/cmath **** #undef sqrt
  74:/Library/DaisyToolchain/0.2.0/arm/arm-none-eabi/include/c++/10.3.1/cmath **** #undef tan
  75:/Library/DaisyToolchain/0.2.0/arm/arm-none-eabi/include/c++/10.3.1/cmath **** #undef tanh
  76:/Library/DaisyToolchain/0.2.0/arm/arm-none-eabi/include/c++/10.3.1/cmath **** 
  77:/Library/DaisyToolchain/0.2.0/arm/arm-none-eabi/include/c++/10.3.1/cmath **** extern "C++"
  78:/Library/DaisyToolchain/0.2.0/arm/arm-none-eabi/include/c++/10.3.1/cmath **** {
  79:/Library/DaisyToolchain/0.2.0/arm/arm-none-eabi/include/c++/10.3.1/cmath **** namespace std _GLIBCXX_VISIBILITY(default)
  80:/Library/DaisyToolchain/0.2.0/arm/arm-none-eabi/include/c++/10.3.1/cmath **** {
  81:/Library/DaisyToolchain/0.2.0/arm/arm-none-eabi/include/c++/10.3.1/cmath **** _GLIBCXX_BEGIN_NAMESPACE_VERSION
  82:/Library/DaisyToolchain/0.2.0/arm/arm-none-eabi/include/c++/10.3.1/cmath **** 
  83:/Library/DaisyToolchain/0.2.0/arm/arm-none-eabi/include/c++/10.3.1/cmath ****   using ::acos;
  84:/Library/DaisyToolchain/0.2.0/arm/arm-none-eabi/include/c++/10.3.1/cmath **** 
  85:/Library/DaisyToolchain/0.2.0/arm/arm-none-eabi/include/c++/10.3.1/cmath **** #ifndef __CORRECT_ISO_CPP_MATH_H_PROTO
  86:/Library/DaisyToolchain/0.2.0/arm/arm-none-eabi/include/c++/10.3.1/cmath ****   inline _GLIBCXX_CONSTEXPR float
  87:/Library/DaisyToolchain/0.2.0/arm/arm-none-eabi/include/c++/10.3.1/cmath ****   acos(float __x)
  88:/Library/DaisyToolchain/0.2.0/arm/arm-none-eabi/include/c++/10.3.1/cmath ****   { return __builtin_acosf(__x); }
ARM GAS  /var/folders/1_/rgbtf7293t93c5kflb58xcy40000gn/T//cchnO2o5.s 			page 5


  89:/Library/DaisyToolchain/0.2.0/arm/arm-none-eabi/include/c++/10.3.1/cmath **** 
  90:/Library/DaisyToolchain/0.2.0/arm/arm-none-eabi/include/c++/10.3.1/cmath ****   inline _GLIBCXX_CONSTEXPR long double
  91:/Library/DaisyToolchain/0.2.0/arm/arm-none-eabi/include/c++/10.3.1/cmath ****   acos(long double __x)
  92:/Library/DaisyToolchain/0.2.0/arm/arm-none-eabi/include/c++/10.3.1/cmath ****   { return __builtin_acosl(__x); }
  93:/Library/DaisyToolchain/0.2.0/arm/arm-none-eabi/include/c++/10.3.1/cmath **** #endif
  94:/Library/DaisyToolchain/0.2.0/arm/arm-none-eabi/include/c++/10.3.1/cmath **** 
  95:/Library/DaisyToolchain/0.2.0/arm/arm-none-eabi/include/c++/10.3.1/cmath ****   template<typename _Tp>
  96:/Library/DaisyToolchain/0.2.0/arm/arm-none-eabi/include/c++/10.3.1/cmath ****     inline _GLIBCXX_CONSTEXPR
  97:/Library/DaisyToolchain/0.2.0/arm/arm-none-eabi/include/c++/10.3.1/cmath ****     typename __gnu_cxx::__enable_if<__is_integer<_Tp>::__value, 
  98:/Library/DaisyToolchain/0.2.0/arm/arm-none-eabi/include/c++/10.3.1/cmath ****                                     double>::__type
  99:/Library/DaisyToolchain/0.2.0/arm/arm-none-eabi/include/c++/10.3.1/cmath ****     acos(_Tp __x)
 100:/Library/DaisyToolchain/0.2.0/arm/arm-none-eabi/include/c++/10.3.1/cmath ****     { return __builtin_acos(__x); }
 101:/Library/DaisyToolchain/0.2.0/arm/arm-none-eabi/include/c++/10.3.1/cmath **** 
 102:/Library/DaisyToolchain/0.2.0/arm/arm-none-eabi/include/c++/10.3.1/cmath ****   using ::asin;
 103:/Library/DaisyToolchain/0.2.0/arm/arm-none-eabi/include/c++/10.3.1/cmath **** 
 104:/Library/DaisyToolchain/0.2.0/arm/arm-none-eabi/include/c++/10.3.1/cmath **** #ifndef __CORRECT_ISO_CPP_MATH_H_PROTO
 105:/Library/DaisyToolchain/0.2.0/arm/arm-none-eabi/include/c++/10.3.1/cmath ****   inline _GLIBCXX_CONSTEXPR float
 106:/Library/DaisyToolchain/0.2.0/arm/arm-none-eabi/include/c++/10.3.1/cmath ****   asin(float __x)
 107:/Library/DaisyToolchain/0.2.0/arm/arm-none-eabi/include/c++/10.3.1/cmath ****   { return __builtin_asinf(__x); }
 108:/Library/DaisyToolchain/0.2.0/arm/arm-none-eabi/include/c++/10.3.1/cmath **** 
 109:/Library/DaisyToolchain/0.2.0/arm/arm-none-eabi/include/c++/10.3.1/cmath ****   inline _GLIBCXX_CONSTEXPR long double
 110:/Library/DaisyToolchain/0.2.0/arm/arm-none-eabi/include/c++/10.3.1/cmath ****   asin(long double __x)
 111:/Library/DaisyToolchain/0.2.0/arm/arm-none-eabi/include/c++/10.3.1/cmath ****   { return __builtin_asinl(__x); }
 112:/Library/DaisyToolchain/0.2.0/arm/arm-none-eabi/include/c++/10.3.1/cmath **** #endif
 113:/Library/DaisyToolchain/0.2.0/arm/arm-none-eabi/include/c++/10.3.1/cmath **** 
 114:/Library/DaisyToolchain/0.2.0/arm/arm-none-eabi/include/c++/10.3.1/cmath ****   template<typename _Tp>
 115:/Library/DaisyToolchain/0.2.0/arm/arm-none-eabi/include/c++/10.3.1/cmath ****     inline _GLIBCXX_CONSTEXPR
 116:/Library/DaisyToolchain/0.2.0/arm/arm-none-eabi/include/c++/10.3.1/cmath ****     typename __gnu_cxx::__enable_if<__is_integer<_Tp>::__value,
 117:/Library/DaisyToolchain/0.2.0/arm/arm-none-eabi/include/c++/10.3.1/cmath ****                                     double>::__type
 118:/Library/DaisyToolchain/0.2.0/arm/arm-none-eabi/include/c++/10.3.1/cmath ****     asin(_Tp __x)
 119:/Library/DaisyToolchain/0.2.0/arm/arm-none-eabi/include/c++/10.3.1/cmath ****     { return __builtin_asin(__x); }
 120:/Library/DaisyToolchain/0.2.0/arm/arm-none-eabi/include/c++/10.3.1/cmath **** 
 121:/Library/DaisyToolchain/0.2.0/arm/arm-none-eabi/include/c++/10.3.1/cmath ****   using ::atan;
 122:/Library/DaisyToolchain/0.2.0/arm/arm-none-eabi/include/c++/10.3.1/cmath **** 
 123:/Library/DaisyToolchain/0.2.0/arm/arm-none-eabi/include/c++/10.3.1/cmath **** #ifndef __CORRECT_ISO_CPP_MATH_H_PROTO
 124:/Library/DaisyToolchain/0.2.0/arm/arm-none-eabi/include/c++/10.3.1/cmath ****   inline _GLIBCXX_CONSTEXPR float
 125:/Library/DaisyToolchain/0.2.0/arm/arm-none-eabi/include/c++/10.3.1/cmath ****   atan(float __x)
 126:/Library/DaisyToolchain/0.2.0/arm/arm-none-eabi/include/c++/10.3.1/cmath ****   { return __builtin_atanf(__x); }
 127:/Library/DaisyToolchain/0.2.0/arm/arm-none-eabi/include/c++/10.3.1/cmath **** 
 128:/Library/DaisyToolchain/0.2.0/arm/arm-none-eabi/include/c++/10.3.1/cmath ****   inline _GLIBCXX_CONSTEXPR long double
 129:/Library/DaisyToolchain/0.2.0/arm/arm-none-eabi/include/c++/10.3.1/cmath ****   atan(long double __x)
 130:/Library/DaisyToolchain/0.2.0/arm/arm-none-eabi/include/c++/10.3.1/cmath ****   { return __builtin_atanl(__x); }
 131:/Library/DaisyToolchain/0.2.0/arm/arm-none-eabi/include/c++/10.3.1/cmath **** #endif
 132:/Library/DaisyToolchain/0.2.0/arm/arm-none-eabi/include/c++/10.3.1/cmath **** 
 133:/Library/DaisyToolchain/0.2.0/arm/arm-none-eabi/include/c++/10.3.1/cmath ****   template<typename _Tp>
 134:/Library/DaisyToolchain/0.2.0/arm/arm-none-eabi/include/c++/10.3.1/cmath ****     inline _GLIBCXX_CONSTEXPR
 135:/Library/DaisyToolchain/0.2.0/arm/arm-none-eabi/include/c++/10.3.1/cmath ****     typename __gnu_cxx::__enable_if<__is_integer<_Tp>::__value,
 136:/Library/DaisyToolchain/0.2.0/arm/arm-none-eabi/include/c++/10.3.1/cmath ****                                     double>::__type
 137:/Library/DaisyToolchain/0.2.0/arm/arm-none-eabi/include/c++/10.3.1/cmath ****     atan(_Tp __x)
 138:/Library/DaisyToolchain/0.2.0/arm/arm-none-eabi/include/c++/10.3.1/cmath ****     { return __builtin_atan(__x); }
 139:/Library/DaisyToolchain/0.2.0/arm/arm-none-eabi/include/c++/10.3.1/cmath **** 
 140:/Library/DaisyToolchain/0.2.0/arm/arm-none-eabi/include/c++/10.3.1/cmath ****   using ::atan2;
 141:/Library/DaisyToolchain/0.2.0/arm/arm-none-eabi/include/c++/10.3.1/cmath **** 
 142:/Library/DaisyToolchain/0.2.0/arm/arm-none-eabi/include/c++/10.3.1/cmath **** #ifndef __CORRECT_ISO_CPP_MATH_H_PROTO
 143:/Library/DaisyToolchain/0.2.0/arm/arm-none-eabi/include/c++/10.3.1/cmath ****   inline _GLIBCXX_CONSTEXPR float
 144:/Library/DaisyToolchain/0.2.0/arm/arm-none-eabi/include/c++/10.3.1/cmath ****   atan2(float __y, float __x)
 145:/Library/DaisyToolchain/0.2.0/arm/arm-none-eabi/include/c++/10.3.1/cmath ****   { return __builtin_atan2f(__y, __x); }
ARM GAS  /var/folders/1_/rgbtf7293t93c5kflb58xcy40000gn/T//cchnO2o5.s 			page 6


 146:/Library/DaisyToolchain/0.2.0/arm/arm-none-eabi/include/c++/10.3.1/cmath **** 
 147:/Library/DaisyToolchain/0.2.0/arm/arm-none-eabi/include/c++/10.3.1/cmath ****   inline _GLIBCXX_CONSTEXPR long double
 148:/Library/DaisyToolchain/0.2.0/arm/arm-none-eabi/include/c++/10.3.1/cmath ****   atan2(long double __y, long double __x)
 149:/Library/DaisyToolchain/0.2.0/arm/arm-none-eabi/include/c++/10.3.1/cmath ****   { return __builtin_atan2l(__y, __x); }
 150:/Library/DaisyToolchain/0.2.0/arm/arm-none-eabi/include/c++/10.3.1/cmath **** #endif
 151:/Library/DaisyToolchain/0.2.0/arm/arm-none-eabi/include/c++/10.3.1/cmath **** 
 152:/Library/DaisyToolchain/0.2.0/arm/arm-none-eabi/include/c++/10.3.1/cmath ****   template<typename _Tp, typename _Up>
 153:/Library/DaisyToolchain/0.2.0/arm/arm-none-eabi/include/c++/10.3.1/cmath ****     inline _GLIBCXX_CONSTEXPR
 154:/Library/DaisyToolchain/0.2.0/arm/arm-none-eabi/include/c++/10.3.1/cmath ****     typename __gnu_cxx::__promote_2<_Tp, _Up>::__type
 155:/Library/DaisyToolchain/0.2.0/arm/arm-none-eabi/include/c++/10.3.1/cmath ****     atan2(_Tp __y, _Up __x)
 156:/Library/DaisyToolchain/0.2.0/arm/arm-none-eabi/include/c++/10.3.1/cmath ****     {
 157:/Library/DaisyToolchain/0.2.0/arm/arm-none-eabi/include/c++/10.3.1/cmath ****       typedef typename __gnu_cxx::__promote_2<_Tp, _Up>::__type __type;
 158:/Library/DaisyToolchain/0.2.0/arm/arm-none-eabi/include/c++/10.3.1/cmath ****       return atan2(__type(__y), __type(__x));
 159:/Library/DaisyToolchain/0.2.0/arm/arm-none-eabi/include/c++/10.3.1/cmath ****     }
 160:/Library/DaisyToolchain/0.2.0/arm/arm-none-eabi/include/c++/10.3.1/cmath **** 
 161:/Library/DaisyToolchain/0.2.0/arm/arm-none-eabi/include/c++/10.3.1/cmath ****   using ::ceil;
 162:/Library/DaisyToolchain/0.2.0/arm/arm-none-eabi/include/c++/10.3.1/cmath **** 
 163:/Library/DaisyToolchain/0.2.0/arm/arm-none-eabi/include/c++/10.3.1/cmath **** #ifndef __CORRECT_ISO_CPP_MATH_H_PROTO
 164:/Library/DaisyToolchain/0.2.0/arm/arm-none-eabi/include/c++/10.3.1/cmath ****   inline _GLIBCXX_CONSTEXPR float
 165:/Library/DaisyToolchain/0.2.0/arm/arm-none-eabi/include/c++/10.3.1/cmath ****   ceil(float __x)
 166:/Library/DaisyToolchain/0.2.0/arm/arm-none-eabi/include/c++/10.3.1/cmath ****   { return __builtin_ceilf(__x); }
  68              		.loc 2 166 3
  69              		.cfi_startproc
  70              		@ args = 0, pretend = 0, frame = 8
  71              		@ frame_needed = 1, uses_anonymous_args = 0
  72              		@ link register save eliminated.
  73 0000 80B4     		push	{r7}
  74              		.cfi_def_cfa_offset 4
  75              		.cfi_offset 7, -4
  76 0002 83B0     		sub	sp, sp, #12
  77              		.cfi_def_cfa_offset 16
  78 0004 00AF     		add	r7, sp, #0
  79              		.cfi_def_cfa_register 7
  80 0006 87ED010A 		vstr.32	s0, [r7, #4]
  81              		.loc 2 166 27
  82 000a D7ED017A 		vldr.32	s15, [r7, #4]
  83 000e FAFE677A 		vrintp.f32	s15, s15
  84              		.loc 2 166 34
  85 0012 B0EE670A 		vmov.f32	s0, s15
  86 0016 0C37     		adds	r7, r7, #12
  87              		.cfi_def_cfa_offset 4
  88 0018 BD46     		mov	sp, r7
  89              		.cfi_def_cfa_register 13
  90              		@ sp needed
  91 001a 5DF8047B 		ldr	r7, [sp], #4
  92              		.cfi_restore 7
  93              		.cfi_def_cfa_offset 0
  94 001e 7047     		bx	lr
  95              		.cfi_endproc
  96              	.LFE155:
  98              		.section	.text._ZSt5floorf,"axG",%progbits,_ZSt5floorf,comdat
  99              		.align	1
 100              		.weak	_ZSt5floorf
 101              		.syntax unified
 102              		.thumb
 103              		.thumb_func
 105              	_ZSt5floorf:
ARM GAS  /var/folders/1_/rgbtf7293t93c5kflb58xcy40000gn/T//cchnO2o5.s 			page 7


 106              	.LFB170:
 167:/Library/DaisyToolchain/0.2.0/arm/arm-none-eabi/include/c++/10.3.1/cmath **** 
 168:/Library/DaisyToolchain/0.2.0/arm/arm-none-eabi/include/c++/10.3.1/cmath ****   inline _GLIBCXX_CONSTEXPR long double
 169:/Library/DaisyToolchain/0.2.0/arm/arm-none-eabi/include/c++/10.3.1/cmath ****   ceil(long double __x)
 170:/Library/DaisyToolchain/0.2.0/arm/arm-none-eabi/include/c++/10.3.1/cmath ****   { return __builtin_ceill(__x); }
 171:/Library/DaisyToolchain/0.2.0/arm/arm-none-eabi/include/c++/10.3.1/cmath **** #endif
 172:/Library/DaisyToolchain/0.2.0/arm/arm-none-eabi/include/c++/10.3.1/cmath **** 
 173:/Library/DaisyToolchain/0.2.0/arm/arm-none-eabi/include/c++/10.3.1/cmath ****   template<typename _Tp>
 174:/Library/DaisyToolchain/0.2.0/arm/arm-none-eabi/include/c++/10.3.1/cmath ****     inline _GLIBCXX_CONSTEXPR
 175:/Library/DaisyToolchain/0.2.0/arm/arm-none-eabi/include/c++/10.3.1/cmath ****     typename __gnu_cxx::__enable_if<__is_integer<_Tp>::__value, 
 176:/Library/DaisyToolchain/0.2.0/arm/arm-none-eabi/include/c++/10.3.1/cmath ****                                     double>::__type
 177:/Library/DaisyToolchain/0.2.0/arm/arm-none-eabi/include/c++/10.3.1/cmath ****     ceil(_Tp __x)
 178:/Library/DaisyToolchain/0.2.0/arm/arm-none-eabi/include/c++/10.3.1/cmath ****     { return __builtin_ceil(__x); }
 179:/Library/DaisyToolchain/0.2.0/arm/arm-none-eabi/include/c++/10.3.1/cmath **** 
 180:/Library/DaisyToolchain/0.2.0/arm/arm-none-eabi/include/c++/10.3.1/cmath ****   using ::cos;
 181:/Library/DaisyToolchain/0.2.0/arm/arm-none-eabi/include/c++/10.3.1/cmath **** 
 182:/Library/DaisyToolchain/0.2.0/arm/arm-none-eabi/include/c++/10.3.1/cmath **** #ifndef __CORRECT_ISO_CPP_MATH_H_PROTO
 183:/Library/DaisyToolchain/0.2.0/arm/arm-none-eabi/include/c++/10.3.1/cmath ****   inline _GLIBCXX_CONSTEXPR float
 184:/Library/DaisyToolchain/0.2.0/arm/arm-none-eabi/include/c++/10.3.1/cmath ****   cos(float __x)
 185:/Library/DaisyToolchain/0.2.0/arm/arm-none-eabi/include/c++/10.3.1/cmath ****   { return __builtin_cosf(__x); }
 186:/Library/DaisyToolchain/0.2.0/arm/arm-none-eabi/include/c++/10.3.1/cmath **** 
 187:/Library/DaisyToolchain/0.2.0/arm/arm-none-eabi/include/c++/10.3.1/cmath ****   inline _GLIBCXX_CONSTEXPR long double
 188:/Library/DaisyToolchain/0.2.0/arm/arm-none-eabi/include/c++/10.3.1/cmath ****   cos(long double __x)
 189:/Library/DaisyToolchain/0.2.0/arm/arm-none-eabi/include/c++/10.3.1/cmath ****   { return __builtin_cosl(__x); }
 190:/Library/DaisyToolchain/0.2.0/arm/arm-none-eabi/include/c++/10.3.1/cmath **** #endif
 191:/Library/DaisyToolchain/0.2.0/arm/arm-none-eabi/include/c++/10.3.1/cmath **** 
 192:/Library/DaisyToolchain/0.2.0/arm/arm-none-eabi/include/c++/10.3.1/cmath ****   template<typename _Tp>
 193:/Library/DaisyToolchain/0.2.0/arm/arm-none-eabi/include/c++/10.3.1/cmath ****     inline _GLIBCXX_CONSTEXPR
 194:/Library/DaisyToolchain/0.2.0/arm/arm-none-eabi/include/c++/10.3.1/cmath ****     typename __gnu_cxx::__enable_if<__is_integer<_Tp>::__value,
 195:/Library/DaisyToolchain/0.2.0/arm/arm-none-eabi/include/c++/10.3.1/cmath ****                                     double>::__type
 196:/Library/DaisyToolchain/0.2.0/arm/arm-none-eabi/include/c++/10.3.1/cmath ****     cos(_Tp __x)
 197:/Library/DaisyToolchain/0.2.0/arm/arm-none-eabi/include/c++/10.3.1/cmath ****     { return __builtin_cos(__x); }
 198:/Library/DaisyToolchain/0.2.0/arm/arm-none-eabi/include/c++/10.3.1/cmath **** 
 199:/Library/DaisyToolchain/0.2.0/arm/arm-none-eabi/include/c++/10.3.1/cmath ****   using ::cosh;
 200:/Library/DaisyToolchain/0.2.0/arm/arm-none-eabi/include/c++/10.3.1/cmath **** 
 201:/Library/DaisyToolchain/0.2.0/arm/arm-none-eabi/include/c++/10.3.1/cmath **** #ifndef __CORRECT_ISO_CPP_MATH_H_PROTO
 202:/Library/DaisyToolchain/0.2.0/arm/arm-none-eabi/include/c++/10.3.1/cmath ****   inline _GLIBCXX_CONSTEXPR float
 203:/Library/DaisyToolchain/0.2.0/arm/arm-none-eabi/include/c++/10.3.1/cmath ****   cosh(float __x)
 204:/Library/DaisyToolchain/0.2.0/arm/arm-none-eabi/include/c++/10.3.1/cmath ****   { return __builtin_coshf(__x); }
 205:/Library/DaisyToolchain/0.2.0/arm/arm-none-eabi/include/c++/10.3.1/cmath **** 
 206:/Library/DaisyToolchain/0.2.0/arm/arm-none-eabi/include/c++/10.3.1/cmath ****   inline _GLIBCXX_CONSTEXPR long double
 207:/Library/DaisyToolchain/0.2.0/arm/arm-none-eabi/include/c++/10.3.1/cmath ****   cosh(long double __x)
 208:/Library/DaisyToolchain/0.2.0/arm/arm-none-eabi/include/c++/10.3.1/cmath ****   { return __builtin_coshl(__x); }
 209:/Library/DaisyToolchain/0.2.0/arm/arm-none-eabi/include/c++/10.3.1/cmath **** #endif
 210:/Library/DaisyToolchain/0.2.0/arm/arm-none-eabi/include/c++/10.3.1/cmath **** 
 211:/Library/DaisyToolchain/0.2.0/arm/arm-none-eabi/include/c++/10.3.1/cmath ****   template<typename _Tp>
 212:/Library/DaisyToolchain/0.2.0/arm/arm-none-eabi/include/c++/10.3.1/cmath ****     inline _GLIBCXX_CONSTEXPR
 213:/Library/DaisyToolchain/0.2.0/arm/arm-none-eabi/include/c++/10.3.1/cmath ****     typename __gnu_cxx::__enable_if<__is_integer<_Tp>::__value,
 214:/Library/DaisyToolchain/0.2.0/arm/arm-none-eabi/include/c++/10.3.1/cmath ****                                     double>::__type
 215:/Library/DaisyToolchain/0.2.0/arm/arm-none-eabi/include/c++/10.3.1/cmath ****     cosh(_Tp __x)
 216:/Library/DaisyToolchain/0.2.0/arm/arm-none-eabi/include/c++/10.3.1/cmath ****     { return __builtin_cosh(__x); }
 217:/Library/DaisyToolchain/0.2.0/arm/arm-none-eabi/include/c++/10.3.1/cmath **** 
 218:/Library/DaisyToolchain/0.2.0/arm/arm-none-eabi/include/c++/10.3.1/cmath ****   using ::exp;
 219:/Library/DaisyToolchain/0.2.0/arm/arm-none-eabi/include/c++/10.3.1/cmath **** 
 220:/Library/DaisyToolchain/0.2.0/arm/arm-none-eabi/include/c++/10.3.1/cmath **** #ifndef __CORRECT_ISO_CPP_MATH_H_PROTO
 221:/Library/DaisyToolchain/0.2.0/arm/arm-none-eabi/include/c++/10.3.1/cmath ****   inline _GLIBCXX_CONSTEXPR float
 222:/Library/DaisyToolchain/0.2.0/arm/arm-none-eabi/include/c++/10.3.1/cmath ****   exp(float __x)
ARM GAS  /var/folders/1_/rgbtf7293t93c5kflb58xcy40000gn/T//cchnO2o5.s 			page 8


 223:/Library/DaisyToolchain/0.2.0/arm/arm-none-eabi/include/c++/10.3.1/cmath ****   { return __builtin_expf(__x); }
 224:/Library/DaisyToolchain/0.2.0/arm/arm-none-eabi/include/c++/10.3.1/cmath **** 
 225:/Library/DaisyToolchain/0.2.0/arm/arm-none-eabi/include/c++/10.3.1/cmath ****   inline _GLIBCXX_CONSTEXPR long double
 226:/Library/DaisyToolchain/0.2.0/arm/arm-none-eabi/include/c++/10.3.1/cmath ****   exp(long double __x)
 227:/Library/DaisyToolchain/0.2.0/arm/arm-none-eabi/include/c++/10.3.1/cmath ****   { return __builtin_expl(__x); }
 228:/Library/DaisyToolchain/0.2.0/arm/arm-none-eabi/include/c++/10.3.1/cmath **** #endif
 229:/Library/DaisyToolchain/0.2.0/arm/arm-none-eabi/include/c++/10.3.1/cmath **** 
 230:/Library/DaisyToolchain/0.2.0/arm/arm-none-eabi/include/c++/10.3.1/cmath ****   template<typename _Tp>
 231:/Library/DaisyToolchain/0.2.0/arm/arm-none-eabi/include/c++/10.3.1/cmath ****     inline _GLIBCXX_CONSTEXPR
 232:/Library/DaisyToolchain/0.2.0/arm/arm-none-eabi/include/c++/10.3.1/cmath ****     typename __gnu_cxx::__enable_if<__is_integer<_Tp>::__value,
 233:/Library/DaisyToolchain/0.2.0/arm/arm-none-eabi/include/c++/10.3.1/cmath ****                                     double>::__type
 234:/Library/DaisyToolchain/0.2.0/arm/arm-none-eabi/include/c++/10.3.1/cmath ****     exp(_Tp __x)
 235:/Library/DaisyToolchain/0.2.0/arm/arm-none-eabi/include/c++/10.3.1/cmath ****     { return __builtin_exp(__x); }
 236:/Library/DaisyToolchain/0.2.0/arm/arm-none-eabi/include/c++/10.3.1/cmath **** 
 237:/Library/DaisyToolchain/0.2.0/arm/arm-none-eabi/include/c++/10.3.1/cmath ****   using ::fabs;
 238:/Library/DaisyToolchain/0.2.0/arm/arm-none-eabi/include/c++/10.3.1/cmath **** 
 239:/Library/DaisyToolchain/0.2.0/arm/arm-none-eabi/include/c++/10.3.1/cmath **** #ifndef __CORRECT_ISO_CPP_MATH_H_PROTO
 240:/Library/DaisyToolchain/0.2.0/arm/arm-none-eabi/include/c++/10.3.1/cmath ****   inline _GLIBCXX_CONSTEXPR float
 241:/Library/DaisyToolchain/0.2.0/arm/arm-none-eabi/include/c++/10.3.1/cmath ****   fabs(float __x)
 242:/Library/DaisyToolchain/0.2.0/arm/arm-none-eabi/include/c++/10.3.1/cmath ****   { return __builtin_fabsf(__x); }
 243:/Library/DaisyToolchain/0.2.0/arm/arm-none-eabi/include/c++/10.3.1/cmath **** 
 244:/Library/DaisyToolchain/0.2.0/arm/arm-none-eabi/include/c++/10.3.1/cmath ****   inline _GLIBCXX_CONSTEXPR long double
 245:/Library/DaisyToolchain/0.2.0/arm/arm-none-eabi/include/c++/10.3.1/cmath ****   fabs(long double __x)
 246:/Library/DaisyToolchain/0.2.0/arm/arm-none-eabi/include/c++/10.3.1/cmath ****   { return __builtin_fabsl(__x); }
 247:/Library/DaisyToolchain/0.2.0/arm/arm-none-eabi/include/c++/10.3.1/cmath **** #endif
 248:/Library/DaisyToolchain/0.2.0/arm/arm-none-eabi/include/c++/10.3.1/cmath **** 
 249:/Library/DaisyToolchain/0.2.0/arm/arm-none-eabi/include/c++/10.3.1/cmath ****   template<typename _Tp>
 250:/Library/DaisyToolchain/0.2.0/arm/arm-none-eabi/include/c++/10.3.1/cmath ****     inline _GLIBCXX_CONSTEXPR
 251:/Library/DaisyToolchain/0.2.0/arm/arm-none-eabi/include/c++/10.3.1/cmath ****     typename __gnu_cxx::__enable_if<__is_integer<_Tp>::__value,
 252:/Library/DaisyToolchain/0.2.0/arm/arm-none-eabi/include/c++/10.3.1/cmath ****                                     double>::__type
 253:/Library/DaisyToolchain/0.2.0/arm/arm-none-eabi/include/c++/10.3.1/cmath ****     fabs(_Tp __x)
 254:/Library/DaisyToolchain/0.2.0/arm/arm-none-eabi/include/c++/10.3.1/cmath ****     { return __builtin_fabs(__x); }
 255:/Library/DaisyToolchain/0.2.0/arm/arm-none-eabi/include/c++/10.3.1/cmath **** 
 256:/Library/DaisyToolchain/0.2.0/arm/arm-none-eabi/include/c++/10.3.1/cmath ****   using ::floor;
 257:/Library/DaisyToolchain/0.2.0/arm/arm-none-eabi/include/c++/10.3.1/cmath **** 
 258:/Library/DaisyToolchain/0.2.0/arm/arm-none-eabi/include/c++/10.3.1/cmath **** #ifndef __CORRECT_ISO_CPP_MATH_H_PROTO
 259:/Library/DaisyToolchain/0.2.0/arm/arm-none-eabi/include/c++/10.3.1/cmath ****   inline _GLIBCXX_CONSTEXPR float
 260:/Library/DaisyToolchain/0.2.0/arm/arm-none-eabi/include/c++/10.3.1/cmath ****   floor(float __x)
 261:/Library/DaisyToolchain/0.2.0/arm/arm-none-eabi/include/c++/10.3.1/cmath ****   { return __builtin_floorf(__x); }
 107              		.loc 2 261 3
 108              		.cfi_startproc
 109              		@ args = 0, pretend = 0, frame = 8
 110              		@ frame_needed = 1, uses_anonymous_args = 0
 111              		@ link register save eliminated.
 112 0000 80B4     		push	{r7}
 113              		.cfi_def_cfa_offset 4
 114              		.cfi_offset 7, -4
 115 0002 83B0     		sub	sp, sp, #12
 116              		.cfi_def_cfa_offset 16
 117 0004 00AF     		add	r7, sp, #0
 118              		.cfi_def_cfa_register 7
 119 0006 87ED010A 		vstr.32	s0, [r7, #4]
 120              		.loc 2 261 28
 121 000a D7ED017A 		vldr.32	s15, [r7, #4]
 122 000e FBFE677A 		vrintm.f32	s15, s15
 123              		.loc 2 261 35
 124 0012 B0EE670A 		vmov.f32	s0, s15
ARM GAS  /var/folders/1_/rgbtf7293t93c5kflb58xcy40000gn/T//cchnO2o5.s 			page 9


 125 0016 0C37     		adds	r7, r7, #12
 126              		.cfi_def_cfa_offset 4
 127 0018 BD46     		mov	sp, r7
 128              		.cfi_def_cfa_register 13
 129              		@ sp needed
 130 001a 5DF8047B 		ldr	r7, [sp], #4
 131              		.cfi_restore 7
 132              		.cfi_def_cfa_offset 0
 133 001e 7047     		bx	lr
 134              		.cfi_endproc
 135              	.LFE170:
 137              		.section	.rodata._ZStL19piecewise_construct,"a"
 138              		.align	2
 141              	_ZStL19piecewise_construct:
 142 0000 00       		.space	1
 143              		.section	.text._ZL20__gthread_key_deletei,"ax",%progbits
 144              		.align	1
 145              		.syntax unified
 146              		.thumb
 147              		.thumb_func
 149              	_ZL20__gthread_key_deletei:
 150              	.LFB1227:
 151              		.file 3 "/Library/DaisyToolchain/0.2.0/arm/arm-none-eabi/include/c++/10.3.1/arm-none-eabi/thumb/v7
   1:/Library/DaisyToolchain/0.2.0/arm/arm-none-eabi/include/c++/10.3.1/arm-none-eabi/thumb/v7e-m+dp/hard/bits/gthr-default.h **** /* Threads compatibility routines for libgcc2 and libobjc.  */
   2:/Library/DaisyToolchain/0.2.0/arm/arm-none-eabi/include/c++/10.3.1/arm-none-eabi/thumb/v7e-m+dp/hard/bits/gthr-default.h **** /* Compile this one with gcc.  */
   3:/Library/DaisyToolchain/0.2.0/arm/arm-none-eabi/include/c++/10.3.1/arm-none-eabi/thumb/v7e-m+dp/hard/bits/gthr-default.h **** /* Copyright (C) 1997-2020 Free Software Foundation, Inc.
   4:/Library/DaisyToolchain/0.2.0/arm/arm-none-eabi/include/c++/10.3.1/arm-none-eabi/thumb/v7e-m+dp/hard/bits/gthr-default.h **** 
   5:/Library/DaisyToolchain/0.2.0/arm/arm-none-eabi/include/c++/10.3.1/arm-none-eabi/thumb/v7e-m+dp/hard/bits/gthr-default.h **** This file is part of GCC.
   6:/Library/DaisyToolchain/0.2.0/arm/arm-none-eabi/include/c++/10.3.1/arm-none-eabi/thumb/v7e-m+dp/hard/bits/gthr-default.h **** 
   7:/Library/DaisyToolchain/0.2.0/arm/arm-none-eabi/include/c++/10.3.1/arm-none-eabi/thumb/v7e-m+dp/hard/bits/gthr-default.h **** GCC is free software; you can redistribute it and/or modify it under
   8:/Library/DaisyToolchain/0.2.0/arm/arm-none-eabi/include/c++/10.3.1/arm-none-eabi/thumb/v7e-m+dp/hard/bits/gthr-default.h **** the terms of the GNU General Public License as published by the Free
   9:/Library/DaisyToolchain/0.2.0/arm/arm-none-eabi/include/c++/10.3.1/arm-none-eabi/thumb/v7e-m+dp/hard/bits/gthr-default.h **** Software Foundation; either version 3, or (at your option) any later
  10:/Library/DaisyToolchain/0.2.0/arm/arm-none-eabi/include/c++/10.3.1/arm-none-eabi/thumb/v7e-m+dp/hard/bits/gthr-default.h **** version.
  11:/Library/DaisyToolchain/0.2.0/arm/arm-none-eabi/include/c++/10.3.1/arm-none-eabi/thumb/v7e-m+dp/hard/bits/gthr-default.h **** 
  12:/Library/DaisyToolchain/0.2.0/arm/arm-none-eabi/include/c++/10.3.1/arm-none-eabi/thumb/v7e-m+dp/hard/bits/gthr-default.h **** GCC is distributed in the hope that it will be useful, but WITHOUT ANY
  13:/Library/DaisyToolchain/0.2.0/arm/arm-none-eabi/include/c++/10.3.1/arm-none-eabi/thumb/v7e-m+dp/hard/bits/gthr-default.h **** WARRANTY; without even the implied warranty of MERCHANTABILITY or
  14:/Library/DaisyToolchain/0.2.0/arm/arm-none-eabi/include/c++/10.3.1/arm-none-eabi/thumb/v7e-m+dp/hard/bits/gthr-default.h **** FITNESS FOR A PARTICULAR PURPOSE.  See the GNU General Public License
  15:/Library/DaisyToolchain/0.2.0/arm/arm-none-eabi/include/c++/10.3.1/arm-none-eabi/thumb/v7e-m+dp/hard/bits/gthr-default.h **** for more details.
  16:/Library/DaisyToolchain/0.2.0/arm/arm-none-eabi/include/c++/10.3.1/arm-none-eabi/thumb/v7e-m+dp/hard/bits/gthr-default.h **** 
  17:/Library/DaisyToolchain/0.2.0/arm/arm-none-eabi/include/c++/10.3.1/arm-none-eabi/thumb/v7e-m+dp/hard/bits/gthr-default.h **** Under Section 7 of GPL version 3, you are granted additional
  18:/Library/DaisyToolchain/0.2.0/arm/arm-none-eabi/include/c++/10.3.1/arm-none-eabi/thumb/v7e-m+dp/hard/bits/gthr-default.h **** permissions described in the GCC Runtime Library Exception, version
  19:/Library/DaisyToolchain/0.2.0/arm/arm-none-eabi/include/c++/10.3.1/arm-none-eabi/thumb/v7e-m+dp/hard/bits/gthr-default.h **** 3.1, as published by the Free Software Foundation.
  20:/Library/DaisyToolchain/0.2.0/arm/arm-none-eabi/include/c++/10.3.1/arm-none-eabi/thumb/v7e-m+dp/hard/bits/gthr-default.h **** 
  21:/Library/DaisyToolchain/0.2.0/arm/arm-none-eabi/include/c++/10.3.1/arm-none-eabi/thumb/v7e-m+dp/hard/bits/gthr-default.h **** You should have received a copy of the GNU General Public License and
  22:/Library/DaisyToolchain/0.2.0/arm/arm-none-eabi/include/c++/10.3.1/arm-none-eabi/thumb/v7e-m+dp/hard/bits/gthr-default.h **** a copy of the GCC Runtime Library Exception along with this program;
  23:/Library/DaisyToolchain/0.2.0/arm/arm-none-eabi/include/c++/10.3.1/arm-none-eabi/thumb/v7e-m+dp/hard/bits/gthr-default.h **** see the files COPYING3 and COPYING.RUNTIME respectively.  If not, see
  24:/Library/DaisyToolchain/0.2.0/arm/arm-none-eabi/include/c++/10.3.1/arm-none-eabi/thumb/v7e-m+dp/hard/bits/gthr-default.h **** <http://www.gnu.org/licenses/>.  */
  25:/Library/DaisyToolchain/0.2.0/arm/arm-none-eabi/include/c++/10.3.1/arm-none-eabi/thumb/v7e-m+dp/hard/bits/gthr-default.h **** 
  26:/Library/DaisyToolchain/0.2.0/arm/arm-none-eabi/include/c++/10.3.1/arm-none-eabi/thumb/v7e-m+dp/hard/bits/gthr-default.h **** #ifndef _GLIBCXX_GCC_GTHR_SINGLE_H
  27:/Library/DaisyToolchain/0.2.0/arm/arm-none-eabi/include/c++/10.3.1/arm-none-eabi/thumb/v7e-m+dp/hard/bits/gthr-default.h **** #define _GLIBCXX_GCC_GTHR_SINGLE_H
  28:/Library/DaisyToolchain/0.2.0/arm/arm-none-eabi/include/c++/10.3.1/arm-none-eabi/thumb/v7e-m+dp/hard/bits/gthr-default.h **** 
  29:/Library/DaisyToolchain/0.2.0/arm/arm-none-eabi/include/c++/10.3.1/arm-none-eabi/thumb/v7e-m+dp/hard/bits/gthr-default.h **** /* Just provide compatibility for mutex handling.  */
  30:/Library/DaisyToolchain/0.2.0/arm/arm-none-eabi/include/c++/10.3.1/arm-none-eabi/thumb/v7e-m+dp/hard/bits/gthr-default.h **** 
  31:/Library/DaisyToolchain/0.2.0/arm/arm-none-eabi/include/c++/10.3.1/arm-none-eabi/thumb/v7e-m+dp/hard/bits/gthr-default.h **** typedef int __gthread_key_t;
  32:/Library/DaisyToolchain/0.2.0/arm/arm-none-eabi/include/c++/10.3.1/arm-none-eabi/thumb/v7e-m+dp/hard/bits/gthr-default.h **** typedef int __gthread_once_t;
  33:/Library/DaisyToolchain/0.2.0/arm/arm-none-eabi/include/c++/10.3.1/arm-none-eabi/thumb/v7e-m+dp/hard/bits/gthr-default.h **** typedef int __gthread_mutex_t;
  34:/Library/DaisyToolchain/0.2.0/arm/arm-none-eabi/include/c++/10.3.1/arm-none-eabi/thumb/v7e-m+dp/hard/bits/gthr-default.h **** typedef int __gthread_recursive_mutex_t;
ARM GAS  /var/folders/1_/rgbtf7293t93c5kflb58xcy40000gn/T//cchnO2o5.s 			page 10


  35:/Library/DaisyToolchain/0.2.0/arm/arm-none-eabi/include/c++/10.3.1/arm-none-eabi/thumb/v7e-m+dp/hard/bits/gthr-default.h **** 
  36:/Library/DaisyToolchain/0.2.0/arm/arm-none-eabi/include/c++/10.3.1/arm-none-eabi/thumb/v7e-m+dp/hard/bits/gthr-default.h **** #define __GTHREAD_ONCE_INIT 0
  37:/Library/DaisyToolchain/0.2.0/arm/arm-none-eabi/include/c++/10.3.1/arm-none-eabi/thumb/v7e-m+dp/hard/bits/gthr-default.h **** #define __GTHREAD_MUTEX_INIT 0
  38:/Library/DaisyToolchain/0.2.0/arm/arm-none-eabi/include/c++/10.3.1/arm-none-eabi/thumb/v7e-m+dp/hard/bits/gthr-default.h **** #define __GTHREAD_MUTEX_INIT_FUNCTION(mx) do {} while (0)
  39:/Library/DaisyToolchain/0.2.0/arm/arm-none-eabi/include/c++/10.3.1/arm-none-eabi/thumb/v7e-m+dp/hard/bits/gthr-default.h **** #define __GTHREAD_RECURSIVE_MUTEX_INIT 0
  40:/Library/DaisyToolchain/0.2.0/arm/arm-none-eabi/include/c++/10.3.1/arm-none-eabi/thumb/v7e-m+dp/hard/bits/gthr-default.h **** 
  41:/Library/DaisyToolchain/0.2.0/arm/arm-none-eabi/include/c++/10.3.1/arm-none-eabi/thumb/v7e-m+dp/hard/bits/gthr-default.h **** #define _GLIBCXX_UNUSED __attribute__((__unused__))
  42:/Library/DaisyToolchain/0.2.0/arm/arm-none-eabi/include/c++/10.3.1/arm-none-eabi/thumb/v7e-m+dp/hard/bits/gthr-default.h **** 
  43:/Library/DaisyToolchain/0.2.0/arm/arm-none-eabi/include/c++/10.3.1/arm-none-eabi/thumb/v7e-m+dp/hard/bits/gthr-default.h **** #ifdef _LIBOBJC
  44:/Library/DaisyToolchain/0.2.0/arm/arm-none-eabi/include/c++/10.3.1/arm-none-eabi/thumb/v7e-m+dp/hard/bits/gthr-default.h **** 
  45:/Library/DaisyToolchain/0.2.0/arm/arm-none-eabi/include/c++/10.3.1/arm-none-eabi/thumb/v7e-m+dp/hard/bits/gthr-default.h **** /* Thread local storage for a single thread */
  46:/Library/DaisyToolchain/0.2.0/arm/arm-none-eabi/include/c++/10.3.1/arm-none-eabi/thumb/v7e-m+dp/hard/bits/gthr-default.h **** static void *thread_local_storage = NULL;
  47:/Library/DaisyToolchain/0.2.0/arm/arm-none-eabi/include/c++/10.3.1/arm-none-eabi/thumb/v7e-m+dp/hard/bits/gthr-default.h **** 
  48:/Library/DaisyToolchain/0.2.0/arm/arm-none-eabi/include/c++/10.3.1/arm-none-eabi/thumb/v7e-m+dp/hard/bits/gthr-default.h **** /* Backend initialization functions */
  49:/Library/DaisyToolchain/0.2.0/arm/arm-none-eabi/include/c++/10.3.1/arm-none-eabi/thumb/v7e-m+dp/hard/bits/gthr-default.h **** 
  50:/Library/DaisyToolchain/0.2.0/arm/arm-none-eabi/include/c++/10.3.1/arm-none-eabi/thumb/v7e-m+dp/hard/bits/gthr-default.h **** /* Initialize the threads subsystem.  */
  51:/Library/DaisyToolchain/0.2.0/arm/arm-none-eabi/include/c++/10.3.1/arm-none-eabi/thumb/v7e-m+dp/hard/bits/gthr-default.h **** static inline int
  52:/Library/DaisyToolchain/0.2.0/arm/arm-none-eabi/include/c++/10.3.1/arm-none-eabi/thumb/v7e-m+dp/hard/bits/gthr-default.h **** __gthread_objc_init_thread_system (void)
  53:/Library/DaisyToolchain/0.2.0/arm/arm-none-eabi/include/c++/10.3.1/arm-none-eabi/thumb/v7e-m+dp/hard/bits/gthr-default.h **** {
  54:/Library/DaisyToolchain/0.2.0/arm/arm-none-eabi/include/c++/10.3.1/arm-none-eabi/thumb/v7e-m+dp/hard/bits/gthr-default.h ****   /* No thread support available */
  55:/Library/DaisyToolchain/0.2.0/arm/arm-none-eabi/include/c++/10.3.1/arm-none-eabi/thumb/v7e-m+dp/hard/bits/gthr-default.h ****   return -1;
  56:/Library/DaisyToolchain/0.2.0/arm/arm-none-eabi/include/c++/10.3.1/arm-none-eabi/thumb/v7e-m+dp/hard/bits/gthr-default.h **** }
  57:/Library/DaisyToolchain/0.2.0/arm/arm-none-eabi/include/c++/10.3.1/arm-none-eabi/thumb/v7e-m+dp/hard/bits/gthr-default.h **** 
  58:/Library/DaisyToolchain/0.2.0/arm/arm-none-eabi/include/c++/10.3.1/arm-none-eabi/thumb/v7e-m+dp/hard/bits/gthr-default.h **** /* Close the threads subsystem.  */
  59:/Library/DaisyToolchain/0.2.0/arm/arm-none-eabi/include/c++/10.3.1/arm-none-eabi/thumb/v7e-m+dp/hard/bits/gthr-default.h **** static inline int
  60:/Library/DaisyToolchain/0.2.0/arm/arm-none-eabi/include/c++/10.3.1/arm-none-eabi/thumb/v7e-m+dp/hard/bits/gthr-default.h **** __gthread_objc_close_thread_system (void)
  61:/Library/DaisyToolchain/0.2.0/arm/arm-none-eabi/include/c++/10.3.1/arm-none-eabi/thumb/v7e-m+dp/hard/bits/gthr-default.h **** {
  62:/Library/DaisyToolchain/0.2.0/arm/arm-none-eabi/include/c++/10.3.1/arm-none-eabi/thumb/v7e-m+dp/hard/bits/gthr-default.h ****   /* No thread support available */
  63:/Library/DaisyToolchain/0.2.0/arm/arm-none-eabi/include/c++/10.3.1/arm-none-eabi/thumb/v7e-m+dp/hard/bits/gthr-default.h ****   return -1;
  64:/Library/DaisyToolchain/0.2.0/arm/arm-none-eabi/include/c++/10.3.1/arm-none-eabi/thumb/v7e-m+dp/hard/bits/gthr-default.h **** }
  65:/Library/DaisyToolchain/0.2.0/arm/arm-none-eabi/include/c++/10.3.1/arm-none-eabi/thumb/v7e-m+dp/hard/bits/gthr-default.h **** 
  66:/Library/DaisyToolchain/0.2.0/arm/arm-none-eabi/include/c++/10.3.1/arm-none-eabi/thumb/v7e-m+dp/hard/bits/gthr-default.h **** /* Backend thread functions */
  67:/Library/DaisyToolchain/0.2.0/arm/arm-none-eabi/include/c++/10.3.1/arm-none-eabi/thumb/v7e-m+dp/hard/bits/gthr-default.h **** 
  68:/Library/DaisyToolchain/0.2.0/arm/arm-none-eabi/include/c++/10.3.1/arm-none-eabi/thumb/v7e-m+dp/hard/bits/gthr-default.h **** /* Create a new thread of execution.  */
  69:/Library/DaisyToolchain/0.2.0/arm/arm-none-eabi/include/c++/10.3.1/arm-none-eabi/thumb/v7e-m+dp/hard/bits/gthr-default.h **** static inline objc_thread_t
  70:/Library/DaisyToolchain/0.2.0/arm/arm-none-eabi/include/c++/10.3.1/arm-none-eabi/thumb/v7e-m+dp/hard/bits/gthr-default.h **** __gthread_objc_thread_detach (void (* func)(void *), void * arg _GLIBCXX_UNUSED)
  71:/Library/DaisyToolchain/0.2.0/arm/arm-none-eabi/include/c++/10.3.1/arm-none-eabi/thumb/v7e-m+dp/hard/bits/gthr-default.h **** {
  72:/Library/DaisyToolchain/0.2.0/arm/arm-none-eabi/include/c++/10.3.1/arm-none-eabi/thumb/v7e-m+dp/hard/bits/gthr-default.h ****   /* No thread support available */
  73:/Library/DaisyToolchain/0.2.0/arm/arm-none-eabi/include/c++/10.3.1/arm-none-eabi/thumb/v7e-m+dp/hard/bits/gthr-default.h ****   return NULL;
  74:/Library/DaisyToolchain/0.2.0/arm/arm-none-eabi/include/c++/10.3.1/arm-none-eabi/thumb/v7e-m+dp/hard/bits/gthr-default.h **** }
  75:/Library/DaisyToolchain/0.2.0/arm/arm-none-eabi/include/c++/10.3.1/arm-none-eabi/thumb/v7e-m+dp/hard/bits/gthr-default.h **** 
  76:/Library/DaisyToolchain/0.2.0/arm/arm-none-eabi/include/c++/10.3.1/arm-none-eabi/thumb/v7e-m+dp/hard/bits/gthr-default.h **** /* Set the current thread's priority.  */
  77:/Library/DaisyToolchain/0.2.0/arm/arm-none-eabi/include/c++/10.3.1/arm-none-eabi/thumb/v7e-m+dp/hard/bits/gthr-default.h **** static inline int
  78:/Library/DaisyToolchain/0.2.0/arm/arm-none-eabi/include/c++/10.3.1/arm-none-eabi/thumb/v7e-m+dp/hard/bits/gthr-default.h **** __gthread_objc_thread_set_priority (int priority _GLIBCXX_UNUSED)
  79:/Library/DaisyToolchain/0.2.0/arm/arm-none-eabi/include/c++/10.3.1/arm-none-eabi/thumb/v7e-m+dp/hard/bits/gthr-default.h **** {
  80:/Library/DaisyToolchain/0.2.0/arm/arm-none-eabi/include/c++/10.3.1/arm-none-eabi/thumb/v7e-m+dp/hard/bits/gthr-default.h ****   /* No thread support available */
  81:/Library/DaisyToolchain/0.2.0/arm/arm-none-eabi/include/c++/10.3.1/arm-none-eabi/thumb/v7e-m+dp/hard/bits/gthr-default.h ****   return -1;
  82:/Library/DaisyToolchain/0.2.0/arm/arm-none-eabi/include/c++/10.3.1/arm-none-eabi/thumb/v7e-m+dp/hard/bits/gthr-default.h **** }
  83:/Library/DaisyToolchain/0.2.0/arm/arm-none-eabi/include/c++/10.3.1/arm-none-eabi/thumb/v7e-m+dp/hard/bits/gthr-default.h **** 
  84:/Library/DaisyToolchain/0.2.0/arm/arm-none-eabi/include/c++/10.3.1/arm-none-eabi/thumb/v7e-m+dp/hard/bits/gthr-default.h **** /* Return the current thread's priority.  */
  85:/Library/DaisyToolchain/0.2.0/arm/arm-none-eabi/include/c++/10.3.1/arm-none-eabi/thumb/v7e-m+dp/hard/bits/gthr-default.h **** static inline int
  86:/Library/DaisyToolchain/0.2.0/arm/arm-none-eabi/include/c++/10.3.1/arm-none-eabi/thumb/v7e-m+dp/hard/bits/gthr-default.h **** __gthread_objc_thread_get_priority (void)
  87:/Library/DaisyToolchain/0.2.0/arm/arm-none-eabi/include/c++/10.3.1/arm-none-eabi/thumb/v7e-m+dp/hard/bits/gthr-default.h **** {
  88:/Library/DaisyToolchain/0.2.0/arm/arm-none-eabi/include/c++/10.3.1/arm-none-eabi/thumb/v7e-m+dp/hard/bits/gthr-default.h ****   return OBJC_THREAD_INTERACTIVE_PRIORITY;
  89:/Library/DaisyToolchain/0.2.0/arm/arm-none-eabi/include/c++/10.3.1/arm-none-eabi/thumb/v7e-m+dp/hard/bits/gthr-default.h **** }
  90:/Library/DaisyToolchain/0.2.0/arm/arm-none-eabi/include/c++/10.3.1/arm-none-eabi/thumb/v7e-m+dp/hard/bits/gthr-default.h **** 
  91:/Library/DaisyToolchain/0.2.0/arm/arm-none-eabi/include/c++/10.3.1/arm-none-eabi/thumb/v7e-m+dp/hard/bits/gthr-default.h **** /* Yield our process time to another thread.  */
ARM GAS  /var/folders/1_/rgbtf7293t93c5kflb58xcy40000gn/T//cchnO2o5.s 			page 11


  92:/Library/DaisyToolchain/0.2.0/arm/arm-none-eabi/include/c++/10.3.1/arm-none-eabi/thumb/v7e-m+dp/hard/bits/gthr-default.h **** static inline void
  93:/Library/DaisyToolchain/0.2.0/arm/arm-none-eabi/include/c++/10.3.1/arm-none-eabi/thumb/v7e-m+dp/hard/bits/gthr-default.h **** __gthread_objc_thread_yield (void)
  94:/Library/DaisyToolchain/0.2.0/arm/arm-none-eabi/include/c++/10.3.1/arm-none-eabi/thumb/v7e-m+dp/hard/bits/gthr-default.h **** {
  95:/Library/DaisyToolchain/0.2.0/arm/arm-none-eabi/include/c++/10.3.1/arm-none-eabi/thumb/v7e-m+dp/hard/bits/gthr-default.h ****   return;
  96:/Library/DaisyToolchain/0.2.0/arm/arm-none-eabi/include/c++/10.3.1/arm-none-eabi/thumb/v7e-m+dp/hard/bits/gthr-default.h **** }
  97:/Library/DaisyToolchain/0.2.0/arm/arm-none-eabi/include/c++/10.3.1/arm-none-eabi/thumb/v7e-m+dp/hard/bits/gthr-default.h **** 
  98:/Library/DaisyToolchain/0.2.0/arm/arm-none-eabi/include/c++/10.3.1/arm-none-eabi/thumb/v7e-m+dp/hard/bits/gthr-default.h **** /* Terminate the current thread.  */
  99:/Library/DaisyToolchain/0.2.0/arm/arm-none-eabi/include/c++/10.3.1/arm-none-eabi/thumb/v7e-m+dp/hard/bits/gthr-default.h **** static inline int
 100:/Library/DaisyToolchain/0.2.0/arm/arm-none-eabi/include/c++/10.3.1/arm-none-eabi/thumb/v7e-m+dp/hard/bits/gthr-default.h **** __gthread_objc_thread_exit (void)
 101:/Library/DaisyToolchain/0.2.0/arm/arm-none-eabi/include/c++/10.3.1/arm-none-eabi/thumb/v7e-m+dp/hard/bits/gthr-default.h **** {
 102:/Library/DaisyToolchain/0.2.0/arm/arm-none-eabi/include/c++/10.3.1/arm-none-eabi/thumb/v7e-m+dp/hard/bits/gthr-default.h ****   /* No thread support available */
 103:/Library/DaisyToolchain/0.2.0/arm/arm-none-eabi/include/c++/10.3.1/arm-none-eabi/thumb/v7e-m+dp/hard/bits/gthr-default.h ****   /* Should we really exit the program */
 104:/Library/DaisyToolchain/0.2.0/arm/arm-none-eabi/include/c++/10.3.1/arm-none-eabi/thumb/v7e-m+dp/hard/bits/gthr-default.h ****   /* exit (&__objc_thread_exit_status); */
 105:/Library/DaisyToolchain/0.2.0/arm/arm-none-eabi/include/c++/10.3.1/arm-none-eabi/thumb/v7e-m+dp/hard/bits/gthr-default.h ****   return -1;
 106:/Library/DaisyToolchain/0.2.0/arm/arm-none-eabi/include/c++/10.3.1/arm-none-eabi/thumb/v7e-m+dp/hard/bits/gthr-default.h **** }
 107:/Library/DaisyToolchain/0.2.0/arm/arm-none-eabi/include/c++/10.3.1/arm-none-eabi/thumb/v7e-m+dp/hard/bits/gthr-default.h **** 
 108:/Library/DaisyToolchain/0.2.0/arm/arm-none-eabi/include/c++/10.3.1/arm-none-eabi/thumb/v7e-m+dp/hard/bits/gthr-default.h **** /* Returns an integer value which uniquely describes a thread.  */
 109:/Library/DaisyToolchain/0.2.0/arm/arm-none-eabi/include/c++/10.3.1/arm-none-eabi/thumb/v7e-m+dp/hard/bits/gthr-default.h **** static inline objc_thread_t
 110:/Library/DaisyToolchain/0.2.0/arm/arm-none-eabi/include/c++/10.3.1/arm-none-eabi/thumb/v7e-m+dp/hard/bits/gthr-default.h **** __gthread_objc_thread_id (void)
 111:/Library/DaisyToolchain/0.2.0/arm/arm-none-eabi/include/c++/10.3.1/arm-none-eabi/thumb/v7e-m+dp/hard/bits/gthr-default.h **** {
 112:/Library/DaisyToolchain/0.2.0/arm/arm-none-eabi/include/c++/10.3.1/arm-none-eabi/thumb/v7e-m+dp/hard/bits/gthr-default.h ****   /* No thread support, use 1.  */
 113:/Library/DaisyToolchain/0.2.0/arm/arm-none-eabi/include/c++/10.3.1/arm-none-eabi/thumb/v7e-m+dp/hard/bits/gthr-default.h ****   return (objc_thread_t) 1;
 114:/Library/DaisyToolchain/0.2.0/arm/arm-none-eabi/include/c++/10.3.1/arm-none-eabi/thumb/v7e-m+dp/hard/bits/gthr-default.h **** }
 115:/Library/DaisyToolchain/0.2.0/arm/arm-none-eabi/include/c++/10.3.1/arm-none-eabi/thumb/v7e-m+dp/hard/bits/gthr-default.h **** 
 116:/Library/DaisyToolchain/0.2.0/arm/arm-none-eabi/include/c++/10.3.1/arm-none-eabi/thumb/v7e-m+dp/hard/bits/gthr-default.h **** /* Sets the thread's local storage pointer.  */
 117:/Library/DaisyToolchain/0.2.0/arm/arm-none-eabi/include/c++/10.3.1/arm-none-eabi/thumb/v7e-m+dp/hard/bits/gthr-default.h **** static inline int
 118:/Library/DaisyToolchain/0.2.0/arm/arm-none-eabi/include/c++/10.3.1/arm-none-eabi/thumb/v7e-m+dp/hard/bits/gthr-default.h **** __gthread_objc_thread_set_data (void *value)
 119:/Library/DaisyToolchain/0.2.0/arm/arm-none-eabi/include/c++/10.3.1/arm-none-eabi/thumb/v7e-m+dp/hard/bits/gthr-default.h **** {
 120:/Library/DaisyToolchain/0.2.0/arm/arm-none-eabi/include/c++/10.3.1/arm-none-eabi/thumb/v7e-m+dp/hard/bits/gthr-default.h ****   thread_local_storage = value;
 121:/Library/DaisyToolchain/0.2.0/arm/arm-none-eabi/include/c++/10.3.1/arm-none-eabi/thumb/v7e-m+dp/hard/bits/gthr-default.h ****   return 0;
 122:/Library/DaisyToolchain/0.2.0/arm/arm-none-eabi/include/c++/10.3.1/arm-none-eabi/thumb/v7e-m+dp/hard/bits/gthr-default.h **** }
 123:/Library/DaisyToolchain/0.2.0/arm/arm-none-eabi/include/c++/10.3.1/arm-none-eabi/thumb/v7e-m+dp/hard/bits/gthr-default.h **** 
 124:/Library/DaisyToolchain/0.2.0/arm/arm-none-eabi/include/c++/10.3.1/arm-none-eabi/thumb/v7e-m+dp/hard/bits/gthr-default.h **** /* Returns the thread's local storage pointer.  */
 125:/Library/DaisyToolchain/0.2.0/arm/arm-none-eabi/include/c++/10.3.1/arm-none-eabi/thumb/v7e-m+dp/hard/bits/gthr-default.h **** static inline void *
 126:/Library/DaisyToolchain/0.2.0/arm/arm-none-eabi/include/c++/10.3.1/arm-none-eabi/thumb/v7e-m+dp/hard/bits/gthr-default.h **** __gthread_objc_thread_get_data (void)
 127:/Library/DaisyToolchain/0.2.0/arm/arm-none-eabi/include/c++/10.3.1/arm-none-eabi/thumb/v7e-m+dp/hard/bits/gthr-default.h **** {
 128:/Library/DaisyToolchain/0.2.0/arm/arm-none-eabi/include/c++/10.3.1/arm-none-eabi/thumb/v7e-m+dp/hard/bits/gthr-default.h ****   return thread_local_storage;
 129:/Library/DaisyToolchain/0.2.0/arm/arm-none-eabi/include/c++/10.3.1/arm-none-eabi/thumb/v7e-m+dp/hard/bits/gthr-default.h **** }
 130:/Library/DaisyToolchain/0.2.0/arm/arm-none-eabi/include/c++/10.3.1/arm-none-eabi/thumb/v7e-m+dp/hard/bits/gthr-default.h **** 
 131:/Library/DaisyToolchain/0.2.0/arm/arm-none-eabi/include/c++/10.3.1/arm-none-eabi/thumb/v7e-m+dp/hard/bits/gthr-default.h **** /* Backend mutex functions */
 132:/Library/DaisyToolchain/0.2.0/arm/arm-none-eabi/include/c++/10.3.1/arm-none-eabi/thumb/v7e-m+dp/hard/bits/gthr-default.h **** 
 133:/Library/DaisyToolchain/0.2.0/arm/arm-none-eabi/include/c++/10.3.1/arm-none-eabi/thumb/v7e-m+dp/hard/bits/gthr-default.h **** /* Allocate a mutex.  */
 134:/Library/DaisyToolchain/0.2.0/arm/arm-none-eabi/include/c++/10.3.1/arm-none-eabi/thumb/v7e-m+dp/hard/bits/gthr-default.h **** static inline int
 135:/Library/DaisyToolchain/0.2.0/arm/arm-none-eabi/include/c++/10.3.1/arm-none-eabi/thumb/v7e-m+dp/hard/bits/gthr-default.h **** __gthread_objc_mutex_allocate (objc_mutex_t mutex _GLIBCXX_UNUSED)
 136:/Library/DaisyToolchain/0.2.0/arm/arm-none-eabi/include/c++/10.3.1/arm-none-eabi/thumb/v7e-m+dp/hard/bits/gthr-default.h **** {
 137:/Library/DaisyToolchain/0.2.0/arm/arm-none-eabi/include/c++/10.3.1/arm-none-eabi/thumb/v7e-m+dp/hard/bits/gthr-default.h ****   return 0;
 138:/Library/DaisyToolchain/0.2.0/arm/arm-none-eabi/include/c++/10.3.1/arm-none-eabi/thumb/v7e-m+dp/hard/bits/gthr-default.h **** }
 139:/Library/DaisyToolchain/0.2.0/arm/arm-none-eabi/include/c++/10.3.1/arm-none-eabi/thumb/v7e-m+dp/hard/bits/gthr-default.h **** 
 140:/Library/DaisyToolchain/0.2.0/arm/arm-none-eabi/include/c++/10.3.1/arm-none-eabi/thumb/v7e-m+dp/hard/bits/gthr-default.h **** /* Deallocate a mutex.  */
 141:/Library/DaisyToolchain/0.2.0/arm/arm-none-eabi/include/c++/10.3.1/arm-none-eabi/thumb/v7e-m+dp/hard/bits/gthr-default.h **** static inline int
 142:/Library/DaisyToolchain/0.2.0/arm/arm-none-eabi/include/c++/10.3.1/arm-none-eabi/thumb/v7e-m+dp/hard/bits/gthr-default.h **** __gthread_objc_mutex_deallocate (objc_mutex_t mutex _GLIBCXX_UNUSED)
 143:/Library/DaisyToolchain/0.2.0/arm/arm-none-eabi/include/c++/10.3.1/arm-none-eabi/thumb/v7e-m+dp/hard/bits/gthr-default.h **** {
 144:/Library/DaisyToolchain/0.2.0/arm/arm-none-eabi/include/c++/10.3.1/arm-none-eabi/thumb/v7e-m+dp/hard/bits/gthr-default.h ****   return 0;
 145:/Library/DaisyToolchain/0.2.0/arm/arm-none-eabi/include/c++/10.3.1/arm-none-eabi/thumb/v7e-m+dp/hard/bits/gthr-default.h **** }
 146:/Library/DaisyToolchain/0.2.0/arm/arm-none-eabi/include/c++/10.3.1/arm-none-eabi/thumb/v7e-m+dp/hard/bits/gthr-default.h **** 
 147:/Library/DaisyToolchain/0.2.0/arm/arm-none-eabi/include/c++/10.3.1/arm-none-eabi/thumb/v7e-m+dp/hard/bits/gthr-default.h **** /* Grab a lock on a mutex.  */
 148:/Library/DaisyToolchain/0.2.0/arm/arm-none-eabi/include/c++/10.3.1/arm-none-eabi/thumb/v7e-m+dp/hard/bits/gthr-default.h **** static inline int
ARM GAS  /var/folders/1_/rgbtf7293t93c5kflb58xcy40000gn/T//cchnO2o5.s 			page 12


 149:/Library/DaisyToolchain/0.2.0/arm/arm-none-eabi/include/c++/10.3.1/arm-none-eabi/thumb/v7e-m+dp/hard/bits/gthr-default.h **** __gthread_objc_mutex_lock (objc_mutex_t mutex _GLIBCXX_UNUSED)
 150:/Library/DaisyToolchain/0.2.0/arm/arm-none-eabi/include/c++/10.3.1/arm-none-eabi/thumb/v7e-m+dp/hard/bits/gthr-default.h **** {
 151:/Library/DaisyToolchain/0.2.0/arm/arm-none-eabi/include/c++/10.3.1/arm-none-eabi/thumb/v7e-m+dp/hard/bits/gthr-default.h ****   /* There can only be one thread, so we always get the lock */
 152:/Library/DaisyToolchain/0.2.0/arm/arm-none-eabi/include/c++/10.3.1/arm-none-eabi/thumb/v7e-m+dp/hard/bits/gthr-default.h ****   return 0;
 153:/Library/DaisyToolchain/0.2.0/arm/arm-none-eabi/include/c++/10.3.1/arm-none-eabi/thumb/v7e-m+dp/hard/bits/gthr-default.h **** }
 154:/Library/DaisyToolchain/0.2.0/arm/arm-none-eabi/include/c++/10.3.1/arm-none-eabi/thumb/v7e-m+dp/hard/bits/gthr-default.h **** 
 155:/Library/DaisyToolchain/0.2.0/arm/arm-none-eabi/include/c++/10.3.1/arm-none-eabi/thumb/v7e-m+dp/hard/bits/gthr-default.h **** /* Try to grab a lock on a mutex.  */
 156:/Library/DaisyToolchain/0.2.0/arm/arm-none-eabi/include/c++/10.3.1/arm-none-eabi/thumb/v7e-m+dp/hard/bits/gthr-default.h **** static inline int
 157:/Library/DaisyToolchain/0.2.0/arm/arm-none-eabi/include/c++/10.3.1/arm-none-eabi/thumb/v7e-m+dp/hard/bits/gthr-default.h **** __gthread_objc_mutex_trylock (objc_mutex_t mutex _GLIBCXX_UNUSED)
 158:/Library/DaisyToolchain/0.2.0/arm/arm-none-eabi/include/c++/10.3.1/arm-none-eabi/thumb/v7e-m+dp/hard/bits/gthr-default.h **** {
 159:/Library/DaisyToolchain/0.2.0/arm/arm-none-eabi/include/c++/10.3.1/arm-none-eabi/thumb/v7e-m+dp/hard/bits/gthr-default.h ****   /* There can only be one thread, so we always get the lock */
 160:/Library/DaisyToolchain/0.2.0/arm/arm-none-eabi/include/c++/10.3.1/arm-none-eabi/thumb/v7e-m+dp/hard/bits/gthr-default.h ****   return 0;
 161:/Library/DaisyToolchain/0.2.0/arm/arm-none-eabi/include/c++/10.3.1/arm-none-eabi/thumb/v7e-m+dp/hard/bits/gthr-default.h **** }
 162:/Library/DaisyToolchain/0.2.0/arm/arm-none-eabi/include/c++/10.3.1/arm-none-eabi/thumb/v7e-m+dp/hard/bits/gthr-default.h **** 
 163:/Library/DaisyToolchain/0.2.0/arm/arm-none-eabi/include/c++/10.3.1/arm-none-eabi/thumb/v7e-m+dp/hard/bits/gthr-default.h **** /* Unlock the mutex */
 164:/Library/DaisyToolchain/0.2.0/arm/arm-none-eabi/include/c++/10.3.1/arm-none-eabi/thumb/v7e-m+dp/hard/bits/gthr-default.h **** static inline int
 165:/Library/DaisyToolchain/0.2.0/arm/arm-none-eabi/include/c++/10.3.1/arm-none-eabi/thumb/v7e-m+dp/hard/bits/gthr-default.h **** __gthread_objc_mutex_unlock (objc_mutex_t mutex _GLIBCXX_UNUSED)
 166:/Library/DaisyToolchain/0.2.0/arm/arm-none-eabi/include/c++/10.3.1/arm-none-eabi/thumb/v7e-m+dp/hard/bits/gthr-default.h **** {
 167:/Library/DaisyToolchain/0.2.0/arm/arm-none-eabi/include/c++/10.3.1/arm-none-eabi/thumb/v7e-m+dp/hard/bits/gthr-default.h ****   return 0;
 168:/Library/DaisyToolchain/0.2.0/arm/arm-none-eabi/include/c++/10.3.1/arm-none-eabi/thumb/v7e-m+dp/hard/bits/gthr-default.h **** }
 169:/Library/DaisyToolchain/0.2.0/arm/arm-none-eabi/include/c++/10.3.1/arm-none-eabi/thumb/v7e-m+dp/hard/bits/gthr-default.h **** 
 170:/Library/DaisyToolchain/0.2.0/arm/arm-none-eabi/include/c++/10.3.1/arm-none-eabi/thumb/v7e-m+dp/hard/bits/gthr-default.h **** /* Backend condition mutex functions */
 171:/Library/DaisyToolchain/0.2.0/arm/arm-none-eabi/include/c++/10.3.1/arm-none-eabi/thumb/v7e-m+dp/hard/bits/gthr-default.h **** 
 172:/Library/DaisyToolchain/0.2.0/arm/arm-none-eabi/include/c++/10.3.1/arm-none-eabi/thumb/v7e-m+dp/hard/bits/gthr-default.h **** /* Allocate a condition.  */
 173:/Library/DaisyToolchain/0.2.0/arm/arm-none-eabi/include/c++/10.3.1/arm-none-eabi/thumb/v7e-m+dp/hard/bits/gthr-default.h **** static inline int
 174:/Library/DaisyToolchain/0.2.0/arm/arm-none-eabi/include/c++/10.3.1/arm-none-eabi/thumb/v7e-m+dp/hard/bits/gthr-default.h **** __gthread_objc_condition_allocate (objc_condition_t condition _GLIBCXX_UNUSED)
 175:/Library/DaisyToolchain/0.2.0/arm/arm-none-eabi/include/c++/10.3.1/arm-none-eabi/thumb/v7e-m+dp/hard/bits/gthr-default.h **** {
 176:/Library/DaisyToolchain/0.2.0/arm/arm-none-eabi/include/c++/10.3.1/arm-none-eabi/thumb/v7e-m+dp/hard/bits/gthr-default.h ****   return 0;
 177:/Library/DaisyToolchain/0.2.0/arm/arm-none-eabi/include/c++/10.3.1/arm-none-eabi/thumb/v7e-m+dp/hard/bits/gthr-default.h **** }
 178:/Library/DaisyToolchain/0.2.0/arm/arm-none-eabi/include/c++/10.3.1/arm-none-eabi/thumb/v7e-m+dp/hard/bits/gthr-default.h **** 
 179:/Library/DaisyToolchain/0.2.0/arm/arm-none-eabi/include/c++/10.3.1/arm-none-eabi/thumb/v7e-m+dp/hard/bits/gthr-default.h **** /* Deallocate a condition.  */
 180:/Library/DaisyToolchain/0.2.0/arm/arm-none-eabi/include/c++/10.3.1/arm-none-eabi/thumb/v7e-m+dp/hard/bits/gthr-default.h **** static inline int
 181:/Library/DaisyToolchain/0.2.0/arm/arm-none-eabi/include/c++/10.3.1/arm-none-eabi/thumb/v7e-m+dp/hard/bits/gthr-default.h **** __gthread_objc_condition_deallocate (objc_condition_t condition _GLIBCXX_UNUSED)
 182:/Library/DaisyToolchain/0.2.0/arm/arm-none-eabi/include/c++/10.3.1/arm-none-eabi/thumb/v7e-m+dp/hard/bits/gthr-default.h **** {
 183:/Library/DaisyToolchain/0.2.0/arm/arm-none-eabi/include/c++/10.3.1/arm-none-eabi/thumb/v7e-m+dp/hard/bits/gthr-default.h ****   return 0;
 184:/Library/DaisyToolchain/0.2.0/arm/arm-none-eabi/include/c++/10.3.1/arm-none-eabi/thumb/v7e-m+dp/hard/bits/gthr-default.h **** }
 185:/Library/DaisyToolchain/0.2.0/arm/arm-none-eabi/include/c++/10.3.1/arm-none-eabi/thumb/v7e-m+dp/hard/bits/gthr-default.h **** 
 186:/Library/DaisyToolchain/0.2.0/arm/arm-none-eabi/include/c++/10.3.1/arm-none-eabi/thumb/v7e-m+dp/hard/bits/gthr-default.h **** /* Wait on the condition */
 187:/Library/DaisyToolchain/0.2.0/arm/arm-none-eabi/include/c++/10.3.1/arm-none-eabi/thumb/v7e-m+dp/hard/bits/gthr-default.h **** static inline int
 188:/Library/DaisyToolchain/0.2.0/arm/arm-none-eabi/include/c++/10.3.1/arm-none-eabi/thumb/v7e-m+dp/hard/bits/gthr-default.h **** __gthread_objc_condition_wait (objc_condition_t condition _GLIBCXX_UNUSED,
 189:/Library/DaisyToolchain/0.2.0/arm/arm-none-eabi/include/c++/10.3.1/arm-none-eabi/thumb/v7e-m+dp/hard/bits/gthr-default.h **** 			       objc_mutex_t mutex _GLIBCXX_UNUSED)
 190:/Library/DaisyToolchain/0.2.0/arm/arm-none-eabi/include/c++/10.3.1/arm-none-eabi/thumb/v7e-m+dp/hard/bits/gthr-default.h **** {
 191:/Library/DaisyToolchain/0.2.0/arm/arm-none-eabi/include/c++/10.3.1/arm-none-eabi/thumb/v7e-m+dp/hard/bits/gthr-default.h ****   return 0;
 192:/Library/DaisyToolchain/0.2.0/arm/arm-none-eabi/include/c++/10.3.1/arm-none-eabi/thumb/v7e-m+dp/hard/bits/gthr-default.h **** }
 193:/Library/DaisyToolchain/0.2.0/arm/arm-none-eabi/include/c++/10.3.1/arm-none-eabi/thumb/v7e-m+dp/hard/bits/gthr-default.h **** 
 194:/Library/DaisyToolchain/0.2.0/arm/arm-none-eabi/include/c++/10.3.1/arm-none-eabi/thumb/v7e-m+dp/hard/bits/gthr-default.h **** /* Wake up all threads waiting on this condition.  */
 195:/Library/DaisyToolchain/0.2.0/arm/arm-none-eabi/include/c++/10.3.1/arm-none-eabi/thumb/v7e-m+dp/hard/bits/gthr-default.h **** static inline int
 196:/Library/DaisyToolchain/0.2.0/arm/arm-none-eabi/include/c++/10.3.1/arm-none-eabi/thumb/v7e-m+dp/hard/bits/gthr-default.h **** __gthread_objc_condition_broadcast (objc_condition_t condition _GLIBCXX_UNUSED)
 197:/Library/DaisyToolchain/0.2.0/arm/arm-none-eabi/include/c++/10.3.1/arm-none-eabi/thumb/v7e-m+dp/hard/bits/gthr-default.h **** {
 198:/Library/DaisyToolchain/0.2.0/arm/arm-none-eabi/include/c++/10.3.1/arm-none-eabi/thumb/v7e-m+dp/hard/bits/gthr-default.h ****   return 0;
 199:/Library/DaisyToolchain/0.2.0/arm/arm-none-eabi/include/c++/10.3.1/arm-none-eabi/thumb/v7e-m+dp/hard/bits/gthr-default.h **** }
 200:/Library/DaisyToolchain/0.2.0/arm/arm-none-eabi/include/c++/10.3.1/arm-none-eabi/thumb/v7e-m+dp/hard/bits/gthr-default.h **** 
 201:/Library/DaisyToolchain/0.2.0/arm/arm-none-eabi/include/c++/10.3.1/arm-none-eabi/thumb/v7e-m+dp/hard/bits/gthr-default.h **** /* Wake up one thread waiting on this condition.  */
 202:/Library/DaisyToolchain/0.2.0/arm/arm-none-eabi/include/c++/10.3.1/arm-none-eabi/thumb/v7e-m+dp/hard/bits/gthr-default.h **** static inline int
 203:/Library/DaisyToolchain/0.2.0/arm/arm-none-eabi/include/c++/10.3.1/arm-none-eabi/thumb/v7e-m+dp/hard/bits/gthr-default.h **** __gthread_objc_condition_signal (objc_condition_t condition _GLIBCXX_UNUSED)
 204:/Library/DaisyToolchain/0.2.0/arm/arm-none-eabi/include/c++/10.3.1/arm-none-eabi/thumb/v7e-m+dp/hard/bits/gthr-default.h **** {
 205:/Library/DaisyToolchain/0.2.0/arm/arm-none-eabi/include/c++/10.3.1/arm-none-eabi/thumb/v7e-m+dp/hard/bits/gthr-default.h ****   return 0;
ARM GAS  /var/folders/1_/rgbtf7293t93c5kflb58xcy40000gn/T//cchnO2o5.s 			page 13


 206:/Library/DaisyToolchain/0.2.0/arm/arm-none-eabi/include/c++/10.3.1/arm-none-eabi/thumb/v7e-m+dp/hard/bits/gthr-default.h **** }
 207:/Library/DaisyToolchain/0.2.0/arm/arm-none-eabi/include/c++/10.3.1/arm-none-eabi/thumb/v7e-m+dp/hard/bits/gthr-default.h **** 
 208:/Library/DaisyToolchain/0.2.0/arm/arm-none-eabi/include/c++/10.3.1/arm-none-eabi/thumb/v7e-m+dp/hard/bits/gthr-default.h **** #else /* _LIBOBJC */
 209:/Library/DaisyToolchain/0.2.0/arm/arm-none-eabi/include/c++/10.3.1/arm-none-eabi/thumb/v7e-m+dp/hard/bits/gthr-default.h **** 
 210:/Library/DaisyToolchain/0.2.0/arm/arm-none-eabi/include/c++/10.3.1/arm-none-eabi/thumb/v7e-m+dp/hard/bits/gthr-default.h **** static inline int
 211:/Library/DaisyToolchain/0.2.0/arm/arm-none-eabi/include/c++/10.3.1/arm-none-eabi/thumb/v7e-m+dp/hard/bits/gthr-default.h **** __gthread_active_p (void)
 212:/Library/DaisyToolchain/0.2.0/arm/arm-none-eabi/include/c++/10.3.1/arm-none-eabi/thumb/v7e-m+dp/hard/bits/gthr-default.h **** {
 213:/Library/DaisyToolchain/0.2.0/arm/arm-none-eabi/include/c++/10.3.1/arm-none-eabi/thumb/v7e-m+dp/hard/bits/gthr-default.h ****   return 0;
 214:/Library/DaisyToolchain/0.2.0/arm/arm-none-eabi/include/c++/10.3.1/arm-none-eabi/thumb/v7e-m+dp/hard/bits/gthr-default.h **** }
 215:/Library/DaisyToolchain/0.2.0/arm/arm-none-eabi/include/c++/10.3.1/arm-none-eabi/thumb/v7e-m+dp/hard/bits/gthr-default.h **** 
 216:/Library/DaisyToolchain/0.2.0/arm/arm-none-eabi/include/c++/10.3.1/arm-none-eabi/thumb/v7e-m+dp/hard/bits/gthr-default.h **** static inline int
 217:/Library/DaisyToolchain/0.2.0/arm/arm-none-eabi/include/c++/10.3.1/arm-none-eabi/thumb/v7e-m+dp/hard/bits/gthr-default.h **** __gthread_once (__gthread_once_t *__once _GLIBCXX_UNUSED, void (*__func) (void) _GLIBCXX_UNUSED)
 218:/Library/DaisyToolchain/0.2.0/arm/arm-none-eabi/include/c++/10.3.1/arm-none-eabi/thumb/v7e-m+dp/hard/bits/gthr-default.h **** {
 219:/Library/DaisyToolchain/0.2.0/arm/arm-none-eabi/include/c++/10.3.1/arm-none-eabi/thumb/v7e-m+dp/hard/bits/gthr-default.h ****   return 0;
 220:/Library/DaisyToolchain/0.2.0/arm/arm-none-eabi/include/c++/10.3.1/arm-none-eabi/thumb/v7e-m+dp/hard/bits/gthr-default.h **** }
 221:/Library/DaisyToolchain/0.2.0/arm/arm-none-eabi/include/c++/10.3.1/arm-none-eabi/thumb/v7e-m+dp/hard/bits/gthr-default.h **** 
 222:/Library/DaisyToolchain/0.2.0/arm/arm-none-eabi/include/c++/10.3.1/arm-none-eabi/thumb/v7e-m+dp/hard/bits/gthr-default.h **** static inline int _GLIBCXX_UNUSED
 223:/Library/DaisyToolchain/0.2.0/arm/arm-none-eabi/include/c++/10.3.1/arm-none-eabi/thumb/v7e-m+dp/hard/bits/gthr-default.h **** __gthread_key_create (__gthread_key_t *__key _GLIBCXX_UNUSED, void (*__func) (void *) _GLIBCXX_UNUS
 224:/Library/DaisyToolchain/0.2.0/arm/arm-none-eabi/include/c++/10.3.1/arm-none-eabi/thumb/v7e-m+dp/hard/bits/gthr-default.h **** {
 225:/Library/DaisyToolchain/0.2.0/arm/arm-none-eabi/include/c++/10.3.1/arm-none-eabi/thumb/v7e-m+dp/hard/bits/gthr-default.h ****   return 0;
 226:/Library/DaisyToolchain/0.2.0/arm/arm-none-eabi/include/c++/10.3.1/arm-none-eabi/thumb/v7e-m+dp/hard/bits/gthr-default.h **** }
 227:/Library/DaisyToolchain/0.2.0/arm/arm-none-eabi/include/c++/10.3.1/arm-none-eabi/thumb/v7e-m+dp/hard/bits/gthr-default.h **** 
 228:/Library/DaisyToolchain/0.2.0/arm/arm-none-eabi/include/c++/10.3.1/arm-none-eabi/thumb/v7e-m+dp/hard/bits/gthr-default.h **** static int _GLIBCXX_UNUSED
 229:/Library/DaisyToolchain/0.2.0/arm/arm-none-eabi/include/c++/10.3.1/arm-none-eabi/thumb/v7e-m+dp/hard/bits/gthr-default.h **** __gthread_key_delete (__gthread_key_t __key _GLIBCXX_UNUSED)
 230:/Library/DaisyToolchain/0.2.0/arm/arm-none-eabi/include/c++/10.3.1/arm-none-eabi/thumb/v7e-m+dp/hard/bits/gthr-default.h **** {
 152              		.loc 3 230 1
 153              		.cfi_startproc
 154              		@ args = 0, pretend = 0, frame = 8
 155              		@ frame_needed = 1, uses_anonymous_args = 0
 156              		@ link register save eliminated.
 157 0000 80B4     		push	{r7}
 158              		.cfi_def_cfa_offset 4
 159              		.cfi_offset 7, -4
 160 0002 83B0     		sub	sp, sp, #12
 161              		.cfi_def_cfa_offset 16
 162 0004 00AF     		add	r7, sp, #0
 163              		.cfi_def_cfa_register 7
 164 0006 7860     		str	r0, [r7, #4]
 231:/Library/DaisyToolchain/0.2.0/arm/arm-none-eabi/include/c++/10.3.1/arm-none-eabi/thumb/v7e-m+dp/hard/bits/gthr-default.h ****   return 0;
 165              		.loc 3 231 10
 166 0008 0023     		movs	r3, #0
 232:/Library/DaisyToolchain/0.2.0/arm/arm-none-eabi/include/c++/10.3.1/arm-none-eabi/thumb/v7e-m+dp/hard/bits/gthr-default.h **** }
 167              		.loc 3 232 1
 168 000a 1846     		mov	r0, r3
 169 000c 0C37     		adds	r7, r7, #12
 170              		.cfi_def_cfa_offset 4
 171 000e BD46     		mov	sp, r7
 172              		.cfi_def_cfa_register 13
 173              		@ sp needed
 174 0010 5DF8047B 		ldr	r7, [sp], #4
 175              		.cfi_restore 7
 176              		.cfi_def_cfa_offset 0
 177 0014 7047     		bx	lr
 178              		.cfi_endproc
 179              	.LFE1227:
 181              		.section	.rodata._ZN7daisyspL9kRandFracE,"a"
 182              		.align	2
ARM GAS  /var/folders/1_/rgbtf7293t93c5kflb58xcy40000gn/T//cchnO2o5.s 			page 14


 185              	_ZN7daisyspL9kRandFracE:
 186 0000 00000030 		.word	805306368
 187              		.section	.rodata._ZN7daisyspL11kOneTwelfthE,"a"
 188              		.align	2
 191              	_ZN7daisyspL11kOneTwelfthE:
 192 0000 ABAAAA3D 		.word	1034594987
 193              		.section	.text._ZN7daisysp4fmaxEff,"axG",%progbits,_ZN7daisysp4fmaxEff,comdat
 194              		.align	1
 195              		.weak	_ZN7daisysp4fmaxEff
 196              		.syntax unified
 197              		.thumb
 198              		.thumb_func
 200              	_ZN7daisysp4fmaxEff:
 201              	.LFB2796:
 202              		.file 4 "../DaisyExamples/DaisySP//Source/Utility/dsp.h"
   1:../DaisyExamples/DaisySP//Source/Utility/dsp.h **** /*
   2:../DaisyExamples/DaisySP//Source/Utility/dsp.h **** Copyright (c) 2020 Electrosmith, Corp, Emilie Gillet
   3:../DaisyExamples/DaisySP//Source/Utility/dsp.h **** 
   4:../DaisyExamples/DaisySP//Source/Utility/dsp.h **** Use of this source code is governed by an MIT-style
   5:../DaisyExamples/DaisySP//Source/Utility/dsp.h **** license that can be found in the LICENSE file or at
   6:../DaisyExamples/DaisySP//Source/Utility/dsp.h **** https://opensource.org/licenses/MIT.
   7:../DaisyExamples/DaisySP//Source/Utility/dsp.h **** */
   8:../DaisyExamples/DaisySP//Source/Utility/dsp.h **** 
   9:../DaisyExamples/DaisySP//Source/Utility/dsp.h **** /** Helpful defines, functions, and other utilities for use in/with daisysp modules.
  10:../DaisyExamples/DaisySP//Source/Utility/dsp.h **** */
  11:../DaisyExamples/DaisySP//Source/Utility/dsp.h **** #pragma once
  12:../DaisyExamples/DaisySP//Source/Utility/dsp.h **** #ifndef DSY_CORE_DSP
  13:../DaisyExamples/DaisySP//Source/Utility/dsp.h **** #define DSY_CORE_DSP
  14:../DaisyExamples/DaisySP//Source/Utility/dsp.h **** #include <cassert>
  15:../DaisyExamples/DaisySP//Source/Utility/dsp.h **** #include <cstdint>
  16:../DaisyExamples/DaisySP//Source/Utility/dsp.h **** #include <random>
  17:../DaisyExamples/DaisySP//Source/Utility/dsp.h **** #include <cmath>
  18:../DaisyExamples/DaisySP//Source/Utility/dsp.h **** 
  19:../DaisyExamples/DaisySP//Source/Utility/dsp.h **** /** PIs
  20:../DaisyExamples/DaisySP//Source/Utility/dsp.h **** */
  21:../DaisyExamples/DaisySP//Source/Utility/dsp.h **** #define PI_F 3.1415927410125732421875f
  22:../DaisyExamples/DaisySP//Source/Utility/dsp.h **** #define TWOPI_F (2.0f * PI_F)
  23:../DaisyExamples/DaisySP//Source/Utility/dsp.h **** #define HALFPI_F (PI_F * 0.5f)
  24:../DaisyExamples/DaisySP//Source/Utility/dsp.h **** #define DSY_MIN(in, mn) (in < mn ? in : mn)
  25:../DaisyExamples/DaisySP//Source/Utility/dsp.h **** #define DSY_MAX(in, mx) (in > mx ? in : mx)
  26:../DaisyExamples/DaisySP//Source/Utility/dsp.h **** #define DSY_CLAMP(in, mn, mx) (DSY_MIN(DSY_MAX(in, mn), mx))
  27:../DaisyExamples/DaisySP//Source/Utility/dsp.h **** #define DSY_COUNTOF(_arr) (sizeof(_arr) / sizeof(_arr[0]))
  28:../DaisyExamples/DaisySP//Source/Utility/dsp.h **** 
  29:../DaisyExamples/DaisySP//Source/Utility/dsp.h **** namespace daisysp
  30:../DaisyExamples/DaisySP//Source/Utility/dsp.h **** {
  31:../DaisyExamples/DaisySP//Source/Utility/dsp.h **** //Avoids division for random floats. e.g. rand() * kRandFrac
  32:../DaisyExamples/DaisySP//Source/Utility/dsp.h **** static constexpr float kRandFrac = 1.f / (float)RAND_MAX;
  33:../DaisyExamples/DaisySP//Source/Utility/dsp.h **** 
  34:../DaisyExamples/DaisySP//Source/Utility/dsp.h **** //Convert from semitones to other units. e.g. 2 ^ (kOneTwelfth * x)
  35:../DaisyExamples/DaisySP//Source/Utility/dsp.h **** static constexpr float kOneTwelfth = 1.f / 12.f;
  36:../DaisyExamples/DaisySP//Source/Utility/dsp.h **** 
  37:../DaisyExamples/DaisySP//Source/Utility/dsp.h **** /** efficient floating point min/max
  38:../DaisyExamples/DaisySP//Source/Utility/dsp.h **** c/o stephen mccaul
  39:../DaisyExamples/DaisySP//Source/Utility/dsp.h **** */
  40:../DaisyExamples/DaisySP//Source/Utility/dsp.h **** inline float fmax(float a, float b)
  41:../DaisyExamples/DaisySP//Source/Utility/dsp.h **** {
 203              		.loc 4 41 1
ARM GAS  /var/folders/1_/rgbtf7293t93c5kflb58xcy40000gn/T//cchnO2o5.s 			page 15


 204              		.cfi_startproc
 205              		@ args = 0, pretend = 0, frame = 16
 206              		@ frame_needed = 1, uses_anonymous_args = 0
 207              		@ link register save eliminated.
 208 0000 80B4     		push	{r7}
 209              		.cfi_def_cfa_offset 4
 210              		.cfi_offset 7, -4
 211 0002 85B0     		sub	sp, sp, #20
 212              		.cfi_def_cfa_offset 24
 213 0004 00AF     		add	r7, sp, #0
 214              		.cfi_def_cfa_register 7
 215 0006 87ED010A 		vstr.32	s0, [r7, #4]
 216 000a C7ED000A 		vstr.32	s1, [r7]
  42:../DaisyExamples/DaisySP//Source/Utility/dsp.h ****     float r;
  43:../DaisyExamples/DaisySP//Source/Utility/dsp.h **** #ifdef __arm__
  44:../DaisyExamples/DaisySP//Source/Utility/dsp.h ****     asm("vmaxnm.f32 %[d], %[n], %[m]" : [d] "=t"(r) : [n] "t"(a), [m] "t"(b) :);
 217              		.loc 4 44 5
 218 000e D7ED017A 		vldr.32	s15, [r7, #4]
 219 0012 97ED007A 		vldr.32	s14, [r7]
 220              		.syntax unified
 221              	@ 44 "../DaisyExamples/DaisySP//Source/Utility/dsp.h" 1
 222 0016 C7FE877A 		vmaxnm.f32 s15, s15, s14
 223              	@ 0 "" 2
 224              		.thumb
 225              		.syntax unified
 226 001a C7ED037A 		vstr.32	s15, [r7, #12]
  45:../DaisyExamples/DaisySP//Source/Utility/dsp.h **** #else
  46:../DaisyExamples/DaisySP//Source/Utility/dsp.h ****     r = (a > b) ? a : b;
  47:../DaisyExamples/DaisySP//Source/Utility/dsp.h **** #endif // __arm__
  48:../DaisyExamples/DaisySP//Source/Utility/dsp.h ****     return r;
 227              		.loc 4 48 12
 228 001e FB68     		ldr	r3, [r7, #12]	@ float
 229 0020 07EE903A 		vmov	s15, r3
  49:../DaisyExamples/DaisySP//Source/Utility/dsp.h **** }
 230              		.loc 4 49 1
 231 0024 B0EE670A 		vmov.f32	s0, s15
 232 0028 1437     		adds	r7, r7, #20
 233              		.cfi_def_cfa_offset 4
 234 002a BD46     		mov	sp, r7
 235              		.cfi_def_cfa_register 13
 236              		@ sp needed
 237 002c 5DF8047B 		ldr	r7, [sp], #4
 238              		.cfi_restore 7
 239              		.cfi_def_cfa_offset 0
 240 0030 7047     		bx	lr
 241              		.cfi_endproc
 242              	.LFE2796:
 244              		.section	.text._ZN7daisysp4fminEff,"axG",%progbits,_ZN7daisysp4fminEff,comdat
 245              		.align	1
 246              		.weak	_ZN7daisysp4fminEff
 247              		.syntax unified
 248              		.thumb
 249              		.thumb_func
 251              	_ZN7daisysp4fminEff:
 252              	.LFB2797:
  50:../DaisyExamples/DaisySP//Source/Utility/dsp.h **** 
  51:../DaisyExamples/DaisySP//Source/Utility/dsp.h **** inline float fmin(float a, float b)
ARM GAS  /var/folders/1_/rgbtf7293t93c5kflb58xcy40000gn/T//cchnO2o5.s 			page 16


  52:../DaisyExamples/DaisySP//Source/Utility/dsp.h **** {
 253              		.loc 4 52 1
 254              		.cfi_startproc
 255              		@ args = 0, pretend = 0, frame = 16
 256              		@ frame_needed = 1, uses_anonymous_args = 0
 257              		@ link register save eliminated.
 258 0000 80B4     		push	{r7}
 259              		.cfi_def_cfa_offset 4
 260              		.cfi_offset 7, -4
 261 0002 85B0     		sub	sp, sp, #20
 262              		.cfi_def_cfa_offset 24
 263 0004 00AF     		add	r7, sp, #0
 264              		.cfi_def_cfa_register 7
 265 0006 87ED010A 		vstr.32	s0, [r7, #4]
 266 000a C7ED000A 		vstr.32	s1, [r7]
  53:../DaisyExamples/DaisySP//Source/Utility/dsp.h ****     float r;
  54:../DaisyExamples/DaisySP//Source/Utility/dsp.h **** #ifdef __arm__
  55:../DaisyExamples/DaisySP//Source/Utility/dsp.h ****     asm("vminnm.f32 %[d], %[n], %[m]" : [d] "=t"(r) : [n] "t"(a), [m] "t"(b) :);
 267              		.loc 4 55 5
 268 000e D7ED017A 		vldr.32	s15, [r7, #4]
 269 0012 97ED007A 		vldr.32	s14, [r7]
 270              		.syntax unified
 271              	@ 55 "../DaisyExamples/DaisySP//Source/Utility/dsp.h" 1
 272 0016 C7FEC77A 		vminnm.f32 s15, s15, s14
 273              	@ 0 "" 2
 274              		.thumb
 275              		.syntax unified
 276 001a C7ED037A 		vstr.32	s15, [r7, #12]
  56:../DaisyExamples/DaisySP//Source/Utility/dsp.h **** #else
  57:../DaisyExamples/DaisySP//Source/Utility/dsp.h ****     r = (a < b) ? a : b;
  58:../DaisyExamples/DaisySP//Source/Utility/dsp.h **** #endif // __arm__
  59:../DaisyExamples/DaisySP//Source/Utility/dsp.h ****     return r;
 277              		.loc 4 59 12
 278 001e FB68     		ldr	r3, [r7, #12]	@ float
 279 0020 07EE903A 		vmov	s15, r3
  60:../DaisyExamples/DaisySP//Source/Utility/dsp.h **** }
 280              		.loc 4 60 1
 281 0024 B0EE670A 		vmov.f32	s0, s15
 282 0028 1437     		adds	r7, r7, #20
 283              		.cfi_def_cfa_offset 4
 284 002a BD46     		mov	sp, r7
 285              		.cfi_def_cfa_register 13
 286              		@ sp needed
 287 002c 5DF8047B 		ldr	r7, [sp], #4
 288              		.cfi_restore 7
 289              		.cfi_def_cfa_offset 0
 290 0030 7047     		bx	lr
 291              		.cfi_endproc
 292              	.LFE2797:
 294              		.section	.text._ZN7daisysp6fclampEfff,"axG",%progbits,_ZN7daisysp6fclampEfff,comdat
 295              		.align	1
 296              		.weak	_ZN7daisysp6fclampEfff
 297              		.syntax unified
 298              		.thumb
 299              		.thumb_func
 301              	_ZN7daisysp6fclampEfff:
 302              	.LFB2798:
ARM GAS  /var/folders/1_/rgbtf7293t93c5kflb58xcy40000gn/T//cchnO2o5.s 			page 17


  61:../DaisyExamples/DaisySP//Source/Utility/dsp.h **** 
  62:../DaisyExamples/DaisySP//Source/Utility/dsp.h **** /** quick fp clamp
  63:../DaisyExamples/DaisySP//Source/Utility/dsp.h **** */
  64:../DaisyExamples/DaisySP//Source/Utility/dsp.h **** inline float fclamp(float in, float min, float max)
  65:../DaisyExamples/DaisySP//Source/Utility/dsp.h **** {
 303              		.loc 4 65 1
 304              		.cfi_startproc
 305              		@ args = 0, pretend = 0, frame = 16
 306              		@ frame_needed = 1, uses_anonymous_args = 0
 307 0000 80B5     		push	{r7, lr}
 308              		.cfi_def_cfa_offset 8
 309              		.cfi_offset 7, -8
 310              		.cfi_offset 14, -4
 311 0002 84B0     		sub	sp, sp, #16
 312              		.cfi_def_cfa_offset 24
 313 0004 00AF     		add	r7, sp, #0
 314              		.cfi_def_cfa_register 7
 315 0006 87ED030A 		vstr.32	s0, [r7, #12]
 316 000a C7ED020A 		vstr.32	s1, [r7, #8]
 317 000e 87ED011A 		vstr.32	s2, [r7, #4]
  66:../DaisyExamples/DaisySP//Source/Utility/dsp.h ****     return fmin(fmax(in, min), max);
 318              		.loc 4 66 16
 319 0012 D7ED020A 		vldr.32	s1, [r7, #8]
 320 0016 97ED030A 		vldr.32	s0, [r7, #12]
 321 001a FFF7FEFF 		bl	_ZN7daisysp4fmaxEff
 322 001e F0EE407A 		vmov.f32	s15, s0
 323 0022 D7ED010A 		vldr.32	s1, [r7, #4]
 324 0026 B0EE670A 		vmov.f32	s0, s15
 325 002a FFF7FEFF 		bl	_ZN7daisysp4fminEff
 326 002e F0EE407A 		vmov.f32	s15, s0
  67:../DaisyExamples/DaisySP//Source/Utility/dsp.h **** }
 327              		.loc 4 67 1
 328 0032 B0EE670A 		vmov.f32	s0, s15
 329 0036 1037     		adds	r7, r7, #16
 330              		.cfi_def_cfa_offset 8
 331 0038 BD46     		mov	sp, r7
 332              		.cfi_def_cfa_register 13
 333              		@ sp needed
 334 003a 80BD     		pop	{r7, pc}
 335              		.cfi_endproc
 336              	.LFE2798:
 338              		.section	.text._ZN7daisysp4fmapEfffNS_7MappingE,"axG",%progbits,_ZN7daisysp4fmapEfffNS_7MappingE,c
 339              		.align	1
 340              		.weak	_ZN7daisysp4fmapEfffNS_7MappingE
 341              		.syntax unified
 342              		.thumb
 343              		.thumb_func
 345              	_ZN7daisysp4fmapEfffNS_7MappingE:
 346              	.LFB2807:
  68:../DaisyExamples/DaisySP//Source/Utility/dsp.h **** 
  69:../DaisyExamples/DaisySP//Source/Utility/dsp.h **** /** From Musicdsp.org "Fast power and root estimates for 32bit floats)
  70:../DaisyExamples/DaisySP//Source/Utility/dsp.h **** Original code by Stefan Stenzel
  71:../DaisyExamples/DaisySP//Source/Utility/dsp.h **** These are approximations
  72:../DaisyExamples/DaisySP//Source/Utility/dsp.h **** */
  73:../DaisyExamples/DaisySP//Source/Utility/dsp.h **** inline float fastpower(float f, int n)
  74:../DaisyExamples/DaisySP//Source/Utility/dsp.h **** {
  75:../DaisyExamples/DaisySP//Source/Utility/dsp.h ****     long *lp, l;
ARM GAS  /var/folders/1_/rgbtf7293t93c5kflb58xcy40000gn/T//cchnO2o5.s 			page 18


  76:../DaisyExamples/DaisySP//Source/Utility/dsp.h ****     lp = (long *)(&f);
  77:../DaisyExamples/DaisySP//Source/Utility/dsp.h ****     l  = *lp;
  78:../DaisyExamples/DaisySP//Source/Utility/dsp.h ****     l -= 0x3F800000;
  79:../DaisyExamples/DaisySP//Source/Utility/dsp.h ****     l <<= (n - 1);
  80:../DaisyExamples/DaisySP//Source/Utility/dsp.h ****     l += 0x3F800000;
  81:../DaisyExamples/DaisySP//Source/Utility/dsp.h ****     *lp = l;
  82:../DaisyExamples/DaisySP//Source/Utility/dsp.h ****     return f;
  83:../DaisyExamples/DaisySP//Source/Utility/dsp.h **** }
  84:../DaisyExamples/DaisySP//Source/Utility/dsp.h **** 
  85:../DaisyExamples/DaisySP//Source/Utility/dsp.h **** inline float fastroot(float f, int n)
  86:../DaisyExamples/DaisySP//Source/Utility/dsp.h **** {
  87:../DaisyExamples/DaisySP//Source/Utility/dsp.h ****     long *lp, l;
  88:../DaisyExamples/DaisySP//Source/Utility/dsp.h ****     lp = (long *)(&f);
  89:../DaisyExamples/DaisySP//Source/Utility/dsp.h ****     l  = *lp;
  90:../DaisyExamples/DaisySP//Source/Utility/dsp.h ****     l -= 0x3F800000;
  91:../DaisyExamples/DaisySP//Source/Utility/dsp.h ****     l >>= (n - 1);
  92:../DaisyExamples/DaisySP//Source/Utility/dsp.h ****     l += 0x3F800000;
  93:../DaisyExamples/DaisySP//Source/Utility/dsp.h ****     *lp = l;
  94:../DaisyExamples/DaisySP//Source/Utility/dsp.h ****     return f;
  95:../DaisyExamples/DaisySP//Source/Utility/dsp.h **** }
  96:../DaisyExamples/DaisySP//Source/Utility/dsp.h **** 
  97:../DaisyExamples/DaisySP//Source/Utility/dsp.h **** /** Significantly more efficient than fmodf(x, 1.0f) for calculating
  98:../DaisyExamples/DaisySP//Source/Utility/dsp.h ****  *  the decimal part of a floating point value.
  99:../DaisyExamples/DaisySP//Source/Utility/dsp.h ****  */
 100:../DaisyExamples/DaisySP//Source/Utility/dsp.h **** inline float fastmod1f(float x)
 101:../DaisyExamples/DaisySP//Source/Utility/dsp.h **** {
 102:../DaisyExamples/DaisySP//Source/Utility/dsp.h ****     return x - static_cast<int>(x);
 103:../DaisyExamples/DaisySP//Source/Utility/dsp.h **** }
 104:../DaisyExamples/DaisySP//Source/Utility/dsp.h **** 
 105:../DaisyExamples/DaisySP//Source/Utility/dsp.h **** /** From http://openaudio.blogspot.com/2017/02/faster-log10-and-pow.html
 106:../DaisyExamples/DaisySP//Source/Utility/dsp.h **** No approximation, pow10f(x) gives a 90% speed increase over powf(10.f, x)
 107:../DaisyExamples/DaisySP//Source/Utility/dsp.h **** */
 108:../DaisyExamples/DaisySP//Source/Utility/dsp.h **** inline float pow10f(float f)
 109:../DaisyExamples/DaisySP//Source/Utility/dsp.h **** {
 110:../DaisyExamples/DaisySP//Source/Utility/dsp.h ****     return expf(2.302585092994046f * f);
 111:../DaisyExamples/DaisySP//Source/Utility/dsp.h **** }
 112:../DaisyExamples/DaisySP//Source/Utility/dsp.h **** 
 113:../DaisyExamples/DaisySP//Source/Utility/dsp.h **** /* Original code for fastlog2f by Dr. Paul Beckmann from the ARM community forum, adapted from the 
 114:../DaisyExamples/DaisySP//Source/Utility/dsp.h **** About 25% performance increase over std::log10f
 115:../DaisyExamples/DaisySP//Source/Utility/dsp.h **** */
 116:../DaisyExamples/DaisySP//Source/Utility/dsp.h **** inline float fastlog2f(float f)
 117:../DaisyExamples/DaisySP//Source/Utility/dsp.h **** {
 118:../DaisyExamples/DaisySP//Source/Utility/dsp.h ****     float frac;
 119:../DaisyExamples/DaisySP//Source/Utility/dsp.h ****     int   exp;
 120:../DaisyExamples/DaisySP//Source/Utility/dsp.h ****     frac = frexpf(fabsf(f), &exp);
 121:../DaisyExamples/DaisySP//Source/Utility/dsp.h ****     f    = 1.23149591368684f;
 122:../DaisyExamples/DaisySP//Source/Utility/dsp.h ****     f *= frac;
 123:../DaisyExamples/DaisySP//Source/Utility/dsp.h ****     f += -4.11852516267426f;
 124:../DaisyExamples/DaisySP//Source/Utility/dsp.h ****     f *= frac;
 125:../DaisyExamples/DaisySP//Source/Utility/dsp.h ****     f += 6.02197014179219f;
 126:../DaisyExamples/DaisySP//Source/Utility/dsp.h ****     f *= frac;
 127:../DaisyExamples/DaisySP//Source/Utility/dsp.h ****     f += -3.13396450166353f;
 128:../DaisyExamples/DaisySP//Source/Utility/dsp.h ****     f += exp;
 129:../DaisyExamples/DaisySP//Source/Utility/dsp.h ****     return (f);
 130:../DaisyExamples/DaisySP//Source/Utility/dsp.h **** }
 131:../DaisyExamples/DaisySP//Source/Utility/dsp.h **** 
 132:../DaisyExamples/DaisySP//Source/Utility/dsp.h **** inline float fastlog10f(float f)
ARM GAS  /var/folders/1_/rgbtf7293t93c5kflb58xcy40000gn/T//cchnO2o5.s 			page 19


 133:../DaisyExamples/DaisySP//Source/Utility/dsp.h **** {
 134:../DaisyExamples/DaisySP//Source/Utility/dsp.h ****     return fastlog2f(f) * 0.3010299956639812f;
 135:../DaisyExamples/DaisySP//Source/Utility/dsp.h **** }
 136:../DaisyExamples/DaisySP//Source/Utility/dsp.h **** 
 137:../DaisyExamples/DaisySP//Source/Utility/dsp.h **** /** Midi to frequency helper
 138:../DaisyExamples/DaisySP//Source/Utility/dsp.h **** */
 139:../DaisyExamples/DaisySP//Source/Utility/dsp.h **** inline float mtof(float m)
 140:../DaisyExamples/DaisySP//Source/Utility/dsp.h **** {
 141:../DaisyExamples/DaisySP//Source/Utility/dsp.h ****     return powf(2, (m - 69.0f) / 12.0f) * 440.0f;
 142:../DaisyExamples/DaisySP//Source/Utility/dsp.h **** }
 143:../DaisyExamples/DaisySP//Source/Utility/dsp.h **** 
 144:../DaisyExamples/DaisySP//Source/Utility/dsp.h **** 
 145:../DaisyExamples/DaisySP//Source/Utility/dsp.h **** /** one pole lpf
 146:../DaisyExamples/DaisySP//Source/Utility/dsp.h **** out is passed by reference, and must be retained between
 147:../DaisyExamples/DaisySP//Source/Utility/dsp.h **** calls to properly filter the signal
 148:../DaisyExamples/DaisySP//Source/Utility/dsp.h **** coeff can be calculated:
 149:../DaisyExamples/DaisySP//Source/Utility/dsp.h **** coeff = 1.0 / (time * sample_rate) ; where time is in seconds
 150:../DaisyExamples/DaisySP//Source/Utility/dsp.h **** */
 151:../DaisyExamples/DaisySP//Source/Utility/dsp.h **** inline void fonepole(float &out, float in, float coeff)
 152:../DaisyExamples/DaisySP//Source/Utility/dsp.h **** {
 153:../DaisyExamples/DaisySP//Source/Utility/dsp.h ****     out += coeff * (in - out);
 154:../DaisyExamples/DaisySP//Source/Utility/dsp.h **** }
 155:../DaisyExamples/DaisySP//Source/Utility/dsp.h **** 
 156:../DaisyExamples/DaisySP//Source/Utility/dsp.h **** /** Curves to use with the fmap function */
 157:../DaisyExamples/DaisySP//Source/Utility/dsp.h **** enum class Mapping
 158:../DaisyExamples/DaisySP//Source/Utility/dsp.h **** {
 159:../DaisyExamples/DaisySP//Source/Utility/dsp.h ****     LINEAR,
 160:../DaisyExamples/DaisySP//Source/Utility/dsp.h ****     EXP,
 161:../DaisyExamples/DaisySP//Source/Utility/dsp.h ****     LOG,
 162:../DaisyExamples/DaisySP//Source/Utility/dsp.h **** };
 163:../DaisyExamples/DaisySP//Source/Utility/dsp.h **** 
 164:../DaisyExamples/DaisySP//Source/Utility/dsp.h **** /** Maps a float between a specified range, using a specified curve.
 165:../DaisyExamples/DaisySP//Source/Utility/dsp.h ****  *
 166:../DaisyExamples/DaisySP//Source/Utility/dsp.h ****  *  \param in a value between 0 to 1 that will be mapped to the new range.
 167:../DaisyExamples/DaisySP//Source/Utility/dsp.h ****  *  \param min the new minimum value
 168:../DaisyExamples/DaisySP//Source/Utility/dsp.h ****  *  \param max the new maxmimum value
 169:../DaisyExamples/DaisySP//Source/Utility/dsp.h ****  *  \param curve a Mapping Value to adjust the response curve of the transformation
 170:../DaisyExamples/DaisySP//Source/Utility/dsp.h ****  *               defaults to Linear. @see Mapping
 171:../DaisyExamples/DaisySP//Source/Utility/dsp.h ****  *
 172:../DaisyExamples/DaisySP//Source/Utility/dsp.h ****  *  When using the log curve min and max, must be greater than zero.
 173:../DaisyExamples/DaisySP//Source/Utility/dsp.h ****  *
 174:../DaisyExamples/DaisySP//Source/Utility/dsp.h ****  *  \retval returns the transformed float within the new range.
 175:../DaisyExamples/DaisySP//Source/Utility/dsp.h **** */
 176:../DaisyExamples/DaisySP//Source/Utility/dsp.h **** inline float
 177:../DaisyExamples/DaisySP//Source/Utility/dsp.h **** fmap(float in, float min, float max, Mapping curve = Mapping::LINEAR)
 178:../DaisyExamples/DaisySP//Source/Utility/dsp.h **** {
 347              		.loc 4 178 1
 348              		.cfi_startproc
 349              		@ args = 0, pretend = 0, frame = 24
 350              		@ frame_needed = 1, uses_anonymous_args = 0
 351 0000 80B5     		push	{r7, lr}
 352              		.cfi_def_cfa_offset 8
 353              		.cfi_offset 7, -8
 354              		.cfi_offset 14, -4
 355 0002 86B0     		sub	sp, sp, #24
 356              		.cfi_def_cfa_offset 32
 357 0004 00AF     		add	r7, sp, #0
ARM GAS  /var/folders/1_/rgbtf7293t93c5kflb58xcy40000gn/T//cchnO2o5.s 			page 20


 358              		.cfi_def_cfa_register 7
 359 0006 87ED030A 		vstr.32	s0, [r7, #12]
 360 000a C7ED020A 		vstr.32	s1, [r7, #8]
 361 000e 87ED011A 		vstr.32	s2, [r7, #4]
 362 0012 3860     		str	r0, [r7]
 363              	.LBB2:
 179:../DaisyExamples/DaisySP//Source/Utility/dsp.h ****     switch(curve)
 364              		.loc 4 179 5
 365 0014 3B68     		ldr	r3, [r7]
 366 0016 012B     		cmp	r3, #1
 367 0018 03D0     		beq	.L16
 368 001a 3B68     		ldr	r3, [r7]
 369 001c 022B     		cmp	r3, #2
 370 001e 1BD0     		beq	.L17
 371 0020 49E0     		b	.L20
 372              	.L16:
 373              	.LBB3:
 180:../DaisyExamples/DaisySP//Source/Utility/dsp.h ****     {
 181:../DaisyExamples/DaisySP//Source/Utility/dsp.h ****         case Mapping::EXP:
 182:../DaisyExamples/DaisySP//Source/Utility/dsp.h ****             return fclamp(min + (in * in) * (max - min), min, max);
 374              		.loc 4 182 37
 375 0022 D7ED037A 		vldr.32	s15, [r7, #12]
 376 0026 27EEA77A 		vmul.f32	s14, s15, s15
 377              		.loc 4 182 50
 378 002a D7ED016A 		vldr.32	s13, [r7, #4]
 379 002e D7ED027A 		vldr.32	s15, [r7, #8]
 380 0032 76EEE77A 		vsub.f32	s15, s13, s15
 381              		.loc 4 182 43
 382 0036 27EE277A 		vmul.f32	s14, s14, s15
 383              		.loc 4 182 26
 384 003a D7ED027A 		vldr.32	s15, [r7, #8]
 385 003e 77EE277A 		vadd.f32	s15, s14, s15
 386 0042 97ED011A 		vldr.32	s2, [r7, #4]
 387 0046 D7ED020A 		vldr.32	s1, [r7, #8]
 388 004a B0EE670A 		vmov.f32	s0, s15
 389 004e FFF7FEFF 		bl	_ZN7daisysp6fclampEfff
 390 0052 F0EE407A 		vmov.f32	s15, s0
 391              		.loc 4 182 66
 392 0056 47E0     		b	.L19
 393              	.L17:
 394              	.LBB4:
 183:../DaisyExamples/DaisySP//Source/Utility/dsp.h ****         case Mapping::LOG:
 184:../DaisyExamples/DaisySP//Source/Utility/dsp.h ****         {
 185:../DaisyExamples/DaisySP//Source/Utility/dsp.h ****             const float a = 1.f / log10f(max / min);
 395              		.loc 4 185 41
 396 0058 97ED017A 		vldr.32	s14, [r7, #4]
 397 005c D7ED027A 		vldr.32	s15, [r7, #8]
 398 0060 C7EE276A 		vdiv.f32	s13, s14, s15
 399 0064 B0EE660A 		vmov.f32	s0, s13
 400 0068 FFF7FEFF 		bl	log10f
 401 006c B0EE407A 		vmov.f32	s14, s0
 402              		.loc 4 185 51
 403 0070 F7EE006A 		vmov.f32	s13, #1.0e+0
 404 0074 C6EE877A 		vdiv.f32	s15, s13, s14
 405 0078 C7ED057A 		vstr.32	s15, [r7, #20]
 186:../DaisyExamples/DaisySP//Source/Utility/dsp.h ****             return fclamp(min * powf(10, in / a), min, max);
 406              		.loc 4 186 37
ARM GAS  /var/folders/1_/rgbtf7293t93c5kflb58xcy40000gn/T//cchnO2o5.s 			page 21


 407 007c 97ED037A 		vldr.32	s14, [r7, #12]
 408 0080 D7ED057A 		vldr.32	s15, [r7, #20]
 409 0084 C7EE276A 		vdiv.f32	s13, s14, s15
 410 0088 F0EE660A 		vmov.f32	s1, s13
 411 008c B2EE040A 		vmov.f32	s0, #1.0e+1
 412 0090 FFF7FEFF 		bl	powf
 413 0094 B0EE407A 		vmov.f32	s14, s0
 414              		.loc 4 186 26
 415 0098 D7ED027A 		vldr.32	s15, [r7, #8]
 416 009c 67EE277A 		vmul.f32	s15, s14, s15
 417 00a0 97ED011A 		vldr.32	s2, [r7, #4]
 418 00a4 D7ED020A 		vldr.32	s1, [r7, #8]
 419 00a8 B0EE670A 		vmov.f32	s0, s15
 420 00ac FFF7FEFF 		bl	_ZN7daisysp6fclampEfff
 421 00b0 F0EE407A 		vmov.f32	s15, s0
 422              		.loc 4 186 59
 423 00b4 18E0     		b	.L19
 424              	.L20:
 425              	.LBE4:
 187:../DaisyExamples/DaisySP//Source/Utility/dsp.h ****         }
 188:../DaisyExamples/DaisySP//Source/Utility/dsp.h ****         case Mapping::LINEAR:
 189:../DaisyExamples/DaisySP//Source/Utility/dsp.h ****         default: return fclamp(min + in * (max - min), min, max);
 426              		.loc 4 189 48
 427 00b6 97ED017A 		vldr.32	s14, [r7, #4]
 428 00ba D7ED027A 		vldr.32	s15, [r7, #8]
 429 00be 37EE677A 		vsub.f32	s14, s14, s15
 430              		.loc 4 189 41
 431 00c2 D7ED037A 		vldr.32	s15, [r7, #12]
 432 00c6 27EE277A 		vmul.f32	s14, s14, s15
 433              		.loc 4 189 31
 434 00ca D7ED027A 		vldr.32	s15, [r7, #8]
 435 00ce 77EE277A 		vadd.f32	s15, s14, s15
 436 00d2 97ED011A 		vldr.32	s2, [r7, #4]
 437 00d6 D7ED020A 		vldr.32	s1, [r7, #8]
 438 00da B0EE670A 		vmov.f32	s0, s15
 439 00de FFF7FEFF 		bl	_ZN7daisysp6fclampEfff
 440 00e2 F0EE407A 		vmov.f32	s15, s0
 441              		.loc 4 189 64
 442 00e6 00BF     		nop
 443              	.L19:
 444              	.LBE3:
 445              	.LBE2:
 190:../DaisyExamples/DaisySP//Source/Utility/dsp.h ****     }
 191:../DaisyExamples/DaisySP//Source/Utility/dsp.h **** }
 446              		.loc 4 191 1
 447 00e8 B0EE670A 		vmov.f32	s0, s15
 448 00ec 1837     		adds	r7, r7, #24
 449              		.cfi_def_cfa_offset 8
 450 00ee BD46     		mov	sp, r7
 451              		.cfi_def_cfa_register 13
 452              		@ sp needed
 453 00f0 80BD     		pop	{r7, pc}
 454              		.cfi_endproc
 455              	.LFE2807:
 457              		.section	.text._ZN5daisy3PinC2Ev,"axG",%progbits,_ZN5daisy3PinC5Ev,comdat
 458              		.align	1
 459              		.weak	_ZN5daisy3PinC2Ev
ARM GAS  /var/folders/1_/rgbtf7293t93c5kflb58xcy40000gn/T//cchnO2o5.s 			page 22


 460              		.syntax unified
 461              		.thumb
 462              		.thumb_func
 464              	_ZN5daisy3PinC2Ev:
 465              	.LFB3524:
 466              		.file 5 "../DaisyExamples/libDaisy//src/daisy_core.h"
   1:../DaisyExamples/libDaisy//src/daisy_core.h **** #pragma once
   2:../DaisyExamples/libDaisy//src/daisy_core.h **** #ifndef DSY_CORE_HW_H
   3:../DaisyExamples/libDaisy//src/daisy_core.h **** #define DSY_CORE_HW_H /**< & */
   4:../DaisyExamples/libDaisy//src/daisy_core.h **** #include <stdint.h>
   5:../DaisyExamples/libDaisy//src/daisy_core.h **** #include <stdlib.h>
   6:../DaisyExamples/libDaisy//src/daisy_core.h **** 
   7:../DaisyExamples/libDaisy//src/daisy_core.h **** #if defined(_MSC_VER)
   8:../DaisyExamples/libDaisy//src/daisy_core.h **** #define FORCE_INLINE __forceinline /**< & */
   9:../DaisyExamples/libDaisy//src/daisy_core.h **** #elif defined(__clang__)
  10:../DaisyExamples/libDaisy//src/daisy_core.h **** #define FORCE_INLINE inline __attribute__((always_inline)) /**< & */
  11:../DaisyExamples/libDaisy//src/daisy_core.h **** #pragma clang diagnostic ignored "-Wduplicate-decl-specifier"
  12:../DaisyExamples/libDaisy//src/daisy_core.h **** #elif defined(__GNUC__)
  13:../DaisyExamples/libDaisy//src/daisy_core.h **** #define FORCE_INLINE inline __attribute__((always_inline)) /**< & */
  14:../DaisyExamples/libDaisy//src/daisy_core.h **** #else
  15:../DaisyExamples/libDaisy//src/daisy_core.h **** #error unknown compiler
  16:../DaisyExamples/libDaisy//src/daisy_core.h **** #endif
  17:../DaisyExamples/libDaisy//src/daisy_core.h **** 
  18:../DaisyExamples/libDaisy//src/daisy_core.h **** /** @addtogroup utility
  19:../DaisyExamples/libDaisy//src/daisy_core.h ****     @{
  20:../DaisyExamples/libDaisy//src/daisy_core.h **** */
  21:../DaisyExamples/libDaisy//src/daisy_core.h **** 
  22:../DaisyExamples/libDaisy//src/daisy_core.h **** /** Macro for area of memory that is configured as cacheless
  23:../DaisyExamples/libDaisy//src/daisy_core.h **** This should be used primarily for DMA buffers, and the like.
  24:../DaisyExamples/libDaisy//src/daisy_core.h **** */
  25:../DaisyExamples/libDaisy//src/daisy_core.h **** #define DMA_BUFFER_MEM_SECTION __attribute__((section(".sram1_bss")))
  26:../DaisyExamples/libDaisy//src/daisy_core.h **** /** 
  27:../DaisyExamples/libDaisy//src/daisy_core.h **** THE DTCM RAM section is also non-cached. However, is not suitable 
  28:../DaisyExamples/libDaisy//src/daisy_core.h **** for DMA transfers. Performance is on par with internal SRAM w/ 
  29:../DaisyExamples/libDaisy//src/daisy_core.h **** cache enabled.
  30:../DaisyExamples/libDaisy//src/daisy_core.h **** */
  31:../DaisyExamples/libDaisy//src/daisy_core.h **** #define DTCM_MEM_SECTION __attribute__((section(".dtcmram_bss")))
  32:../DaisyExamples/libDaisy//src/daisy_core.h **** 
  33:../DaisyExamples/libDaisy//src/daisy_core.h **** #define FBIPMAX 0.999985f             /**< close to 1.0f-LSB at 16 bit */
  34:../DaisyExamples/libDaisy//src/daisy_core.h **** #define FBIPMIN (-FBIPMAX)            /**< - (1 - LSB) */
  35:../DaisyExamples/libDaisy//src/daisy_core.h **** #define U82F_SCALE 0.0078740f         /**< 1 / 127 */
  36:../DaisyExamples/libDaisy//src/daisy_core.h **** #define F2U8_SCALE 127.0f             /**< 128 - 1 */
  37:../DaisyExamples/libDaisy//src/daisy_core.h **** #define S82F_SCALE 0.0078125f         /**< 1 / (2**7) */
  38:../DaisyExamples/libDaisy//src/daisy_core.h **** #define F2S8_SCALE 127.0f             /**< (2 ** 7) - 1 */
  39:../DaisyExamples/libDaisy//src/daisy_core.h **** #define S162F_SCALE 3.0517578125e-05f /**< 1 / (2** 15) */
  40:../DaisyExamples/libDaisy//src/daisy_core.h **** #define F2S16_SCALE 32767.0f          /**< (2 ** 15) - 1 */
  41:../DaisyExamples/libDaisy//src/daisy_core.h **** #define F2S24_SCALE 8388608.0f        /**< 2 ** 23 */
  42:../DaisyExamples/libDaisy//src/daisy_core.h **** #define S242F_SCALE 1.192092896e-07f  /**< 1 / (2 ** 23) */
  43:../DaisyExamples/libDaisy//src/daisy_core.h **** #define S24SIGN 0x800000              /**< 2 ** 23 */
  44:../DaisyExamples/libDaisy//src/daisy_core.h **** #define S322F_SCALE 4.6566129e-10f    /**< 1 / (2** 31) */
  45:../DaisyExamples/libDaisy//src/daisy_core.h **** #define F2S32_SCALE 2147483647.f      /**< (2 ** 31) - 1 */
  46:../DaisyExamples/libDaisy//src/daisy_core.h **** 
  47:../DaisyExamples/libDaisy//src/daisy_core.h **** 
  48:../DaisyExamples/libDaisy//src/daisy_core.h **** /** shorthand macro for simplifying the reading of the left 
  49:../DaisyExamples/libDaisy//src/daisy_core.h ****  *  channel of a non-interleaved output buffer named out */
  50:../DaisyExamples/libDaisy//src/daisy_core.h **** #define OUT_L out[0]
  51:../DaisyExamples/libDaisy//src/daisy_core.h **** 
ARM GAS  /var/folders/1_/rgbtf7293t93c5kflb58xcy40000gn/T//cchnO2o5.s 			page 23


  52:../DaisyExamples/libDaisy//src/daisy_core.h **** /** shorthand macro for simplifying the reading of the right 
  53:../DaisyExamples/libDaisy//src/daisy_core.h ****  *  channel of a non-interleaved output buffer named out */
  54:../DaisyExamples/libDaisy//src/daisy_core.h **** #define OUT_R out[1]
  55:../DaisyExamples/libDaisy//src/daisy_core.h **** 
  56:../DaisyExamples/libDaisy//src/daisy_core.h **** /** shorthand macro for simplifying the reading of the left 
  57:../DaisyExamples/libDaisy//src/daisy_core.h ****  *  channel of a non-interleaved input buffer named in */
  58:../DaisyExamples/libDaisy//src/daisy_core.h **** #define IN_L in[0]
  59:../DaisyExamples/libDaisy//src/daisy_core.h **** 
  60:../DaisyExamples/libDaisy//src/daisy_core.h **** /** shorthand macro for simplifying the reading of the right 
  61:../DaisyExamples/libDaisy//src/daisy_core.h ****  *  channel of a non-interleaved input buffer named in */
  62:../DaisyExamples/libDaisy//src/daisy_core.h **** #define IN_R in[1]
  63:../DaisyExamples/libDaisy//src/daisy_core.h **** 
  64:../DaisyExamples/libDaisy//src/daisy_core.h **** /** 
  65:../DaisyExamples/libDaisy//src/daisy_core.h ****     Computes cube.
  66:../DaisyExamples/libDaisy//src/daisy_core.h ****     \param x Number to be cubed
  67:../DaisyExamples/libDaisy//src/daisy_core.h ****     \return x ^ 3
  68:../DaisyExamples/libDaisy//src/daisy_core.h **** */
  69:../DaisyExamples/libDaisy//src/daisy_core.h **** FORCE_INLINE float cube(float x)
  70:../DaisyExamples/libDaisy//src/daisy_core.h **** {
  71:../DaisyExamples/libDaisy//src/daisy_core.h ****     return (x * x) * x;
  72:../DaisyExamples/libDaisy//src/daisy_core.h **** }
  73:../DaisyExamples/libDaisy//src/daisy_core.h **** 
  74:../DaisyExamples/libDaisy//src/daisy_core.h **** /** 
  75:../DaisyExamples/libDaisy//src/daisy_core.h ****     Converts unsigned 8-bit to float
  76:../DaisyExamples/libDaisy//src/daisy_core.h ****     \param x Number to be scaled.
  77:../DaisyExamples/libDaisy//src/daisy_core.h ****     \return Scaled number.
  78:../DaisyExamples/libDaisy//src/daisy_core.h **** */
  79:../DaisyExamples/libDaisy//src/daisy_core.h **** FORCE_INLINE float u82f(uint8_t x)
  80:../DaisyExamples/libDaisy//src/daisy_core.h **** {
  81:../DaisyExamples/libDaisy//src/daisy_core.h ****     return ((float)x - 127.f) * U82F_SCALE;
  82:../DaisyExamples/libDaisy//src/daisy_core.h **** }
  83:../DaisyExamples/libDaisy//src/daisy_core.h **** 
  84:../DaisyExamples/libDaisy//src/daisy_core.h **** /**
  85:../DaisyExamples/libDaisy//src/daisy_core.h ****     Converts float to unsigned 8-bit
  86:../DaisyExamples/libDaisy//src/daisy_core.h **** */
  87:../DaisyExamples/libDaisy//src/daisy_core.h **** FORCE_INLINE uint8_t f2u8(float x)
  88:../DaisyExamples/libDaisy//src/daisy_core.h **** {
  89:../DaisyExamples/libDaisy//src/daisy_core.h ****     x = x <= FBIPMIN ? FBIPMIN : x;
  90:../DaisyExamples/libDaisy//src/daisy_core.h ****     x = x >= FBIPMAX ? FBIPMAX : x;
  91:../DaisyExamples/libDaisy//src/daisy_core.h ****     return (uint8_t)((x * F2U8_SCALE) + F2U8_SCALE);
  92:../DaisyExamples/libDaisy//src/daisy_core.h **** }
  93:../DaisyExamples/libDaisy//src/daisy_core.h **** 
  94:../DaisyExamples/libDaisy//src/daisy_core.h **** 
  95:../DaisyExamples/libDaisy//src/daisy_core.h **** /** 
  96:../DaisyExamples/libDaisy//src/daisy_core.h ****     Converts Signed 8-bit to float
  97:../DaisyExamples/libDaisy//src/daisy_core.h ****     \param x Number to be scaled.
  98:../DaisyExamples/libDaisy//src/daisy_core.h ****     \return Scaled number.
  99:../DaisyExamples/libDaisy//src/daisy_core.h **** */
 100:../DaisyExamples/libDaisy//src/daisy_core.h **** FORCE_INLINE float s82f(int8_t x)
 101:../DaisyExamples/libDaisy//src/daisy_core.h **** {
 102:../DaisyExamples/libDaisy//src/daisy_core.h ****     return (float)x * S82F_SCALE;
 103:../DaisyExamples/libDaisy//src/daisy_core.h **** }
 104:../DaisyExamples/libDaisy//src/daisy_core.h **** 
 105:../DaisyExamples/libDaisy//src/daisy_core.h **** /**
 106:../DaisyExamples/libDaisy//src/daisy_core.h ****     Converts float to Signed 8-bit
 107:../DaisyExamples/libDaisy//src/daisy_core.h **** */
 108:../DaisyExamples/libDaisy//src/daisy_core.h **** FORCE_INLINE int8_t f2s8(float x)
ARM GAS  /var/folders/1_/rgbtf7293t93c5kflb58xcy40000gn/T//cchnO2o5.s 			page 24


 109:../DaisyExamples/libDaisy//src/daisy_core.h **** {
 110:../DaisyExamples/libDaisy//src/daisy_core.h ****     x = x <= FBIPMIN ? FBIPMIN : x;
 111:../DaisyExamples/libDaisy//src/daisy_core.h ****     x = x >= FBIPMAX ? FBIPMAX : x;
 112:../DaisyExamples/libDaisy//src/daisy_core.h ****     return (int32_t)(x * F2S8_SCALE);
 113:../DaisyExamples/libDaisy//src/daisy_core.h **** }
 114:../DaisyExamples/libDaisy//src/daisy_core.h **** 
 115:../DaisyExamples/libDaisy//src/daisy_core.h **** /** 
 116:../DaisyExamples/libDaisy//src/daisy_core.h ****     Converts Signed 16-bit to float
 117:../DaisyExamples/libDaisy//src/daisy_core.h ****     \param x Number to be scaled.
 118:../DaisyExamples/libDaisy//src/daisy_core.h ****     \return Scaled number.
 119:../DaisyExamples/libDaisy//src/daisy_core.h **** */
 120:../DaisyExamples/libDaisy//src/daisy_core.h **** FORCE_INLINE float s162f(int16_t x)
 121:../DaisyExamples/libDaisy//src/daisy_core.h **** {
 122:../DaisyExamples/libDaisy//src/daisy_core.h ****     return (float)x * S162F_SCALE;
 123:../DaisyExamples/libDaisy//src/daisy_core.h **** }
 124:../DaisyExamples/libDaisy//src/daisy_core.h **** 
 125:../DaisyExamples/libDaisy//src/daisy_core.h **** /**
 126:../DaisyExamples/libDaisy//src/daisy_core.h ****     Converts float to Signed 16-bit
 127:../DaisyExamples/libDaisy//src/daisy_core.h **** */
 128:../DaisyExamples/libDaisy//src/daisy_core.h **** FORCE_INLINE int16_t f2s16(float x)
 129:../DaisyExamples/libDaisy//src/daisy_core.h **** {
 130:../DaisyExamples/libDaisy//src/daisy_core.h ****     x = x <= FBIPMIN ? FBIPMIN : x;
 131:../DaisyExamples/libDaisy//src/daisy_core.h ****     x = x >= FBIPMAX ? FBIPMAX : x;
 132:../DaisyExamples/libDaisy//src/daisy_core.h ****     return (int32_t)(x * F2S16_SCALE);
 133:../DaisyExamples/libDaisy//src/daisy_core.h **** }
 134:../DaisyExamples/libDaisy//src/daisy_core.h **** 
 135:../DaisyExamples/libDaisy//src/daisy_core.h **** /**
 136:../DaisyExamples/libDaisy//src/daisy_core.h ****     Converts Signed 24-bit to float
 137:../DaisyExamples/libDaisy//src/daisy_core.h ****  */
 138:../DaisyExamples/libDaisy//src/daisy_core.h **** FORCE_INLINE float s242f(int32_t x)
 139:../DaisyExamples/libDaisy//src/daisy_core.h **** {
 140:../DaisyExamples/libDaisy//src/daisy_core.h ****     x = (x ^ S24SIGN) - S24SIGN; //sign extend aka ((x<<8)>>8)
 141:../DaisyExamples/libDaisy//src/daisy_core.h ****     return (float)x * S242F_SCALE;
 142:../DaisyExamples/libDaisy//src/daisy_core.h **** }
 143:../DaisyExamples/libDaisy//src/daisy_core.h **** /**
 144:../DaisyExamples/libDaisy//src/daisy_core.h ****     Converts float to Signed 24-bit
 145:../DaisyExamples/libDaisy//src/daisy_core.h ****  */
 146:../DaisyExamples/libDaisy//src/daisy_core.h **** FORCE_INLINE int32_t f2s24(float x)
 147:../DaisyExamples/libDaisy//src/daisy_core.h **** {
 148:../DaisyExamples/libDaisy//src/daisy_core.h ****     x = x <= FBIPMIN ? FBIPMIN : x;
 149:../DaisyExamples/libDaisy//src/daisy_core.h ****     x = x >= FBIPMAX ? FBIPMAX : x;
 150:../DaisyExamples/libDaisy//src/daisy_core.h ****     return (int32_t)(x * F2S24_SCALE);
 151:../DaisyExamples/libDaisy//src/daisy_core.h **** }
 152:../DaisyExamples/libDaisy//src/daisy_core.h **** 
 153:../DaisyExamples/libDaisy//src/daisy_core.h **** /**
 154:../DaisyExamples/libDaisy//src/daisy_core.h ****     Converts Signed 32-bit to float
 155:../DaisyExamples/libDaisy//src/daisy_core.h ****  */
 156:../DaisyExamples/libDaisy//src/daisy_core.h **** FORCE_INLINE float s322f(int32_t x)
 157:../DaisyExamples/libDaisy//src/daisy_core.h **** {
 158:../DaisyExamples/libDaisy//src/daisy_core.h ****     return (float)x * S322F_SCALE;
 159:../DaisyExamples/libDaisy//src/daisy_core.h **** }
 160:../DaisyExamples/libDaisy//src/daisy_core.h **** /**
 161:../DaisyExamples/libDaisy//src/daisy_core.h ****     Converts float to Signed 24-bit
 162:../DaisyExamples/libDaisy//src/daisy_core.h ****  */
 163:../DaisyExamples/libDaisy//src/daisy_core.h **** FORCE_INLINE int32_t f2s32(float x)
 164:../DaisyExamples/libDaisy//src/daisy_core.h **** {
 165:../DaisyExamples/libDaisy//src/daisy_core.h ****     x = x <= FBIPMIN ? FBIPMIN : x;
ARM GAS  /var/folders/1_/rgbtf7293t93c5kflb58xcy40000gn/T//cchnO2o5.s 			page 25


 166:../DaisyExamples/libDaisy//src/daisy_core.h ****     x = x >= FBIPMAX ? FBIPMAX : x;
 167:../DaisyExamples/libDaisy//src/daisy_core.h ****     return (int32_t)(x * F2S32_SCALE);
 168:../DaisyExamples/libDaisy//src/daisy_core.h **** }
 169:../DaisyExamples/libDaisy//src/daisy_core.h **** 
 170:../DaisyExamples/libDaisy//src/daisy_core.h **** 
 171:../DaisyExamples/libDaisy//src/daisy_core.h **** /** Enums and a simple struct for defining a hardware pin on the MCU
 172:../DaisyExamples/libDaisy//src/daisy_core.h ****  *  These correlate with the stm32 datasheet, and are used to configure
 173:../DaisyExamples/libDaisy//src/daisy_core.h ****  *  the hardware.
 174:../DaisyExamples/libDaisy//src/daisy_core.h ****  * 
 175:../DaisyExamples/libDaisy//src/daisy_core.h ****  *  This along with the dsy_gpio_pin class should no longer be used.
 176:../DaisyExamples/libDaisy//src/daisy_core.h ****  *  They are available for backwards compatability. 
 177:../DaisyExamples/libDaisy//src/daisy_core.h ****  * 
 178:../DaisyExamples/libDaisy//src/daisy_core.h ****  *  Please use GPIOPort enum and the Pin struct instead.
 179:../DaisyExamples/libDaisy//src/daisy_core.h ****  */
 180:../DaisyExamples/libDaisy//src/daisy_core.h **** typedef enum
 181:../DaisyExamples/libDaisy//src/daisy_core.h **** {
 182:../DaisyExamples/libDaisy//src/daisy_core.h ****     DSY_GPIOA, /**< & */
 183:../DaisyExamples/libDaisy//src/daisy_core.h ****     DSY_GPIOB, /**< & */
 184:../DaisyExamples/libDaisy//src/daisy_core.h ****     DSY_GPIOC, /**< & */
 185:../DaisyExamples/libDaisy//src/daisy_core.h ****     DSY_GPIOD, /**< & */
 186:../DaisyExamples/libDaisy//src/daisy_core.h ****     DSY_GPIOE, /**< & */
 187:../DaisyExamples/libDaisy//src/daisy_core.h ****     DSY_GPIOF, /**< & */
 188:../DaisyExamples/libDaisy//src/daisy_core.h ****     DSY_GPIOG, /**< & */
 189:../DaisyExamples/libDaisy//src/daisy_core.h ****     DSY_GPIOH, /**< & */
 190:../DaisyExamples/libDaisy//src/daisy_core.h ****     DSY_GPIOI, /**< & */
 191:../DaisyExamples/libDaisy//src/daisy_core.h ****     DSY_GPIOJ, /**< & */
 192:../DaisyExamples/libDaisy//src/daisy_core.h ****     DSY_GPIOK, /**< & */
 193:../DaisyExamples/libDaisy//src/daisy_core.h ****     DSY_GPIOX, /** This is a non-existant port for unsupported bits of hardware. */
 194:../DaisyExamples/libDaisy//src/daisy_core.h ****     DSY_GPIO_LAST, /** Final enum member */
 195:../DaisyExamples/libDaisy//src/daisy_core.h **** } dsy_gpio_port;
 196:../DaisyExamples/libDaisy//src/daisy_core.h **** 
 197:../DaisyExamples/libDaisy//src/daisy_core.h **** /** Hardware define pins 
 198:../DaisyExamples/libDaisy//src/daisy_core.h ****  *  
 199:../DaisyExamples/libDaisy//src/daisy_core.h ****  *  The dsy_gpio_pin struct should no longer be used, and is only available for
 200:../DaisyExamples/libDaisy//src/daisy_core.h ****  *  backwards compatability.
 201:../DaisyExamples/libDaisy//src/daisy_core.h ****  * 
 202:../DaisyExamples/libDaisy//src/daisy_core.h ****  *  Please use Pin struct instead.
 203:../DaisyExamples/libDaisy//src/daisy_core.h ****  */
 204:../DaisyExamples/libDaisy//src/daisy_core.h **** typedef struct
 205:../DaisyExamples/libDaisy//src/daisy_core.h **** {
 206:../DaisyExamples/libDaisy//src/daisy_core.h ****     dsy_gpio_port port; /**< & */
 207:../DaisyExamples/libDaisy//src/daisy_core.h ****     uint8_t       pin;  /**< number 0-15 */
 208:../DaisyExamples/libDaisy//src/daisy_core.h **** } dsy_gpio_pin;
 209:../DaisyExamples/libDaisy//src/daisy_core.h **** 
 210:../DaisyExamples/libDaisy//src/daisy_core.h **** /** Helper for creating pins from port/pin combos easily
 211:../DaisyExamples/libDaisy//src/daisy_core.h ****  * 
 212:../DaisyExamples/libDaisy//src/daisy_core.h ****  *  The dsy_gpio_pin struct should no longer be used, and is only available for
 213:../DaisyExamples/libDaisy//src/daisy_core.h ****  *  backwards compatability.
 214:../DaisyExamples/libDaisy//src/daisy_core.h ****  * 
 215:../DaisyExamples/libDaisy//src/daisy_core.h ****  *  Please use Pin struct instead.
 216:../DaisyExamples/libDaisy//src/daisy_core.h **** */
 217:../DaisyExamples/libDaisy//src/daisy_core.h **** FORCE_INLINE dsy_gpio_pin dsy_pin(dsy_gpio_port port, uint8_t pin)
 218:../DaisyExamples/libDaisy//src/daisy_core.h **** {
 219:../DaisyExamples/libDaisy//src/daisy_core.h ****     dsy_gpio_pin p;
 220:../DaisyExamples/libDaisy//src/daisy_core.h ****     p.port = port;
 221:../DaisyExamples/libDaisy//src/daisy_core.h ****     p.pin  = pin;
 222:../DaisyExamples/libDaisy//src/daisy_core.h ****     return p;
ARM GAS  /var/folders/1_/rgbtf7293t93c5kflb58xcy40000gn/T//cchnO2o5.s 			page 26


 223:../DaisyExamples/libDaisy//src/daisy_core.h **** }
 224:../DaisyExamples/libDaisy//src/daisy_core.h **** 
 225:../DaisyExamples/libDaisy//src/daisy_core.h **** /** Helper for testing sameness of two dsy_gpio_pins
 226:../DaisyExamples/libDaisy//src/daisy_core.h ****  *  \return    1 if same, 0 if different
 227:../DaisyExamples/libDaisy//src/daisy_core.h ****  * 
 228:../DaisyExamples/libDaisy//src/daisy_core.h ****  *  The dsy_gpio_pin struct should no longer be used, and is only available for
 229:../DaisyExamples/libDaisy//src/daisy_core.h ****  *  backwards compatability.
 230:../DaisyExamples/libDaisy//src/daisy_core.h ****  * 
 231:../DaisyExamples/libDaisy//src/daisy_core.h ****  *  Please use Pin struct instead.
 232:../DaisyExamples/libDaisy//src/daisy_core.h ****  */
 233:../DaisyExamples/libDaisy//src/daisy_core.h **** FORCE_INLINE uint8_t dsy_pin_cmp(dsy_gpio_pin *a, dsy_gpio_pin *b)
 234:../DaisyExamples/libDaisy//src/daisy_core.h **** {
 235:../DaisyExamples/libDaisy//src/daisy_core.h ****     return ((a->port == b->port) && (a->pin == b->pin));
 236:../DaisyExamples/libDaisy//src/daisy_core.h **** }
 237:../DaisyExamples/libDaisy//src/daisy_core.h **** 
 238:../DaisyExamples/libDaisy//src/daisy_core.h **** #ifdef __cplusplus
 239:../DaisyExamples/libDaisy//src/daisy_core.h **** 
 240:../DaisyExamples/libDaisy//src/daisy_core.h **** namespace daisy
 241:../DaisyExamples/libDaisy//src/daisy_core.h **** {
 242:../DaisyExamples/libDaisy//src/daisy_core.h **** /** @brief GPIO Port names */
 243:../DaisyExamples/libDaisy//src/daisy_core.h **** enum GPIOPort
 244:../DaisyExamples/libDaisy//src/daisy_core.h **** {
 245:../DaisyExamples/libDaisy//src/daisy_core.h ****     PORTA, /**< Port A */
 246:../DaisyExamples/libDaisy//src/daisy_core.h ****     PORTB, /**< Port B */
 247:../DaisyExamples/libDaisy//src/daisy_core.h ****     PORTC, /**< Port C */
 248:../DaisyExamples/libDaisy//src/daisy_core.h ****     PORTD, /**< Port D */
 249:../DaisyExamples/libDaisy//src/daisy_core.h ****     PORTE, /**< Port E */
 250:../DaisyExamples/libDaisy//src/daisy_core.h ****     PORTF, /**< Port F */
 251:../DaisyExamples/libDaisy//src/daisy_core.h ****     PORTG, /**< Port G */
 252:../DaisyExamples/libDaisy//src/daisy_core.h ****     PORTH, /**< Port H */
 253:../DaisyExamples/libDaisy//src/daisy_core.h ****     PORTI, /**< Port I */
 254:../DaisyExamples/libDaisy//src/daisy_core.h ****     PORTJ, /**< Port J */
 255:../DaisyExamples/libDaisy//src/daisy_core.h ****     PORTK, /**< Port K */
 256:../DaisyExamples/libDaisy//src/daisy_core.h ****     PORTX, /**< Used as a dummy port to signal an invalid pin. */
 257:../DaisyExamples/libDaisy//src/daisy_core.h **** };
 258:../DaisyExamples/libDaisy//src/daisy_core.h **** 
 259:../DaisyExamples/libDaisy//src/daisy_core.h **** /** @brief representation of hardware port/pin combination */
 260:../DaisyExamples/libDaisy//src/daisy_core.h **** struct Pin
 261:../DaisyExamples/libDaisy//src/daisy_core.h **** {
 262:../DaisyExamples/libDaisy//src/daisy_core.h ****     GPIOPort port;
 263:../DaisyExamples/libDaisy//src/daisy_core.h ****     uint8_t  pin;
 264:../DaisyExamples/libDaisy//src/daisy_core.h **** 
 265:../DaisyExamples/libDaisy//src/daisy_core.h ****     /** @brief Constructor creates a valid pin. 
 266:../DaisyExamples/libDaisy//src/daisy_core.h ****      *  @param pt GPIOPort between PA, and PK corresponding to STM32 Port.
 267:../DaisyExamples/libDaisy//src/daisy_core.h ****      *  @param pn pin number in range of 0-15
 268:../DaisyExamples/libDaisy//src/daisy_core.h ****     */
 269:../DaisyExamples/libDaisy//src/daisy_core.h ****     constexpr Pin(const GPIOPort pt, const uint8_t pn) : port(pt), pin(pn) {}
 270:../DaisyExamples/libDaisy//src/daisy_core.h **** 
 271:../DaisyExamples/libDaisy//src/daisy_core.h ****     /** @brief Basic Constructor creates an invalid Pin object */
 272:../DaisyExamples/libDaisy//src/daisy_core.h ****     constexpr Pin() : port(PORTX), pin(255) {}
 467              		.loc 5 272 15
 468              		.cfi_startproc
 469              		@ args = 0, pretend = 0, frame = 8
 470              		@ frame_needed = 1, uses_anonymous_args = 0
 471              		@ link register save eliminated.
 472 0000 80B4     		push	{r7}
 473              		.cfi_def_cfa_offset 4
ARM GAS  /var/folders/1_/rgbtf7293t93c5kflb58xcy40000gn/T//cchnO2o5.s 			page 27


 474              		.cfi_offset 7, -4
 475 0002 83B0     		sub	sp, sp, #12
 476              		.cfi_def_cfa_offset 16
 477 0004 00AF     		add	r7, sp, #0
 478              		.cfi_def_cfa_register 7
 479 0006 7860     		str	r0, [r7, #4]
 480              	.LBB5:
 481              		.loc 5 272 43
 482 0008 7B68     		ldr	r3, [r7, #4]
 483 000a 0B22     		movs	r2, #11
 484 000c 1A70     		strb	r2, [r3]
 485 000e 7B68     		ldr	r3, [r7, #4]
 486 0010 FF22     		movs	r2, #255
 487 0012 5A70     		strb	r2, [r3, #1]
 488              	.LBE5:
 489              		.loc 5 272 46
 490 0014 7B68     		ldr	r3, [r7, #4]
 491 0016 1846     		mov	r0, r3
 492 0018 0C37     		adds	r7, r7, #12
 493              		.cfi_def_cfa_offset 4
 494 001a BD46     		mov	sp, r7
 495              		.cfi_def_cfa_register 13
 496              		@ sp needed
 497 001c 5DF8047B 		ldr	r7, [sp], #4
 498              		.cfi_restore 7
 499              		.cfi_def_cfa_offset 0
 500 0020 7047     		bx	lr
 501              		.cfi_endproc
 502              	.LFE3524:
 504              		.weak	_ZN5daisy3PinC1Ev
 505              		.thumb_set _ZN5daisy3PinC1Ev,_ZN5daisy3PinC2Ev
 506              		.section	.text._ZN5daisy6SystemC2Ev,"axG",%progbits,_ZN5daisy6SystemC5Ev,comdat
 507              		.align	1
 508              		.weak	_ZN5daisy6SystemC2Ev
 509              		.syntax unified
 510              		.thumb
 511              		.thumb_func
 513              	_ZN5daisy6SystemC2Ev:
 514              	.LFB3542:
 515              		.file 6 "../DaisyExamples/libDaisy//src/sys/system.h"
   1:../DaisyExamples/libDaisy//src/sys/system.h **** #ifndef DSY_SYSTEM_H
   2:../DaisyExamples/libDaisy//src/sys/system.h **** #define DSY_SYSTEM_H
   3:../DaisyExamples/libDaisy//src/sys/system.h **** 
   4:../DaisyExamples/libDaisy//src/sys/system.h **** #ifndef UNIT_TEST // for unit tests, a dummy implementation is provided below
   5:../DaisyExamples/libDaisy//src/sys/system.h **** 
   6:../DaisyExamples/libDaisy//src/sys/system.h **** #include <cstdint>
   7:../DaisyExamples/libDaisy//src/sys/system.h **** #include "per/tim.h"
   8:../DaisyExamples/libDaisy//src/sys/system.h **** 
   9:../DaisyExamples/libDaisy//src/sys/system.h **** namespace daisy
  10:../DaisyExamples/libDaisy//src/sys/system.h **** {
  11:../DaisyExamples/libDaisy//src/sys/system.h **** /** A handle for interacting with the Core System.
  12:../DaisyExamples/libDaisy//src/sys/system.h ****  ** This includes the Clock tree, MPU, global DMA initialization,
  13:../DaisyExamples/libDaisy//src/sys/system.h ****  ** cache handling, and any other necessary global initiailzation
  14:../DaisyExamples/libDaisy//src/sys/system.h ****  **
  15:../DaisyExamples/libDaisy//src/sys/system.h ****  ** @author shensley
  16:../DaisyExamples/libDaisy//src/sys/system.h ****  ** @ingroup system
  17:../DaisyExamples/libDaisy//src/sys/system.h ****  */
ARM GAS  /var/folders/1_/rgbtf7293t93c5kflb58xcy40000gn/T//cchnO2o5.s 			page 28


  18:../DaisyExamples/libDaisy//src/sys/system.h **** class System
  19:../DaisyExamples/libDaisy//src/sys/system.h **** {
  20:../DaisyExamples/libDaisy//src/sys/system.h ****   public:
  21:../DaisyExamples/libDaisy//src/sys/system.h ****     /** Contains settings for initializing the System */
  22:../DaisyExamples/libDaisy//src/sys/system.h ****     struct Config
  23:../DaisyExamples/libDaisy//src/sys/system.h ****     {
  24:../DaisyExamples/libDaisy//src/sys/system.h ****         /** Specifies the system clock frequency that feeds APB/AHB clocks, etc. */
  25:../DaisyExamples/libDaisy//src/sys/system.h ****         enum class SysClkFreq
  26:../DaisyExamples/libDaisy//src/sys/system.h ****         {
  27:../DaisyExamples/libDaisy//src/sys/system.h ****             FREQ_400MHZ,
  28:../DaisyExamples/libDaisy//src/sys/system.h ****             FREQ_480MHZ,
  29:../DaisyExamples/libDaisy//src/sys/system.h ****         };
  30:../DaisyExamples/libDaisy//src/sys/system.h **** 
  31:../DaisyExamples/libDaisy//src/sys/system.h ****         /** Method to call on the struct to set to defaults
  32:../DaisyExamples/libDaisy//src/sys/system.h ****          ** CPU Freq set to 400MHz
  33:../DaisyExamples/libDaisy//src/sys/system.h ****          ** Cache Enabled
  34:../DaisyExamples/libDaisy//src/sys/system.h ****          ** */
  35:../DaisyExamples/libDaisy//src/sys/system.h ****         void Defaults()
  36:../DaisyExamples/libDaisy//src/sys/system.h ****         {
  37:../DaisyExamples/libDaisy//src/sys/system.h ****             cpu_freq    = SysClkFreq::FREQ_400MHZ;
  38:../DaisyExamples/libDaisy//src/sys/system.h ****             use_dcache  = true;
  39:../DaisyExamples/libDaisy//src/sys/system.h ****             use_icache  = true;
  40:../DaisyExamples/libDaisy//src/sys/system.h ****             skip_clocks = false;
  41:../DaisyExamples/libDaisy//src/sys/system.h ****         }
  42:../DaisyExamples/libDaisy//src/sys/system.h **** 
  43:../DaisyExamples/libDaisy//src/sys/system.h ****         /** Method to call on the struct to set to boost mode:
  44:../DaisyExamples/libDaisy//src/sys/system.h ****          ** CPU Freq set to 480MHz
  45:../DaisyExamples/libDaisy//src/sys/system.h ****          ** Cache Enabled
  46:../DaisyExamples/libDaisy//src/sys/system.h ****          ** */
  47:../DaisyExamples/libDaisy//src/sys/system.h ****         void Boost()
  48:../DaisyExamples/libDaisy//src/sys/system.h ****         {
  49:../DaisyExamples/libDaisy//src/sys/system.h ****             cpu_freq    = SysClkFreq::FREQ_480MHZ;
  50:../DaisyExamples/libDaisy//src/sys/system.h ****             use_dcache  = true;
  51:../DaisyExamples/libDaisy//src/sys/system.h ****             use_icache  = true;
  52:../DaisyExamples/libDaisy//src/sys/system.h ****             skip_clocks = false;
  53:../DaisyExamples/libDaisy//src/sys/system.h ****         }
  54:../DaisyExamples/libDaisy//src/sys/system.h **** 
  55:../DaisyExamples/libDaisy//src/sys/system.h ****         SysClkFreq cpu_freq;
  56:../DaisyExamples/libDaisy//src/sys/system.h ****         bool       use_dcache;
  57:../DaisyExamples/libDaisy//src/sys/system.h ****         bool       use_icache;
  58:../DaisyExamples/libDaisy//src/sys/system.h ****         bool       skip_clocks;
  59:../DaisyExamples/libDaisy//src/sys/system.h ****     };
  60:../DaisyExamples/libDaisy//src/sys/system.h **** 
  61:../DaisyExamples/libDaisy//src/sys/system.h ****     /** Describes the different regions of memory available to the Daisy */
  62:../DaisyExamples/libDaisy//src/sys/system.h ****     enum MemoryRegion
  63:../DaisyExamples/libDaisy//src/sys/system.h ****     {
  64:../DaisyExamples/libDaisy//src/sys/system.h ****         INTERNAL_FLASH = 0,
  65:../DaisyExamples/libDaisy//src/sys/system.h ****         ITCMRAM,
  66:../DaisyExamples/libDaisy//src/sys/system.h ****         DTCMRAM,
  67:../DaisyExamples/libDaisy//src/sys/system.h ****         SRAM_D1,
  68:../DaisyExamples/libDaisy//src/sys/system.h ****         SRAM_D2,
  69:../DaisyExamples/libDaisy//src/sys/system.h ****         SRAM_D3,
  70:../DaisyExamples/libDaisy//src/sys/system.h ****         SDRAM,
  71:../DaisyExamples/libDaisy//src/sys/system.h ****         QSPI,
  72:../DaisyExamples/libDaisy//src/sys/system.h ****         INVALID_ADDRESS,
  73:../DaisyExamples/libDaisy//src/sys/system.h ****     };
  74:../DaisyExamples/libDaisy//src/sys/system.h **** 
ARM GAS  /var/folders/1_/rgbtf7293t93c5kflb58xcy40000gn/T//cchnO2o5.s 			page 29


  75:../DaisyExamples/libDaisy//src/sys/system.h ****     /** Bootloader struct for controlling bootloading parameters */
  76:../DaisyExamples/libDaisy//src/sys/system.h ****     struct BootInfo
  77:../DaisyExamples/libDaisy//src/sys/system.h ****     {
  78:../DaisyExamples/libDaisy//src/sys/system.h ****         enum class Type : uint32_t
  79:../DaisyExamples/libDaisy//src/sys/system.h ****         {
  80:../DaisyExamples/libDaisy//src/sys/system.h ****             INVALID      = 0x00000000,
  81:../DaisyExamples/libDaisy//src/sys/system.h ****             JUMP         = 0xDEADBEEF,
  82:../DaisyExamples/libDaisy//src/sys/system.h ****             SKIP_TIMEOUT = 0x5AFEB007,
  83:../DaisyExamples/libDaisy//src/sys/system.h ****             INF_TIMEOUT  = 0xB0074EFA,
  84:../DaisyExamples/libDaisy//src/sys/system.h ****         } status;
  85:../DaisyExamples/libDaisy//src/sys/system.h ****         uint32_t data;
  86:../DaisyExamples/libDaisy//src/sys/system.h ****         enum class Version : uint32_t
  87:../DaisyExamples/libDaisy//src/sys/system.h ****         {
  88:../DaisyExamples/libDaisy//src/sys/system.h ****             LT_v6_0 = 0, // Less than v6.0
  89:../DaisyExamples/libDaisy//src/sys/system.h ****             NONE,        // No bootloader present
  90:../DaisyExamples/libDaisy//src/sys/system.h ****             v6_0,        // v6.0
  91:../DaisyExamples/libDaisy//src/sys/system.h ****             v6_1,        // v6.1 or greater
  92:../DaisyExamples/libDaisy//src/sys/system.h ****             LAST
  93:../DaisyExamples/libDaisy//src/sys/system.h ****         } version;
  94:../DaisyExamples/libDaisy//src/sys/system.h ****     };
  95:../DaisyExamples/libDaisy//src/sys/system.h **** 
  96:../DaisyExamples/libDaisy//src/sys/system.h ****     System() {}
 516              		.loc 6 96 5
 517              		.cfi_startproc
 518              		@ args = 0, pretend = 0, frame = 8
 519              		@ frame_needed = 1, uses_anonymous_args = 0
 520              		@ link register save eliminated.
 521 0000 80B4     		push	{r7}
 522              		.cfi_def_cfa_offset 4
 523              		.cfi_offset 7, -4
 524 0002 83B0     		sub	sp, sp, #12
 525              		.cfi_def_cfa_offset 16
 526 0004 00AF     		add	r7, sp, #0
 527              		.cfi_def_cfa_register 7
 528 0006 7860     		str	r0, [r7, #4]
 529              		.loc 6 96 15
 530 0008 7B68     		ldr	r3, [r7, #4]
 531 000a 1846     		mov	r0, r3
 532 000c 0C37     		adds	r7, r7, #12
 533              		.cfi_def_cfa_offset 4
 534 000e BD46     		mov	sp, r7
 535              		.cfi_def_cfa_register 13
 536              		@ sp needed
 537 0010 5DF8047B 		ldr	r7, [sp], #4
 538              		.cfi_restore 7
 539              		.cfi_def_cfa_offset 0
 540 0014 7047     		bx	lr
 541              		.cfi_endproc
 542              	.LFE3542:
 544              		.weak	_ZN5daisy6SystemC1Ev
 545              		.thumb_set _ZN5daisy6SystemC1Ev,_ZN5daisy6SystemC2Ev
 546              		.section	.text._ZN5daisy6SystemD2Ev,"axG",%progbits,_ZN5daisy6SystemD5Ev,comdat
 547              		.align	1
 548              		.weak	_ZN5daisy6SystemD2Ev
 549              		.syntax unified
 550              		.thumb
 551              		.thumb_func
ARM GAS  /var/folders/1_/rgbtf7293t93c5kflb58xcy40000gn/T//cchnO2o5.s 			page 30


 553              	_ZN5daisy6SystemD2Ev:
 554              	.LFB3545:
  97:../DaisyExamples/libDaisy//src/sys/system.h ****     ~System() {}
 555              		.loc 6 97 5
 556              		.cfi_startproc
 557              		@ args = 0, pretend = 0, frame = 8
 558              		@ frame_needed = 1, uses_anonymous_args = 0
 559              		@ link register save eliminated.
 560 0000 80B4     		push	{r7}
 561              		.cfi_def_cfa_offset 4
 562              		.cfi_offset 7, -4
 563 0002 83B0     		sub	sp, sp, #12
 564              		.cfi_def_cfa_offset 16
 565 0004 00AF     		add	r7, sp, #0
 566              		.cfi_def_cfa_register 7
 567 0006 7860     		str	r0, [r7, #4]
 568              		.loc 6 97 16
 569 0008 7B68     		ldr	r3, [r7, #4]
 570 000a 1846     		mov	r0, r3
 571 000c 0C37     		adds	r7, r7, #12
 572              		.cfi_def_cfa_offset 4
 573 000e BD46     		mov	sp, r7
 574              		.cfi_def_cfa_register 13
 575              		@ sp needed
 576 0010 5DF8047B 		ldr	r7, [sp], #4
 577              		.cfi_restore 7
 578              		.cfi_def_cfa_offset 0
 579 0014 7047     		bx	lr
 580              		.cfi_endproc
 581              	.LFE3545:
 583              		.weak	_ZN5daisy6SystemD1Ev
 584              		.thumb_set _ZN5daisy6SystemD1Ev,_ZN5daisy6SystemD2Ev
 585              		.section	.text._ZN5daisy10QSPIHandleC2Ev,"axG",%progbits,_ZN5daisy10QSPIHandleC5Ev,comdat
 586              		.align	1
 587              		.weak	_ZN5daisy10QSPIHandleC2Ev
 588              		.syntax unified
 589              		.thumb
 590              		.thumb_func
 592              	_ZN5daisy10QSPIHandleC2Ev:
 593              	.LFB3549:
 594              		.file 7 "../DaisyExamples/libDaisy//src/per/qspi.h"
   1:../DaisyExamples/libDaisy//src/per/qspi.h **** #ifndef DSY_QSPI
   2:../DaisyExamples/libDaisy//src/per/qspi.h **** #define DSY_QSPI /**< Macro */
   3:../DaisyExamples/libDaisy//src/per/qspi.h **** 
   4:../DaisyExamples/libDaisy//src/per/qspi.h **** #ifndef UNIT_TEST // for unit tests, a dummy implementation
   5:../DaisyExamples/libDaisy//src/per/qspi.h **** 
   6:../DaisyExamples/libDaisy//src/per/qspi.h **** #include <cstdint>
   7:../DaisyExamples/libDaisy//src/per/qspi.h **** #include "daisy_core.h" // Added for dsy_gpio_pin typedef
   8:../DaisyExamples/libDaisy//src/per/qspi.h **** 
   9:../DaisyExamples/libDaisy//src/per/qspi.h **** #define DSY_QSPI_TEXT       \
  10:../DaisyExamples/libDaisy//src/per/qspi.h ****     __attribute__((section( \
  11:../DaisyExamples/libDaisy//src/per/qspi.h ****         ".qspiflash_text"))) /**< used for reading memory in memory_mapped mode. */
  12:../DaisyExamples/libDaisy//src/per/qspi.h **** #define DSY_QSPI_DATA       \
  13:../DaisyExamples/libDaisy//src/per/qspi.h ****     __attribute__((section( \
  14:../DaisyExamples/libDaisy//src/per/qspi.h ****         ".qspiflash_data"))) /**< used for reading memory in memory_mapped mode. */
  15:../DaisyExamples/libDaisy//src/per/qspi.h **** #define DSY_QSPI_BSS        \
  16:../DaisyExamples/libDaisy//src/per/qspi.h ****     __attribute__((section( \
ARM GAS  /var/folders/1_/rgbtf7293t93c5kflb58xcy40000gn/T//cchnO2o5.s 			page 31


  17:../DaisyExamples/libDaisy//src/per/qspi.h ****         ".qspiflash_bss"))) /**< used for reading memory in memory_mapped mode. */
  18:../DaisyExamples/libDaisy//src/per/qspi.h **** 
  19:../DaisyExamples/libDaisy//src/per/qspi.h **** namespace daisy
  20:../DaisyExamples/libDaisy//src/per/qspi.h **** {
  21:../DaisyExamples/libDaisy//src/per/qspi.h **** /** @addtogroup serial
  22:../DaisyExamples/libDaisy//src/per/qspi.h **** @{
  23:../DaisyExamples/libDaisy//src/per/qspi.h **** */
  24:../DaisyExamples/libDaisy//src/per/qspi.h **** 
  25:../DaisyExamples/libDaisy//src/per/qspi.h **** /** 
  26:../DaisyExamples/libDaisy//src/per/qspi.h ****  Driver for QSPI peripheral to interface with external flash memory. \n 
  27:../DaisyExamples/libDaisy//src/per/qspi.h ****     Currently supported QSPI Devices: \n 
  28:../DaisyExamples/libDaisy//src/per/qspi.h ****     * IS25LP080D
  29:../DaisyExamples/libDaisy//src/per/qspi.h **** */
  30:../DaisyExamples/libDaisy//src/per/qspi.h **** class QSPIHandle
  31:../DaisyExamples/libDaisy//src/per/qspi.h **** {
  32:../DaisyExamples/libDaisy//src/per/qspi.h ****   public:
  33:../DaisyExamples/libDaisy//src/per/qspi.h ****     enum Result
  34:../DaisyExamples/libDaisy//src/per/qspi.h ****     {
  35:../DaisyExamples/libDaisy//src/per/qspi.h ****         OK = 0,
  36:../DaisyExamples/libDaisy//src/per/qspi.h ****         ERR
  37:../DaisyExamples/libDaisy//src/per/qspi.h ****     };
  38:../DaisyExamples/libDaisy//src/per/qspi.h **** 
  39:../DaisyExamples/libDaisy//src/per/qspi.h ****     /** Indicates the current status of the module. 
  40:../DaisyExamples/libDaisy//src/per/qspi.h ****          *  Warnings are indicated by a leading W.
  41:../DaisyExamples/libDaisy//src/per/qspi.h ****          *  Errors are indicated by a leading E and cause an immediate exit.
  42:../DaisyExamples/libDaisy//src/per/qspi.h ****          * 
  43:../DaisyExamples/libDaisy//src/per/qspi.h ****          *  \param GOOD - No errors have been reported.
  44:../DaisyExamples/libDaisy//src/per/qspi.h ****          *  \param E_HAL_ERROR - HAL code did not return HAL_OK.
  45:../DaisyExamples/libDaisy//src/per/qspi.h ****          *  \param E_SWITCHING_MODES - An error was encountered while switching QSPI peripheral mod
  46:../DaisyExamples/libDaisy//src/per/qspi.h ****          *  \param E_INVALID_MODE - QSPI should not be written to while the program is executing fr
  47:../DaisyExamples/libDaisy//src/per/qspi.h ****          */
  48:../DaisyExamples/libDaisy//src/per/qspi.h ****     enum Status
  49:../DaisyExamples/libDaisy//src/per/qspi.h ****     {
  50:../DaisyExamples/libDaisy//src/per/qspi.h ****         GOOD = 0,
  51:../DaisyExamples/libDaisy//src/per/qspi.h ****         E_HAL_ERROR,
  52:../DaisyExamples/libDaisy//src/per/qspi.h ****         E_SWITCHING_MODES,
  53:../DaisyExamples/libDaisy//src/per/qspi.h ****         E_INVALID_MODE,
  54:../DaisyExamples/libDaisy//src/per/qspi.h ****     };
  55:../DaisyExamples/libDaisy//src/per/qspi.h **** 
  56:../DaisyExamples/libDaisy//src/per/qspi.h ****     /** Configuration structure for interfacing with QSPI Driver */
  57:../DaisyExamples/libDaisy//src/per/qspi.h ****     struct Config
  58:../DaisyExamples/libDaisy//src/per/qspi.h ****     {
  59:../DaisyExamples/libDaisy//src/per/qspi.h ****         /** Flash Devices supported. (Both of these are more-or-less the same, just different sizes
  60:../DaisyExamples/libDaisy//src/per/qspi.h ****         enum Device
  61:../DaisyExamples/libDaisy//src/per/qspi.h ****         {
  62:../DaisyExamples/libDaisy//src/per/qspi.h ****             IS25LP080D,  /**< & */
  63:../DaisyExamples/libDaisy//src/per/qspi.h ****             IS25LP064A,  /**< & */
  64:../DaisyExamples/libDaisy//src/per/qspi.h ****             DEVICE_LAST, /**< & */
  65:../DaisyExamples/libDaisy//src/per/qspi.h ****         };
  66:../DaisyExamples/libDaisy//src/per/qspi.h **** 
  67:../DaisyExamples/libDaisy//src/per/qspi.h ****         /** 
  68:../DaisyExamples/libDaisy//src/per/qspi.h ****         Modes of operation.
  69:../DaisyExamples/libDaisy//src/per/qspi.h ****         Memory Mapped mode: QSPI configured so that the QSPI can be
  70:../DaisyExamples/libDaisy//src/per/qspi.h ****         read from starting address 0x90000000. Writing is not
  71:../DaisyExamples/libDaisy//src/per/qspi.h ****         possible in this mode. \n 
  72:../DaisyExamples/libDaisy//src/per/qspi.h ****         Indirect Polling mode: Device driver enabled. 
  73:../DaisyExamples/libDaisy//src/per/qspi.h ****         */
ARM GAS  /var/folders/1_/rgbtf7293t93c5kflb58xcy40000gn/T//cchnO2o5.s 			page 32


  74:../DaisyExamples/libDaisy//src/per/qspi.h ****         enum Mode
  75:../DaisyExamples/libDaisy//src/per/qspi.h ****         {
  76:../DaisyExamples/libDaisy//src/per/qspi.h ****             MEMORY_MAPPED,    /**< & */
  77:../DaisyExamples/libDaisy//src/per/qspi.h ****             INDIRECT_POLLING, /**< & */
  78:../DaisyExamples/libDaisy//src/per/qspi.h ****             MODE_LAST,
  79:../DaisyExamples/libDaisy//src/per/qspi.h ****         };
  80:../DaisyExamples/libDaisy//src/per/qspi.h **** 
  81:../DaisyExamples/libDaisy//src/per/qspi.h ****         //SCK,  CE# (active low)
  82:../DaisyExamples/libDaisy//src/per/qspi.h ****         struct
  83:../DaisyExamples/libDaisy//src/per/qspi.h ****         {
  84:../DaisyExamples/libDaisy//src/per/qspi.h ****             dsy_gpio_pin io0; /**< & */
  85:../DaisyExamples/libDaisy//src/per/qspi.h ****             dsy_gpio_pin io1; /**< & */
  86:../DaisyExamples/libDaisy//src/per/qspi.h ****             dsy_gpio_pin io2; /**< & */
  87:../DaisyExamples/libDaisy//src/per/qspi.h ****             dsy_gpio_pin io3; /**< & */
  88:../DaisyExamples/libDaisy//src/per/qspi.h ****             dsy_gpio_pin clk; /**< & */
  89:../DaisyExamples/libDaisy//src/per/qspi.h ****             dsy_gpio_pin ncs; /**< & */
  90:../DaisyExamples/libDaisy//src/per/qspi.h ****         } pin_config;
  91:../DaisyExamples/libDaisy//src/per/qspi.h **** 
  92:../DaisyExamples/libDaisy//src/per/qspi.h ****         Device device;
  93:../DaisyExamples/libDaisy//src/per/qspi.h ****         Mode   mode;
  94:../DaisyExamples/libDaisy//src/per/qspi.h ****     };
  95:../DaisyExamples/libDaisy//src/per/qspi.h **** 
  96:../DaisyExamples/libDaisy//src/per/qspi.h ****     /** 
  97:../DaisyExamples/libDaisy//src/per/qspi.h ****         Initializes QSPI peripheral, and Resets, and prepares memory for access.
  98:../DaisyExamples/libDaisy//src/per/qspi.h ****         \param config should be populated with the mode, device and pin_config before calling this 
  99:../DaisyExamples/libDaisy//src/per/qspi.h ****         \return Result::OK or Result::ERR
 100:../DaisyExamples/libDaisy//src/per/qspi.h ****         */
 101:../DaisyExamples/libDaisy//src/per/qspi.h ****     Result Init(const Config& config);
 102:../DaisyExamples/libDaisy//src/per/qspi.h **** 
 103:../DaisyExamples/libDaisy//src/per/qspi.h ****     /** Returns the current config. */
 104:../DaisyExamples/libDaisy//src/per/qspi.h ****     const Config& GetConfig() const;
 105:../DaisyExamples/libDaisy//src/per/qspi.h **** 
 106:../DaisyExamples/libDaisy//src/per/qspi.h ****     // Couldn't this just be called before anything else in init? That
 107:../DaisyExamples/libDaisy//src/per/qspi.h ****     // would make manually calling it unnecessary.
 108:../DaisyExamples/libDaisy//src/per/qspi.h ****     /** 
 109:../DaisyExamples/libDaisy//src/per/qspi.h ****         Deinitializes the peripheral
 110:../DaisyExamples/libDaisy//src/per/qspi.h ****         This should be called before reinitializing QSPI in a different mode.
 111:../DaisyExamples/libDaisy//src/per/qspi.h ****         \return Result::OK or Result::ERR
 112:../DaisyExamples/libDaisy//src/per/qspi.h ****         */
 113:../DaisyExamples/libDaisy//src/per/qspi.h ****     Result DeInit();
 114:../DaisyExamples/libDaisy//src/per/qspi.h **** 
 115:../DaisyExamples/libDaisy//src/per/qspi.h ****     /** 
 116:../DaisyExamples/libDaisy//src/per/qspi.h ****         Writes a single page to to the specified address on the QSPI chip.
 117:../DaisyExamples/libDaisy//src/per/qspi.h ****         For IS25LP*, page size is 256 bytes.
 118:../DaisyExamples/libDaisy//src/per/qspi.h ****         \param address Address to write to
 119:../DaisyExamples/libDaisy//src/per/qspi.h ****         \param size Buffer size
 120:../DaisyExamples/libDaisy//src/per/qspi.h ****         \param buffer Buffer to write
 121:../DaisyExamples/libDaisy//src/per/qspi.h ****         \return Result::OK or Result::ERR
 122:../DaisyExamples/libDaisy//src/per/qspi.h ****         */
 123:../DaisyExamples/libDaisy//src/per/qspi.h ****     Result WritePage(uint32_t address, uint32_t size, uint8_t* buffer);
 124:../DaisyExamples/libDaisy//src/per/qspi.h **** 
 125:../DaisyExamples/libDaisy//src/per/qspi.h ****     /** 
 126:../DaisyExamples/libDaisy//src/per/qspi.h ****         Writes data in buffer to to the QSPI. Starting at address to address+size 
 127:../DaisyExamples/libDaisy//src/per/qspi.h ****         \param address Address to write to
 128:../DaisyExamples/libDaisy//src/per/qspi.h ****         \param size Buffer size
 129:../DaisyExamples/libDaisy//src/per/qspi.h ****         \param buffer Buffer to write
 130:../DaisyExamples/libDaisy//src/per/qspi.h ****         \return Result::OK or Result::ERR
ARM GAS  /var/folders/1_/rgbtf7293t93c5kflb58xcy40000gn/T//cchnO2o5.s 			page 33


 131:../DaisyExamples/libDaisy//src/per/qspi.h ****         */
 132:../DaisyExamples/libDaisy//src/per/qspi.h ****     Result Write(uint32_t address, uint32_t size, uint8_t* buffer);
 133:../DaisyExamples/libDaisy//src/per/qspi.h **** 
 134:../DaisyExamples/libDaisy//src/per/qspi.h ****     /** 
 135:../DaisyExamples/libDaisy//src/per/qspi.h ****         Erases the area specified on the chip.
 136:../DaisyExamples/libDaisy//src/per/qspi.h ****         Erasures will happen by 4K, 32K or 64K increments.
 137:../DaisyExamples/libDaisy//src/per/qspi.h ****         Smallest erase possible is 4kB at a time. (on IS25LP*)
 138:../DaisyExamples/libDaisy//src/per/qspi.h ****         \param start_addr Address to begin erasing from
 139:../DaisyExamples/libDaisy//src/per/qspi.h ****         \param end_addr  Address to stop erasing at
 140:../DaisyExamples/libDaisy//src/per/qspi.h ****         \return Result::OK or Result::ERR
 141:../DaisyExamples/libDaisy//src/per/qspi.h ****         */
 142:../DaisyExamples/libDaisy//src/per/qspi.h ****     Result Erase(uint32_t start_addr, uint32_t end_addr);
 143:../DaisyExamples/libDaisy//src/per/qspi.h **** 
 144:../DaisyExamples/libDaisy//src/per/qspi.h ****     /**  
 145:../DaisyExamples/libDaisy//src/per/qspi.h ****          Erases a single sector of the chip.  
 146:../DaisyExamples/libDaisy//src/per/qspi.h ****         TODO: Document the size of this function. 
 147:../DaisyExamples/libDaisy//src/per/qspi.h ****         \param address Address of sector to erase
 148:../DaisyExamples/libDaisy//src/per/qspi.h ****         \return Result::OK or Result::ERR
 149:../DaisyExamples/libDaisy//src/per/qspi.h ****         */
 150:../DaisyExamples/libDaisy//src/per/qspi.h ****     Result EraseSector(uint32_t address);
 151:../DaisyExamples/libDaisy//src/per/qspi.h **** 
 152:../DaisyExamples/libDaisy//src/per/qspi.h ****     /** Returns the current class status. Useful for debugging.
 153:../DaisyExamples/libDaisy//src/per/qspi.h ****      *  \returns Status
 154:../DaisyExamples/libDaisy//src/per/qspi.h ****      */
 155:../DaisyExamples/libDaisy//src/per/qspi.h ****     Status GetStatus();
 156:../DaisyExamples/libDaisy//src/per/qspi.h **** 
 157:../DaisyExamples/libDaisy//src/per/qspi.h ****     /** Returns a pointer to the actual memory used 
 158:../DaisyExamples/libDaisy//src/per/qspi.h ****      *  The memory at this address is read-only
 159:../DaisyExamples/libDaisy//src/per/qspi.h ****      *  to write to it use the Write function.
 160:../DaisyExamples/libDaisy//src/per/qspi.h ****      * 
 161:../DaisyExamples/libDaisy//src/per/qspi.h ****      *  \param offset returns the pointer starting this 
 162:../DaisyExamples/libDaisy//src/per/qspi.h ****      *                many bytes into the memory
 163:../DaisyExamples/libDaisy//src/per/qspi.h ****     */
 164:../DaisyExamples/libDaisy//src/per/qspi.h ****     void* GetData(uint32_t offset = 0);
 165:../DaisyExamples/libDaisy//src/per/qspi.h **** 
 166:../DaisyExamples/libDaisy//src/per/qspi.h ****     QSPIHandle() : pimpl_(nullptr) {}
 595              		.loc 7 166 5
 596              		.cfi_startproc
 597              		@ args = 0, pretend = 0, frame = 8
 598              		@ frame_needed = 1, uses_anonymous_args = 0
 599              		@ link register save eliminated.
 600 0000 80B4     		push	{r7}
 601              		.cfi_def_cfa_offset 4
 602              		.cfi_offset 7, -4
 603 0002 83B0     		sub	sp, sp, #12
 604              		.cfi_def_cfa_offset 16
 605 0004 00AF     		add	r7, sp, #0
 606              		.cfi_def_cfa_register 7
 607 0006 7860     		str	r0, [r7, #4]
 608              	.LBB6:
 609              		.loc 7 166 34
 610 0008 7B68     		ldr	r3, [r7, #4]
 611 000a 0022     		movs	r2, #0
 612 000c 1A60     		str	r2, [r3]
 613              	.LBE6:
 614              		.loc 7 166 37
 615 000e 7B68     		ldr	r3, [r7, #4]
ARM GAS  /var/folders/1_/rgbtf7293t93c5kflb58xcy40000gn/T//cchnO2o5.s 			page 34


 616 0010 1846     		mov	r0, r3
 617 0012 0C37     		adds	r7, r7, #12
 618              		.cfi_def_cfa_offset 4
 619 0014 BD46     		mov	sp, r7
 620              		.cfi_def_cfa_register 13
 621              		@ sp needed
 622 0016 5DF8047B 		ldr	r7, [sp], #4
 623              		.cfi_restore 7
 624              		.cfi_def_cfa_offset 0
 625 001a 7047     		bx	lr
 626              		.cfi_endproc
 627              	.LFE3549:
 629              		.weak	_ZN5daisy10QSPIHandleC1Ev
 630              		.thumb_set _ZN5daisy10QSPIHandleC1Ev,_ZN5daisy10QSPIHandleC2Ev
 631              		.section	.text._ZN5daisy9DacHandleC2Ev,"axG",%progbits,_ZN5daisy9DacHandleC5Ev,comdat
 632              		.align	1
 633              		.weak	_ZN5daisy9DacHandleC2Ev
 634              		.syntax unified
 635              		.thumb
 636              		.thumb_func
 638              	_ZN5daisy9DacHandleC2Ev:
 639              	.LFB3552:
 640              		.file 8 "../DaisyExamples/libDaisy//src/per/dac.h"
   1:../DaisyExamples/libDaisy//src/per/dac.h **** #pragma once
   2:../DaisyExamples/libDaisy//src/per/dac.h **** #ifndef DSY_DAC_H
   3:../DaisyExamples/libDaisy//src/per/dac.h **** #define DSY_DAC_H
   4:../DaisyExamples/libDaisy//src/per/dac.h **** 
   5:../DaisyExamples/libDaisy//src/per/dac.h **** #include "daisy_core.h"
   6:../DaisyExamples/libDaisy//src/per/dac.h **** 
   7:../DaisyExamples/libDaisy//src/per/dac.h **** namespace daisy
   8:../DaisyExamples/libDaisy//src/per/dac.h **** {
   9:../DaisyExamples/libDaisy//src/per/dac.h **** /** @brief DAC handle for Built-in DAC Peripheral 
  10:../DaisyExamples/libDaisy//src/per/dac.h ****  *  @ingroup per_analog
  11:../DaisyExamples/libDaisy//src/per/dac.h ****  ** 
  12:../DaisyExamples/libDaisy//src/per/dac.h ****  ** For now only Normal Mode is supported,
  13:../DaisyExamples/libDaisy//src/per/dac.h ****  ** Sample and hold mode provides reduced power consumption, but requires a bit more setup.
  14:../DaisyExamples/libDaisy//src/per/dac.h ****  **
  15:../DaisyExamples/libDaisy//src/per/dac.h ****  ** For now connecting the DAC through other internal peripherals is also not supported.
  16:../DaisyExamples/libDaisy//src/per/dac.h ****  **
  17:../DaisyExamples/libDaisy//src/per/dac.h ****  ** Since the DAC channels have dedicated pins we don't need to pass in a pin config like with
  18:../DaisyExamples/libDaisy//src/per/dac.h ****  ** other modules. However, it is still important to not try to use the DAC pins for anything else.
  19:../DaisyExamples/libDaisy//src/per/dac.h ****  ** DAC Channel 1 is on PA4, and DAC Channel 2 is on PA5
  20:../DaisyExamples/libDaisy//src/per/dac.h ****  ***/
  21:../DaisyExamples/libDaisy//src/per/dac.h **** class DacHandle
  22:../DaisyExamples/libDaisy//src/per/dac.h **** {
  23:../DaisyExamples/libDaisy//src/per/dac.h ****   public:
  24:../DaisyExamples/libDaisy//src/per/dac.h ****     /** Return Values for the DacHandle class */
  25:../DaisyExamples/libDaisy//src/per/dac.h ****     enum class Result
  26:../DaisyExamples/libDaisy//src/per/dac.h ****     {
  27:../DaisyExamples/libDaisy//src/per/dac.h ****         OK,
  28:../DaisyExamples/libDaisy//src/per/dac.h ****         ERR,
  29:../DaisyExamples/libDaisy//src/per/dac.h ****     };
  30:../DaisyExamples/libDaisy//src/per/dac.h **** 
  31:../DaisyExamples/libDaisy//src/per/dac.h ****     /** Selects which channel(s) will be configured for use. */
  32:../DaisyExamples/libDaisy//src/per/dac.h ****     enum class Channel
  33:../DaisyExamples/libDaisy//src/per/dac.h ****     {
  34:../DaisyExamples/libDaisy//src/per/dac.h ****         ONE,
ARM GAS  /var/folders/1_/rgbtf7293t93c5kflb58xcy40000gn/T//cchnO2o5.s 			page 35


  35:../DaisyExamples/libDaisy//src/per/dac.h ****         TWO,
  36:../DaisyExamples/libDaisy//src/per/dac.h ****         BOTH,
  37:../DaisyExamples/libDaisy//src/per/dac.h ****     };
  38:../DaisyExamples/libDaisy//src/per/dac.h **** 
  39:../DaisyExamples/libDaisy//src/per/dac.h ****     /** Sets the Mode for the DAC channels.
  40:../DaisyExamples/libDaisy//src/per/dac.h ****      **
  41:../DaisyExamples/libDaisy//src/per/dac.h ****      ** Polling mode uses the blocking mode to transmit a single value at a time.
  42:../DaisyExamples/libDaisy//src/per/dac.h ****      **
  43:../DaisyExamples/libDaisy//src/per/dac.h ****      ** DMA mode uses a buffer, and periodically transmits it triggering a 
  44:../DaisyExamples/libDaisy//src/per/dac.h ****      ** callback to fill the buffer when it is ready for more samples.
  45:../DaisyExamples/libDaisy//src/per/dac.h ****      ***/
  46:../DaisyExamples/libDaisy//src/per/dac.h ****     enum class Mode
  47:../DaisyExamples/libDaisy//src/per/dac.h ****     {
  48:../DaisyExamples/libDaisy//src/per/dac.h ****         POLLING,
  49:../DaisyExamples/libDaisy//src/per/dac.h ****         DMA,
  50:../DaisyExamples/libDaisy//src/per/dac.h ****     };
  51:../DaisyExamples/libDaisy//src/per/dac.h **** 
  52:../DaisyExamples/libDaisy//src/per/dac.h ****     /** Sets the number of bits per sample transmitted out of the DAC.
  53:../DaisyExamples/libDaisy//src/per/dac.h ****      ** The output range will be: 0V - VDDA
  54:../DaisyExamples/libDaisy//src/per/dac.h ****      ** The resolution will be roughly: bitdepth / (VDDA - 0V) 
  55:../DaisyExamples/libDaisy//src/per/dac.h ****      ***/
  56:../DaisyExamples/libDaisy//src/per/dac.h ****     enum class BitDepth
  57:../DaisyExamples/libDaisy//src/per/dac.h ****     {
  58:../DaisyExamples/libDaisy//src/per/dac.h ****         BITS_8,
  59:../DaisyExamples/libDaisy//src/per/dac.h ****         BITS_12
  60:../DaisyExamples/libDaisy//src/per/dac.h ****     };
  61:../DaisyExamples/libDaisy//src/per/dac.h **** 
  62:../DaisyExamples/libDaisy//src/per/dac.h ****     /** Sets whether the DAC output is buffered for higher drive ability. */
  63:../DaisyExamples/libDaisy//src/per/dac.h ****     enum class BufferState
  64:../DaisyExamples/libDaisy//src/per/dac.h ****     {
  65:../DaisyExamples/libDaisy//src/per/dac.h ****         ENABLED,
  66:../DaisyExamples/libDaisy//src/per/dac.h ****         DISABLED,
  67:../DaisyExamples/libDaisy//src/per/dac.h ****     };
  68:../DaisyExamples/libDaisy//src/per/dac.h **** 
  69:../DaisyExamples/libDaisy//src/per/dac.h ****     /** Configuration structure for initializing the DAC structure. */
  70:../DaisyExamples/libDaisy//src/per/dac.h ****     struct Config
  71:../DaisyExamples/libDaisy//src/per/dac.h ****     {
  72:../DaisyExamples/libDaisy//src/per/dac.h ****         /** Target Samplerate in Hz used to configure the internal 
  73:../DaisyExamples/libDaisy//src/per/dac.h ****          ** timebase for DMA mode. Does nothing in POLLING mode.
  74:../DaisyExamples/libDaisy//src/per/dac.h ****          ** If the value is 0 at Init time this will default to 48000Hz 
  75:../DaisyExamples/libDaisy//src/per/dac.h ****          ** otherwise the driver will attempt meet the target.*/
  76:../DaisyExamples/libDaisy//src/per/dac.h ****         uint32_t target_samplerate;
  77:../DaisyExamples/libDaisy//src/per/dac.h **** 
  78:../DaisyExamples/libDaisy//src/per/dac.h ****         Channel     chn;
  79:../DaisyExamples/libDaisy//src/per/dac.h ****         Mode        mode;
  80:../DaisyExamples/libDaisy//src/per/dac.h ****         BitDepth    bitdepth;
  81:../DaisyExamples/libDaisy//src/per/dac.h ****         BufferState buff_state;
  82:../DaisyExamples/libDaisy//src/per/dac.h ****     };
  83:../DaisyExamples/libDaisy//src/per/dac.h **** 
  84:../DaisyExamples/libDaisy//src/per/dac.h ****     DacHandle() : pimpl_(nullptr) {}
 641              		.loc 8 84 5
 642              		.cfi_startproc
 643              		@ args = 0, pretend = 0, frame = 8
 644              		@ frame_needed = 1, uses_anonymous_args = 0
 645              		@ link register save eliminated.
 646 0000 80B4     		push	{r7}
 647              		.cfi_def_cfa_offset 4
ARM GAS  /var/folders/1_/rgbtf7293t93c5kflb58xcy40000gn/T//cchnO2o5.s 			page 36


 648              		.cfi_offset 7, -4
 649 0002 83B0     		sub	sp, sp, #12
 650              		.cfi_def_cfa_offset 16
 651 0004 00AF     		add	r7, sp, #0
 652              		.cfi_def_cfa_register 7
 653 0006 7860     		str	r0, [r7, #4]
 654              	.LBB7:
 655              		.loc 8 84 33
 656 0008 7B68     		ldr	r3, [r7, #4]
 657 000a 0022     		movs	r2, #0
 658 000c 1A60     		str	r2, [r3]
 659              	.LBE7:
 660              		.loc 8 84 36
 661 000e 7B68     		ldr	r3, [r7, #4]
 662 0010 1846     		mov	r0, r3
 663 0012 0C37     		adds	r7, r7, #12
 664              		.cfi_def_cfa_offset 4
 665 0014 BD46     		mov	sp, r7
 666              		.cfi_def_cfa_register 13
 667              		@ sp needed
 668 0016 5DF8047B 		ldr	r7, [sp], #4
 669              		.cfi_restore 7
 670              		.cfi_def_cfa_offset 0
 671 001a 7047     		bx	lr
 672              		.cfi_endproc
 673              	.LFE3552:
 675              		.weak	_ZN5daisy9DacHandleC1Ev
 676              		.thumb_set _ZN5daisy9DacHandleC1Ev,_ZN5daisy9DacHandleC2Ev
 677              		.section	.text._ZN5daisy4GPIO6ConfigC2Ev,"axG",%progbits,_ZN5daisy4GPIO6ConfigC5Ev,comdat
 678              		.align	1
 679              		.weak	_ZN5daisy4GPIO6ConfigC2Ev
 680              		.syntax unified
 681              		.thumb
 682              		.thumb_func
 684              	_ZN5daisy4GPIO6ConfigC2Ev:
 685              	.LFB3555:
 686              		.file 9 "../DaisyExamples/libDaisy//src/per/gpio.h"
   1:../DaisyExamples/libDaisy//src/per/gpio.h **** #pragma once
   2:../DaisyExamples/libDaisy//src/per/gpio.h **** #ifndef DSY_GPIO_H
   3:../DaisyExamples/libDaisy//src/per/gpio.h **** #define DSY_GPIO_H
   4:../DaisyExamples/libDaisy//src/per/gpio.h **** #include "daisy_core.h"
   5:../DaisyExamples/libDaisy//src/per/gpio.h **** 
   6:../DaisyExamples/libDaisy//src/per/gpio.h **** #ifdef __cplusplus
   7:../DaisyExamples/libDaisy//src/per/gpio.h **** 
   8:../DaisyExamples/libDaisy//src/per/gpio.h **** namespace daisy
   9:../DaisyExamples/libDaisy//src/per/gpio.h **** {
  10:../DaisyExamples/libDaisy//src/per/gpio.h **** /** @brief General Purpose I/O control 
  11:../DaisyExamples/libDaisy//src/per/gpio.h ****  *  @details peripheral control over a single GPIO
  12:../DaisyExamples/libDaisy//src/per/gpio.h ****  *  @ingroup peripheral
  13:../DaisyExamples/libDaisy//src/per/gpio.h ****  *   
  14:../DaisyExamples/libDaisy//src/per/gpio.h ****  *  Button Input (with internal Pullup resistor)
  15:../DaisyExamples/libDaisy//src/per/gpio.h ****  *  @include GPIO_Input.cpp 
  16:../DaisyExamples/libDaisy//src/per/gpio.h ****  * 
  17:../DaisyExamples/libDaisy//src/per/gpio.h ****  *  Output Example (perfect for blinking an LED)
  18:../DaisyExamples/libDaisy//src/per/gpio.h ****  *  @include GPIO_Output.cpp
  19:../DaisyExamples/libDaisy//src/per/gpio.h ****  * 
  20:../DaisyExamples/libDaisy//src/per/gpio.h **** */
ARM GAS  /var/folders/1_/rgbtf7293t93c5kflb58xcy40000gn/T//cchnO2o5.s 			page 37


  21:../DaisyExamples/libDaisy//src/per/gpio.h **** class GPIO
  22:../DaisyExamples/libDaisy//src/per/gpio.h **** {
  23:../DaisyExamples/libDaisy//src/per/gpio.h ****   public:
  24:../DaisyExamples/libDaisy//src/per/gpio.h ****     /** @brief Mode of operation for the specified GPIO */
  25:../DaisyExamples/libDaisy//src/per/gpio.h ****     enum class Mode
  26:../DaisyExamples/libDaisy//src/per/gpio.h ****     {
  27:../DaisyExamples/libDaisy//src/per/gpio.h ****         INPUT,     /**< Input for reading state of pin */
  28:../DaisyExamples/libDaisy//src/per/gpio.h ****         OUTPUT,    /**< Output w/ push-pull configuration */
  29:../DaisyExamples/libDaisy//src/per/gpio.h ****         OUTPUT_OD, /**< Output w/ open-drain configuration */
  30:../DaisyExamples/libDaisy//src/per/gpio.h ****         ANALOG,    /**< Analog for connection to ADC or DAC peripheral */
  31:../DaisyExamples/libDaisy//src/per/gpio.h ****     };
  32:../DaisyExamples/libDaisy//src/per/gpio.h **** 
  33:../DaisyExamples/libDaisy//src/per/gpio.h ****     /** @brief Configures whether an internal Pull up or Pull down resistor is used. 
  34:../DaisyExamples/libDaisy//src/per/gpio.h ****      *  
  35:../DaisyExamples/libDaisy//src/per/gpio.h ****      * Internal Pull up/down resistors are typically 40k ohms, and will be between
  36:../DaisyExamples/libDaisy//src/per/gpio.h ****      * 30k and 50k
  37:../DaisyExamples/libDaisy//src/per/gpio.h ****      * 
  38:../DaisyExamples/libDaisy//src/per/gpio.h ****      * When the Pin is configured in Analog mode, the pull up/down resistors are
  39:../DaisyExamples/libDaisy//src/per/gpio.h ****      * disabled by hardware. 
  40:../DaisyExamples/libDaisy//src/per/gpio.h ****      */
  41:../DaisyExamples/libDaisy//src/per/gpio.h ****     enum class Pull
  42:../DaisyExamples/libDaisy//src/per/gpio.h ****     {
  43:../DaisyExamples/libDaisy//src/per/gpio.h ****         NOPULL,   /**< No pull up resistor */
  44:../DaisyExamples/libDaisy//src/per/gpio.h ****         PULLUP,   /**< Internal pull up enabled */
  45:../DaisyExamples/libDaisy//src/per/gpio.h ****         PULLDOWN, /**< Internal pull down enabled*/
  46:../DaisyExamples/libDaisy//src/per/gpio.h ****     };
  47:../DaisyExamples/libDaisy//src/per/gpio.h **** 
  48:../DaisyExamples/libDaisy//src/per/gpio.h ****     /** @brief Output speed controls the drive strength, and slew rate of the pin */
  49:../DaisyExamples/libDaisy//src/per/gpio.h ****     enum class Speed
  50:../DaisyExamples/libDaisy//src/per/gpio.h ****     {
  51:../DaisyExamples/libDaisy//src/per/gpio.h ****         LOW,
  52:../DaisyExamples/libDaisy//src/per/gpio.h ****         MEDIUM,
  53:../DaisyExamples/libDaisy//src/per/gpio.h ****         HIGH,
  54:../DaisyExamples/libDaisy//src/per/gpio.h ****         VERY_HIGH,
  55:../DaisyExamples/libDaisy//src/per/gpio.h ****     };
  56:../DaisyExamples/libDaisy//src/per/gpio.h **** 
  57:../DaisyExamples/libDaisy//src/per/gpio.h ****     /** @brief Configuration for a given GPIO */
  58:../DaisyExamples/libDaisy//src/per/gpio.h ****     struct Config
  59:../DaisyExamples/libDaisy//src/per/gpio.h ****     {
  60:../DaisyExamples/libDaisy//src/per/gpio.h ****         Pin   pin;
  61:../DaisyExamples/libDaisy//src/per/gpio.h ****         Mode  mode;
  62:../DaisyExamples/libDaisy//src/per/gpio.h ****         Pull  pull;
  63:../DaisyExamples/libDaisy//src/per/gpio.h ****         Speed speed;
  64:../DaisyExamples/libDaisy//src/per/gpio.h **** 
  65:../DaisyExamples/libDaisy//src/per/gpio.h ****         /** Constructor with no arguments will prepare an invalid GPIO set as
  66:../DaisyExamples/libDaisy//src/per/gpio.h ****          *  an input, with no pullup. 
  67:../DaisyExamples/libDaisy//src/per/gpio.h ****          */
  68:../DaisyExamples/libDaisy//src/per/gpio.h ****         Config()
 687              		.loc 9 68 9
 688              		.cfi_startproc
 689              		@ args = 0, pretend = 0, frame = 8
 690              		@ frame_needed = 1, uses_anonymous_args = 0
 691 0000 80B5     		push	{r7, lr}
 692              		.cfi_def_cfa_offset 8
 693              		.cfi_offset 7, -8
 694              		.cfi_offset 14, -4
 695 0002 82B0     		sub	sp, sp, #8
ARM GAS  /var/folders/1_/rgbtf7293t93c5kflb58xcy40000gn/T//cchnO2o5.s 			page 38


 696              		.cfi_def_cfa_offset 16
 697 0004 00AF     		add	r7, sp, #0
 698              		.cfi_def_cfa_register 7
 699 0006 7860     		str	r0, [r7, #4]
 700              	.LBB8:
  69:../DaisyExamples/libDaisy//src/per/gpio.h ****         : pin(), mode(Mode::INPUT), pull(Pull::NOPULL), speed(Speed::LOW)
 701              		.loc 9 69 73
 702 0008 7B68     		ldr	r3, [r7, #4]
 703 000a 1846     		mov	r0, r3
 704 000c FFF7FEFF 		bl	_ZN5daisy3PinC1Ev
 705 0010 7B68     		ldr	r3, [r7, #4]
 706 0012 0022     		movs	r2, #0
 707 0014 5A60     		str	r2, [r3, #4]
 708 0016 7B68     		ldr	r3, [r7, #4]
 709 0018 0022     		movs	r2, #0
 710 001a 9A60     		str	r2, [r3, #8]
 711 001c 7B68     		ldr	r3, [r7, #4]
 712 001e 0022     		movs	r2, #0
 713 0020 DA60     		str	r2, [r3, #12]
 714              	.LBE8:
  70:../DaisyExamples/libDaisy//src/per/gpio.h ****         {
  71:../DaisyExamples/libDaisy//src/per/gpio.h ****         }
 715              		.loc 9 71 9
 716 0022 7B68     		ldr	r3, [r7, #4]
 717 0024 1846     		mov	r0, r3
 718 0026 0837     		adds	r7, r7, #8
 719              		.cfi_def_cfa_offset 8
 720 0028 BD46     		mov	sp, r7
 721              		.cfi_def_cfa_register 13
 722              		@ sp needed
 723 002a 80BD     		pop	{r7, pc}
 724              		.cfi_endproc
 725              	.LFE3555:
 727              		.weak	_ZN5daisy4GPIO6ConfigC1Ev
 728              		.thumb_set _ZN5daisy4GPIO6ConfigC1Ev,_ZN5daisy4GPIO6ConfigC2Ev
 729              		.section	.text._ZN5daisy4GPIOC2Ev,"axG",%progbits,_ZN5daisy4GPIOC5Ev,comdat
 730              		.align	1
 731              		.weak	_ZN5daisy4GPIOC2Ev
 732              		.syntax unified
 733              		.thumb
 734              		.thumb_func
 736              	_ZN5daisy4GPIOC2Ev:
 737              	.LFB3558:
  72:../DaisyExamples/libDaisy//src/per/gpio.h ****     };
  73:../DaisyExamples/libDaisy//src/per/gpio.h **** 
  74:../DaisyExamples/libDaisy//src/per/gpio.h ****     GPIO() {}
 738              		.loc 9 74 5
 739              		.cfi_startproc
 740              		@ args = 0, pretend = 0, frame = 8
 741              		@ frame_needed = 1, uses_anonymous_args = 0
 742 0000 80B5     		push	{r7, lr}
 743              		.cfi_def_cfa_offset 8
 744              		.cfi_offset 7, -8
 745              		.cfi_offset 14, -4
 746 0002 82B0     		sub	sp, sp, #8
 747              		.cfi_def_cfa_offset 16
 748 0004 00AF     		add	r7, sp, #0
ARM GAS  /var/folders/1_/rgbtf7293t93c5kflb58xcy40000gn/T//cchnO2o5.s 			page 39


 749              		.cfi_def_cfa_register 7
 750 0006 7860     		str	r0, [r7, #4]
 751              	.LBB9:
 752              		.loc 9 74 12
 753 0008 7B68     		ldr	r3, [r7, #4]
 754 000a 1846     		mov	r0, r3
 755 000c FFF7FEFF 		bl	_ZN5daisy4GPIO6ConfigC1Ev
 756              	.LBE9:
 757              		.loc 9 74 13
 758 0010 7B68     		ldr	r3, [r7, #4]
 759 0012 1846     		mov	r0, r3
 760 0014 0837     		adds	r7, r7, #8
 761              		.cfi_def_cfa_offset 8
 762 0016 BD46     		mov	sp, r7
 763              		.cfi_def_cfa_register 13
 764              		@ sp needed
 765 0018 80BD     		pop	{r7, pc}
 766              		.cfi_endproc
 767              	.LFE3558:
 769              		.weak	_ZN5daisy4GPIOC1Ev
 770              		.thumb_set _ZN5daisy4GPIOC1Ev,_ZN5daisy4GPIOC2Ev
 771              		.section	.text._ZN5daisy9I2CHandleC2Ev,"axG",%progbits,_ZN5daisy9I2CHandleC5Ev,comdat
 772              		.align	1
 773              		.weak	_ZN5daisy9I2CHandleC2Ev
 774              		.syntax unified
 775              		.thumb
 776              		.thumb_func
 778              	_ZN5daisy9I2CHandleC2Ev:
 779              	.LFB3562:
 780              		.file 10 "../DaisyExamples/libDaisy//src/per/i2c.h"
   1:../DaisyExamples/libDaisy//src/per/i2c.h **** #pragma once
   2:../DaisyExamples/libDaisy//src/per/i2c.h **** #include "daisy_core.h"
   3:../DaisyExamples/libDaisy//src/per/i2c.h **** 
   4:../DaisyExamples/libDaisy//src/per/i2c.h **** namespace daisy
   5:../DaisyExamples/libDaisy//src/per/i2c.h **** {
   6:../DaisyExamples/libDaisy//src/per/i2c.h **** /** A handle for interacting with an I2C peripheral. This is a dumb
   7:../DaisyExamples/libDaisy//src/per/i2c.h ****  *  gateway that internally points to one of the four I2C peripherals
   8:../DaisyExamples/libDaisy//src/per/i2c.h ****  *  after it was initialised. It can then be copied and passed around.
   9:../DaisyExamples/libDaisy//src/per/i2c.h ****  *  Use an I2CHandle like this:
  10:../DaisyExamples/libDaisy//src/per/i2c.h ****  *  
  11:../DaisyExamples/libDaisy//src/per/i2c.h ****  *      // setup the configuration
  12:../DaisyExamples/libDaisy//src/per/i2c.h ****  *      I2CHandle::Config i2c_conf;
  13:../DaisyExamples/libDaisy//src/per/i2c.h ****  *      i2c_conf.periph = I2CHandle::Config::Peripheral::I2C_1;
  14:../DaisyExamples/libDaisy//src/per/i2c.h ****  *      i2c_conf.speed  = I2CHandle::Config::Speed::I2C_400KHZ;
  15:../DaisyExamples/libDaisy//src/per/i2c.h ****  *      i2c_conf.mode   = I2CHandle::Config::Mode::Master;
  16:../DaisyExamples/libDaisy//src/per/i2c.h ****  *      i2c_conf.pin_config.scl  = {DSY_GPIOB, 8};
  17:../DaisyExamples/libDaisy//src/per/i2c.h ****  *      i2c_conf.pin_config.sda  = {DSY_GPIOB, 9};
  18:../DaisyExamples/libDaisy//src/per/i2c.h ****  *      // initialise the peripheral
  19:../DaisyExamples/libDaisy//src/per/i2c.h ****  *      I2CHandle i2c;
  20:../DaisyExamples/libDaisy//src/per/i2c.h ****  *      i2c.Init(i2c_conf);
  21:../DaisyExamples/libDaisy//src/per/i2c.h ****  *      // now i2c points to the corresponding peripheral and can be used.
  22:../DaisyExamples/libDaisy//src/per/i2c.h ****  *      i2c.TransmitBlocking( ... );
  23:../DaisyExamples/libDaisy//src/per/i2c.h ****  */
  24:../DaisyExamples/libDaisy//src/per/i2c.h **** class I2CHandle
  25:../DaisyExamples/libDaisy//src/per/i2c.h **** {
  26:../DaisyExamples/libDaisy//src/per/i2c.h ****   public:
  27:../DaisyExamples/libDaisy//src/per/i2c.h ****     /** Contains settings for initialising an I2C interface. */
ARM GAS  /var/folders/1_/rgbtf7293t93c5kflb58xcy40000gn/T//cchnO2o5.s 			page 40


  28:../DaisyExamples/libDaisy//src/per/i2c.h ****     struct Config
  29:../DaisyExamples/libDaisy//src/per/i2c.h ****     {
  30:../DaisyExamples/libDaisy//src/per/i2c.h ****         /** Specifies whether the interface will operate in master or slave mode. */
  31:../DaisyExamples/libDaisy//src/per/i2c.h ****         enum class Mode
  32:../DaisyExamples/libDaisy//src/per/i2c.h ****         {
  33:../DaisyExamples/libDaisy//src/per/i2c.h ****             I2C_MASTER,
  34:../DaisyExamples/libDaisy//src/per/i2c.h ****             I2C_SLAVE,
  35:../DaisyExamples/libDaisy//src/per/i2c.h ****         };
  36:../DaisyExamples/libDaisy//src/per/i2c.h **** 
  37:../DaisyExamples/libDaisy//src/per/i2c.h ****         /** Specifices the internal peripheral to use (these are mapped to different pins on the ha
  38:../DaisyExamples/libDaisy//src/per/i2c.h ****         enum class Peripheral
  39:../DaisyExamples/libDaisy//src/per/i2c.h ****         {
  40:../DaisyExamples/libDaisy//src/per/i2c.h ****             I2C_1 = 0, /**< & */
  41:../DaisyExamples/libDaisy//src/per/i2c.h ****             I2C_2,     /**< & */
  42:../DaisyExamples/libDaisy//src/per/i2c.h ****             I2C_3,     /**< & */
  43:../DaisyExamples/libDaisy//src/per/i2c.h ****             I2C_4,     /**< & */
  44:../DaisyExamples/libDaisy//src/per/i2c.h ****         };
  45:../DaisyExamples/libDaisy//src/per/i2c.h **** 
  46:../DaisyExamples/libDaisy//src/per/i2c.h ****         /** Rate at which the clock/data will be sent/received. The device being used will have max
  47:../DaisyExamples/libDaisy//src/per/i2c.h ****          *  1MHZ Mode is currently 886kHz
  48:../DaisyExamples/libDaisy//src/per/i2c.h ****          */
  49:../DaisyExamples/libDaisy//src/per/i2c.h ****         enum class Speed
  50:../DaisyExamples/libDaisy//src/per/i2c.h ****         {
  51:../DaisyExamples/libDaisy//src/per/i2c.h ****             I2C_100KHZ, /**< & */
  52:../DaisyExamples/libDaisy//src/per/i2c.h ****             I2C_400KHZ, /**< & */
  53:../DaisyExamples/libDaisy//src/per/i2c.h ****             I2C_1MHZ,   /**< & */
  54:../DaisyExamples/libDaisy//src/per/i2c.h ****         };
  55:../DaisyExamples/libDaisy//src/per/i2c.h **** 
  56:../DaisyExamples/libDaisy//src/per/i2c.h ****         Peripheral periph; /**< & */
  57:../DaisyExamples/libDaisy//src/per/i2c.h ****         struct
  58:../DaisyExamples/libDaisy//src/per/i2c.h ****         {
  59:../DaisyExamples/libDaisy//src/per/i2c.h ****             dsy_gpio_pin scl; /**< & */
  60:../DaisyExamples/libDaisy//src/per/i2c.h ****             dsy_gpio_pin sda; /**< & */
  61:../DaisyExamples/libDaisy//src/per/i2c.h ****         } pin_config;         /**< & */
  62:../DaisyExamples/libDaisy//src/per/i2c.h **** 
  63:../DaisyExamples/libDaisy//src/per/i2c.h ****         Speed speed; /**< & */
  64:../DaisyExamples/libDaisy//src/per/i2c.h ****         Mode  mode;  /**< & */
  65:../DaisyExamples/libDaisy//src/per/i2c.h ****         // 0x10 is chosen as a default to avoid conflicts with reserved addresses
  66:../DaisyExamples/libDaisy//src/per/i2c.h ****         uint8_t address = 0x10; /**< & */
  67:../DaisyExamples/libDaisy//src/per/i2c.h ****     };
  68:../DaisyExamples/libDaisy//src/per/i2c.h **** 
  69:../DaisyExamples/libDaisy//src/per/i2c.h ****     /** Return values for I2C functions. */
  70:../DaisyExamples/libDaisy//src/per/i2c.h ****     enum class Result
  71:../DaisyExamples/libDaisy//src/per/i2c.h ****     {
  72:../DaisyExamples/libDaisy//src/per/i2c.h ****         OK, /**< & */
  73:../DaisyExamples/libDaisy//src/per/i2c.h ****         ERR /**< & */
  74:../DaisyExamples/libDaisy//src/per/i2c.h ****     };
  75:../DaisyExamples/libDaisy//src/per/i2c.h **** 
  76:../DaisyExamples/libDaisy//src/per/i2c.h ****     enum class Direction
  77:../DaisyExamples/libDaisy//src/per/i2c.h ****     {
  78:../DaisyExamples/libDaisy//src/per/i2c.h ****         TRANSMIT, /**< & */
  79:../DaisyExamples/libDaisy//src/per/i2c.h ****         RECEIVE,  /**< & */
  80:../DaisyExamples/libDaisy//src/per/i2c.h ****     };
  81:../DaisyExamples/libDaisy//src/per/i2c.h **** 
  82:../DaisyExamples/libDaisy//src/per/i2c.h ****     I2CHandle() : pimpl_(nullptr) {}
 781              		.loc 10 82 5
 782              		.cfi_startproc
ARM GAS  /var/folders/1_/rgbtf7293t93c5kflb58xcy40000gn/T//cchnO2o5.s 			page 41


 783              		@ args = 0, pretend = 0, frame = 8
 784              		@ frame_needed = 1, uses_anonymous_args = 0
 785              		@ link register save eliminated.
 786 0000 80B4     		push	{r7}
 787              		.cfi_def_cfa_offset 4
 788              		.cfi_offset 7, -4
 789 0002 83B0     		sub	sp, sp, #12
 790              		.cfi_def_cfa_offset 16
 791 0004 00AF     		add	r7, sp, #0
 792              		.cfi_def_cfa_register 7
 793 0006 7860     		str	r0, [r7, #4]
 794              	.LBB10:
 795              		.loc 10 82 33
 796 0008 7B68     		ldr	r3, [r7, #4]
 797 000a 0022     		movs	r2, #0
 798 000c 1A60     		str	r2, [r3]
 799              	.LBE10:
 800              		.loc 10 82 36
 801 000e 7B68     		ldr	r3, [r7, #4]
 802 0010 1846     		mov	r0, r3
 803 0012 0C37     		adds	r7, r7, #12
 804              		.cfi_def_cfa_offset 4
 805 0014 BD46     		mov	sp, r7
 806              		.cfi_def_cfa_register 13
 807              		@ sp needed
 808 0016 5DF8047B 		ldr	r7, [sp], #4
 809              		.cfi_restore 7
 810              		.cfi_def_cfa_offset 0
 811 001a 7047     		bx	lr
 812              		.cfi_endproc
 813              	.LFE3562:
 815              		.weak	_ZN5daisy9I2CHandleC1Ev
 816              		.thumb_set _ZN5daisy9I2CHandleC1Ev,_ZN5daisy9I2CHandleC2Ev
 817              		.section	.text._ZN5daisy11AudioHandleC2Ev,"axG",%progbits,_ZN5daisy11AudioHandleC5Ev,comdat
 818              		.align	1
 819              		.weak	_ZN5daisy11AudioHandleC2Ev
 820              		.syntax unified
 821              		.thumb
 822              		.thumb_func
 824              	_ZN5daisy11AudioHandleC2Ev:
 825              	.LFB3623:
 826              		.file 11 "../DaisyExamples/libDaisy//src/hid/audio.h"
   1:../DaisyExamples/libDaisy//src/hid/audio.h **** #ifndef DSY_AUDIO_H
   2:../DaisyExamples/libDaisy//src/hid/audio.h **** #define DSY_AUDIO_H /**< & */
   3:../DaisyExamples/libDaisy//src/hid/audio.h **** 
   4:../DaisyExamples/libDaisy//src/hid/audio.h **** #include "per/sai.h"
   5:../DaisyExamples/libDaisy//src/hid/audio.h **** 
   6:../DaisyExamples/libDaisy//src/hid/audio.h **** namespace daisy
   7:../DaisyExamples/libDaisy//src/hid/audio.h **** {
   8:../DaisyExamples/libDaisy//src/hid/audio.h **** /** @brief Audio Engine Handle
   9:../DaisyExamples/libDaisy//src/hid/audio.h ****  *  @ingroup audio 
  10:../DaisyExamples/libDaisy//src/hid/audio.h ****  *  @details This class allows for higher level access to an audio engine.
  11:../DaisyExamples/libDaisy//src/hid/audio.h ****  *           If you're using a SOM like the DaisySeed or DaisyPatchSM (or any 
  12:../DaisyExamples/libDaisy//src/hid/audio.h ****  *            board that includes one of those objects) then the intialization
  13:../DaisyExamples/libDaisy//src/hid/audio.h ****  *            is already taken  care of.
  14:../DaisyExamples/libDaisy//src/hid/audio.h ****  *           If you're setting up your own custom hardware, or need to make changes
  15:../DaisyExamples/libDaisy//src/hid/audio.h ****  *           you will have to take the following steps:
ARM GAS  /var/folders/1_/rgbtf7293t93c5kflb58xcy40000gn/T//cchnO2o5.s 			page 42


  16:../DaisyExamples/libDaisy//src/hid/audio.h ****  *             1. Create and Initialize an SaiHandle or two depending on your requirements
  17:../DaisyExamples/libDaisy//src/hid/audio.h ****  *             2. Initialize the Audio Handle with the desired settings and the Initialized SaiHand
  18:../DaisyExamples/libDaisy//src/hid/audio.h ****  *             3. If the connected codec requires special configuration or initialization, do so
  19:../DaisyExamples/libDaisy//src/hid/audio.h ****  *             4. Write a callback method using either the AudioCallback or the InterleavingAudioCa
  20:../DaisyExamples/libDaisy//src/hid/audio.h ****  *             5. Start the Audio using one of the StartAudio function
  21:../DaisyExamples/libDaisy//src/hid/audio.h ****  */
  22:../DaisyExamples/libDaisy//src/hid/audio.h **** class AudioHandle
  23:../DaisyExamples/libDaisy//src/hid/audio.h **** {
  24:../DaisyExamples/libDaisy//src/hid/audio.h ****   public:
  25:../DaisyExamples/libDaisy//src/hid/audio.h ****     /** Manually configurable details about the Audio Engine */
  26:../DaisyExamples/libDaisy//src/hid/audio.h ****     /** TODO: Figure out how to get samplerate in here. */
  27:../DaisyExamples/libDaisy//src/hid/audio.h ****     struct Config
  28:../DaisyExamples/libDaisy//src/hid/audio.h ****     {
  29:../DaisyExamples/libDaisy//src/hid/audio.h ****         /** number of samples to process per callback */
  30:../DaisyExamples/libDaisy//src/hid/audio.h ****         size_t blocksize;
  31:../DaisyExamples/libDaisy//src/hid/audio.h **** 
  32:../DaisyExamples/libDaisy//src/hid/audio.h ****         /**< Sample rate of audio */
  33:../DaisyExamples/libDaisy//src/hid/audio.h ****         SaiHandle::Config::SampleRate samplerate;
  34:../DaisyExamples/libDaisy//src/hid/audio.h **** 
  35:../DaisyExamples/libDaisy//src/hid/audio.h ****         /** factor for adjustment before and after callback for hardware that may have extra headro
  36:../DaisyExamples/libDaisy//src/hid/audio.h ****         float postgain;
  37:../DaisyExamples/libDaisy//src/hid/audio.h **** 
  38:../DaisyExamples/libDaisy//src/hid/audio.h ****         /** factor for additional one-sided compensation to audio path for hardware that may
  39:../DaisyExamples/libDaisy//src/hid/audio.h ****          *  have unequal input/output ranges
  40:../DaisyExamples/libDaisy//src/hid/audio.h ****          */
  41:../DaisyExamples/libDaisy//src/hid/audio.h ****         float output_compensation;
  42:../DaisyExamples/libDaisy//src/hid/audio.h **** 
  43:../DaisyExamples/libDaisy//src/hid/audio.h ****         /** Sets default values for config struct */
  44:../DaisyExamples/libDaisy//src/hid/audio.h ****         Config()
  45:../DaisyExamples/libDaisy//src/hid/audio.h ****         : blocksize(48),
  46:../DaisyExamples/libDaisy//src/hid/audio.h ****           samplerate(SaiHandle::Config::SampleRate::SAI_48KHZ),
  47:../DaisyExamples/libDaisy//src/hid/audio.h ****           postgain(1.f),
  48:../DaisyExamples/libDaisy//src/hid/audio.h ****           output_compensation(1.f)
  49:../DaisyExamples/libDaisy//src/hid/audio.h ****         {
  50:../DaisyExamples/libDaisy//src/hid/audio.h ****         }
  51:../DaisyExamples/libDaisy//src/hid/audio.h ****     };
  52:../DaisyExamples/libDaisy//src/hid/audio.h **** 
  53:../DaisyExamples/libDaisy//src/hid/audio.h ****     enum class Result
  54:../DaisyExamples/libDaisy//src/hid/audio.h ****     {
  55:../DaisyExamples/libDaisy//src/hid/audio.h ****         OK,
  56:../DaisyExamples/libDaisy//src/hid/audio.h ****         ERR,
  57:../DaisyExamples/libDaisy//src/hid/audio.h ****     };
  58:../DaisyExamples/libDaisy//src/hid/audio.h **** 
  59:../DaisyExamples/libDaisy//src/hid/audio.h ****     /** Non-Interleaving input buffer
  60:../DaisyExamples/libDaisy//src/hid/audio.h ****      * Buffer arranged by float[chn][sample] 
  61:../DaisyExamples/libDaisy//src/hid/audio.h ****      * const so that the user can't modify the input
  62:../DaisyExamples/libDaisy//src/hid/audio.h ****      */
  63:../DaisyExamples/libDaisy//src/hid/audio.h ****     typedef const float* const* InputBuffer;
  64:../DaisyExamples/libDaisy//src/hid/audio.h **** 
  65:../DaisyExamples/libDaisy//src/hid/audio.h ****     /** Non-Interleaving output buffer
  66:../DaisyExamples/libDaisy//src/hid/audio.h ****      * Arranged by float[chn][sample] 
  67:../DaisyExamples/libDaisy//src/hid/audio.h ****      */
  68:../DaisyExamples/libDaisy//src/hid/audio.h ****     typedef float** OutputBuffer;
  69:../DaisyExamples/libDaisy//src/hid/audio.h **** 
  70:../DaisyExamples/libDaisy//src/hid/audio.h ****     /** Type for a Non-Interleaving audio callback 
  71:../DaisyExamples/libDaisy//src/hid/audio.h ****      * Non-Interleaving audio callbacks in daisy will be of this type
  72:../DaisyExamples/libDaisy//src/hid/audio.h ****      */
ARM GAS  /var/folders/1_/rgbtf7293t93c5kflb58xcy40000gn/T//cchnO2o5.s 			page 43


  73:../DaisyExamples/libDaisy//src/hid/audio.h ****     typedef void (*AudioCallback)(InputBuffer  in,
  74:../DaisyExamples/libDaisy//src/hid/audio.h ****                                   OutputBuffer out,
  75:../DaisyExamples/libDaisy//src/hid/audio.h ****                                   size_t       size);
  76:../DaisyExamples/libDaisy//src/hid/audio.h **** 
  77:../DaisyExamples/libDaisy//src/hid/audio.h ****     /** Interleaving Input buffer
  78:../DaisyExamples/libDaisy//src/hid/audio.h ****      ** audio is prepared as { L0, R0, L1, R1, . . . LN, RN }]
  79:../DaisyExamples/libDaisy//src/hid/audio.h ****      ** this is const, as the user shouldn't modify it
  80:../DaisyExamples/libDaisy//src/hid/audio.h ****     */
  81:../DaisyExamples/libDaisy//src/hid/audio.h ****     typedef const float* InterleavingInputBuffer;
  82:../DaisyExamples/libDaisy//src/hid/audio.h **** 
  83:../DaisyExamples/libDaisy//src/hid/audio.h ****     /** Interleaving Output buffer 
  84:../DaisyExamples/libDaisy//src/hid/audio.h ****      ** audio is prepared as { L0, R0, L1, R1, . . . LN, RN }
  85:../DaisyExamples/libDaisy//src/hid/audio.h ****     */
  86:../DaisyExamples/libDaisy//src/hid/audio.h ****     typedef float* InterleavingOutputBuffer;
  87:../DaisyExamples/libDaisy//src/hid/audio.h **** 
  88:../DaisyExamples/libDaisy//src/hid/audio.h ****     /** Interleaving Audio Callback 
  89:../DaisyExamples/libDaisy//src/hid/audio.h ****      * Interleaving audio callbacks in daisy must be of this type
  90:../DaisyExamples/libDaisy//src/hid/audio.h ****      */
  91:../DaisyExamples/libDaisy//src/hid/audio.h ****     typedef void (*InterleavingAudioCallback)(InterleavingInputBuffer  in,
  92:../DaisyExamples/libDaisy//src/hid/audio.h ****                                               InterleavingOutputBuffer out,
  93:../DaisyExamples/libDaisy//src/hid/audio.h ****                                               size_t                   size);
  94:../DaisyExamples/libDaisy//src/hid/audio.h **** 
  95:../DaisyExamples/libDaisy//src/hid/audio.h ****     AudioHandle() : pimpl_(nullptr) {}
 827              		.loc 11 95 5
 828              		.cfi_startproc
 829              		@ args = 0, pretend = 0, frame = 8
 830              		@ frame_needed = 1, uses_anonymous_args = 0
 831              		@ link register save eliminated.
 832 0000 80B4     		push	{r7}
 833              		.cfi_def_cfa_offset 4
 834              		.cfi_offset 7, -4
 835 0002 83B0     		sub	sp, sp, #12
 836              		.cfi_def_cfa_offset 16
 837 0004 00AF     		add	r7, sp, #0
 838              		.cfi_def_cfa_register 7
 839 0006 7860     		str	r0, [r7, #4]
 840              	.LBB11:
 841              		.loc 11 95 35
 842 0008 7B68     		ldr	r3, [r7, #4]
 843 000a 0022     		movs	r2, #0
 844 000c 1A60     		str	r2, [r3]
 845              	.LBE11:
 846              		.loc 11 95 38
 847 000e 7B68     		ldr	r3, [r7, #4]
 848 0010 1846     		mov	r0, r3
 849 0012 0C37     		adds	r7, r7, #12
 850              		.cfi_def_cfa_offset 4
 851 0014 BD46     		mov	sp, r7
 852              		.cfi_def_cfa_register 13
 853              		@ sp needed
 854 0016 5DF8047B 		ldr	r7, [sp], #4
 855              		.cfi_restore 7
 856              		.cfi_def_cfa_offset 0
 857 001a 7047     		bx	lr
 858              		.cfi_endproc
 859              	.LFE3623:
 861              		.weak	_ZN5daisy11AudioHandleC1Ev
ARM GAS  /var/folders/1_/rgbtf7293t93c5kflb58xcy40000gn/T//cchnO2o5.s 			page 44


 862              		.thumb_set _ZN5daisy11AudioHandleC1Ev,_ZN5daisy11AudioHandleC2Ev
 863              		.section	.text._ZN5daisy11AudioHandleD2Ev,"axG",%progbits,_ZN5daisy11AudioHandleD5Ev,comdat
 864              		.align	1
 865              		.weak	_ZN5daisy11AudioHandleD2Ev
 866              		.syntax unified
 867              		.thumb
 868              		.thumb_func
 870              	_ZN5daisy11AudioHandleD2Ev:
 871              	.LFB3626:
  96:../DaisyExamples/libDaisy//src/hid/audio.h ****     ~AudioHandle() {}
 872              		.loc 11 96 5
 873              		.cfi_startproc
 874              		@ args = 0, pretend = 0, frame = 8
 875              		@ frame_needed = 1, uses_anonymous_args = 0
 876              		@ link register save eliminated.
 877 0000 80B4     		push	{r7}
 878              		.cfi_def_cfa_offset 4
 879              		.cfi_offset 7, -4
 880 0002 83B0     		sub	sp, sp, #12
 881              		.cfi_def_cfa_offset 16
 882 0004 00AF     		add	r7, sp, #0
 883              		.cfi_def_cfa_register 7
 884 0006 7860     		str	r0, [r7, #4]
 885              		.loc 11 96 21
 886 0008 7B68     		ldr	r3, [r7, #4]
 887 000a 1846     		mov	r0, r3
 888 000c 0C37     		adds	r7, r7, #12
 889              		.cfi_def_cfa_offset 4
 890 000e BD46     		mov	sp, r7
 891              		.cfi_def_cfa_register 13
 892              		@ sp needed
 893 0010 5DF8047B 		ldr	r7, [sp], #4
 894              		.cfi_restore 7
 895              		.cfi_def_cfa_offset 0
 896 0014 7047     		bx	lr
 897              		.cfi_endproc
 898              	.LFE3626:
 900              		.weak	_ZN5daisy11AudioHandleD1Ev
 901              		.thumb_set _ZN5daisy11AudioHandleD1Ev,_ZN5daisy11AudioHandleD2Ev
 902              		.section	.text._ZN5daisy9AdcHandleC2Ev,"axG",%progbits,_ZN5daisy9AdcHandleC5Ev,comdat
 903              		.align	1
 904              		.weak	_ZN5daisy9AdcHandleC2Ev
 905              		.syntax unified
 906              		.thumb
 907              		.thumb_func
 909              	_ZN5daisy9AdcHandleC2Ev:
 910              	.LFB3629:
 911              		.file 12 "../DaisyExamples/libDaisy//src/per/adc.h"
   1:../DaisyExamples/libDaisy//src/per/adc.h **** #pragma once
   2:../DaisyExamples/libDaisy//src/per/adc.h **** #ifndef DSY_ADC_H
   3:../DaisyExamples/libDaisy//src/per/adc.h **** #define DSY_ADC_H /**< Macro */
   4:../DaisyExamples/libDaisy//src/per/adc.h **** #include <stdint.h>
   5:../DaisyExamples/libDaisy//src/per/adc.h **** #include <stdlib.h>
   6:../DaisyExamples/libDaisy//src/per/adc.h **** #include "daisy_core.h"
   7:../DaisyExamples/libDaisy//src/per/adc.h **** #include "per/gpio.h"
   8:../DaisyExamples/libDaisy//src/per/adc.h **** 
   9:../DaisyExamples/libDaisy//src/per/adc.h **** #define DSY_ADC_MAX_CHANNELS 16 /**< Maximum number of ADC channels */
ARM GAS  /var/folders/1_/rgbtf7293t93c5kflb58xcy40000gn/T//cchnO2o5.s 			page 45


  10:../DaisyExamples/libDaisy//src/per/adc.h **** 
  11:../DaisyExamples/libDaisy//src/per/adc.h **** namespace daisy
  12:../DaisyExamples/libDaisy//src/per/adc.h **** {
  13:../DaisyExamples/libDaisy//src/per/adc.h **** /** @addtogroup per_analog
  14:../DaisyExamples/libDaisy//src/per/adc.h ****     @{
  15:../DaisyExamples/libDaisy//src/per/adc.h **** */
  16:../DaisyExamples/libDaisy//src/per/adc.h **** 
  17:../DaisyExamples/libDaisy//src/per/adc.h **** /* While there may not be many configuration options here,
  18:../DaisyExamples/libDaisy//src/per/adc.h **** using a struct like this allows us to add more configuration
  19:../DaisyExamples/libDaisy//src/per/adc.h **** later without breaking existing functionality.
  20:../DaisyExamples/libDaisy//src/per/adc.h **** */
  21:../DaisyExamples/libDaisy//src/per/adc.h **** 
  22:../DaisyExamples/libDaisy//src/per/adc.h **** /** @brief   Configuration Structure for an ADC Channel 
  23:../DaisyExamples/libDaisy//src/per/adc.h ****  *  @details This can be used to configure a a single input, 
  24:../DaisyExamples/libDaisy//src/per/adc.h ****  *           or a multiplexed input, allowing up to 8 inputs on 
  25:../DaisyExamples/libDaisy//src/per/adc.h ****  *           one channel.
  26:../DaisyExamples/libDaisy//src/per/adc.h ****  *  @note    Sharing data lines to multiple muxes _is_ possible, but
  27:../DaisyExamples/libDaisy//src/per/adc.h ****  *           each channel sharing data lines must be set to the maximum
  28:../DaisyExamples/libDaisy//src/per/adc.h ****  *           number of channels, even if some multiplexers have fewer
  29:../DaisyExamples/libDaisy//src/per/adc.h ****  *           inputs connected.
  30:../DaisyExamples/libDaisy//src/per/adc.h **** */
  31:../DaisyExamples/libDaisy//src/per/adc.h **** struct AdcChannelConfig
  32:../DaisyExamples/libDaisy//src/per/adc.h **** {
  33:../DaisyExamples/libDaisy//src/per/adc.h ****     /** Which pin to use for multiplexing */
  34:../DaisyExamples/libDaisy//src/per/adc.h ****     enum MuxPin
  35:../DaisyExamples/libDaisy//src/per/adc.h ****     {
  36:../DaisyExamples/libDaisy//src/per/adc.h ****         MUX_SEL_0,    /**< & */
  37:../DaisyExamples/libDaisy//src/per/adc.h ****         MUX_SEL_1,    /**< & */
  38:../DaisyExamples/libDaisy//src/per/adc.h ****         MUX_SEL_2,    /**< & */
  39:../DaisyExamples/libDaisy//src/per/adc.h ****         MUX_SEL_LAST, /**< & */
  40:../DaisyExamples/libDaisy//src/per/adc.h ****     };
  41:../DaisyExamples/libDaisy//src/per/adc.h **** 
  42:../DaisyExamples/libDaisy//src/per/adc.h ****     /** \brief per channel conversion speed added to fixed time based on bitdepth, etc. */
  43:../DaisyExamples/libDaisy//src/per/adc.h ****     enum ConversionSpeed
  44:../DaisyExamples/libDaisy//src/per/adc.h ****     {
  45:../DaisyExamples/libDaisy//src/per/adc.h ****         SPEED_1CYCLES_5,
  46:../DaisyExamples/libDaisy//src/per/adc.h ****         SPEED_2CYCLES_5,
  47:../DaisyExamples/libDaisy//src/per/adc.h ****         SPEED_8CYCLES_5,
  48:../DaisyExamples/libDaisy//src/per/adc.h ****         SPEED_16CYCLES_5,
  49:../DaisyExamples/libDaisy//src/per/adc.h ****         SPEED_32CYCLES_5,
  50:../DaisyExamples/libDaisy//src/per/adc.h ****         SPEED_64CYCLES_5,
  51:../DaisyExamples/libDaisy//src/per/adc.h ****         SPEED_387CYCLES_5,
  52:../DaisyExamples/libDaisy//src/per/adc.h ****         SPEED_810CYCLES_5,
  53:../DaisyExamples/libDaisy//src/per/adc.h ****     };
  54:../DaisyExamples/libDaisy//src/per/adc.h **** 
  55:../DaisyExamples/libDaisy//src/per/adc.h ****     /** Initializes a single ADC pin as an ADC. 
  56:../DaisyExamples/libDaisy//src/per/adc.h ****     \param pin Pin to init.
  57:../DaisyExamples/libDaisy//src/per/adc.h ****     \param speed conversion speed for this pin defaults to 8.5 cycles
  58:../DaisyExamples/libDaisy//src/per/adc.h ****      */
  59:../DaisyExamples/libDaisy//src/per/adc.h ****     void InitSingle(dsy_gpio_pin pin, ConversionSpeed speed = SPEED_8CYCLES_5);
  60:../DaisyExamples/libDaisy//src/per/adc.h **** 
  61:../DaisyExamples/libDaisy//src/per/adc.h ****     /** 
  62:../DaisyExamples/libDaisy//src/per/adc.h ****     Initializes a single ADC pin as a Multiplexed ADC.
  63:../DaisyExamples/libDaisy//src/per/adc.h ****     Requires a CD405X Multiplexer connected to the pin.
  64:../DaisyExamples/libDaisy//src/per/adc.h ****     You only need to supply the mux pins that are required,
  65:../DaisyExamples/libDaisy//src/per/adc.h ****     e.g. a 4052 mux would only require mux_0 and mux_1.
  66:../DaisyExamples/libDaisy//src/per/adc.h ****     Internal Callbacks handle the pin addressing.
ARM GAS  /var/folders/1_/rgbtf7293t93c5kflb58xcy40000gn/T//cchnO2o5.s 			page 46


  67:../DaisyExamples/libDaisy//src/per/adc.h ****     \param adc_pin &
  68:../DaisyExamples/libDaisy//src/per/adc.h ****     \param mux_channels must be 1-8
  69:../DaisyExamples/libDaisy//src/per/adc.h ****     \param mux_0 First mux pin
  70:../DaisyExamples/libDaisy//src/per/adc.h ****     \param mux_1 Second mux pin
  71:../DaisyExamples/libDaisy//src/per/adc.h ****     \param mux_2 Third mux pin
  72:../DaisyExamples/libDaisy//src/per/adc.h ****     \param speed conversion speed for this pin defaults to 8.5 cycles
  73:../DaisyExamples/libDaisy//src/per/adc.h ****     */
  74:../DaisyExamples/libDaisy//src/per/adc.h ****     void InitMux(dsy_gpio_pin    adc_pin,
  75:../DaisyExamples/libDaisy//src/per/adc.h ****                  size_t          mux_channels,
  76:../DaisyExamples/libDaisy//src/per/adc.h ****                  dsy_gpio_pin    mux_0,
  77:../DaisyExamples/libDaisy//src/per/adc.h ****                  dsy_gpio_pin    mux_1 = {DSY_GPIOX, 0},
  78:../DaisyExamples/libDaisy//src/per/adc.h ****                  dsy_gpio_pin    mux_2 = {DSY_GPIOX, 0},
  79:../DaisyExamples/libDaisy//src/per/adc.h ****                  ConversionSpeed speed = SPEED_8CYCLES_5);
  80:../DaisyExamples/libDaisy//src/per/adc.h **** 
  81:../DaisyExamples/libDaisy//src/per/adc.h ****     dsy_gpio        pin_;                   /**< & */
  82:../DaisyExamples/libDaisy//src/per/adc.h ****     dsy_gpio        mux_pin_[MUX_SEL_LAST]; /**< & */
  83:../DaisyExamples/libDaisy//src/per/adc.h ****     uint8_t         mux_channels_;          /**< & */
  84:../DaisyExamples/libDaisy//src/per/adc.h ****     ConversionSpeed speed_;
  85:../DaisyExamples/libDaisy//src/per/adc.h **** };
  86:../DaisyExamples/libDaisy//src/per/adc.h **** 
  87:../DaisyExamples/libDaisy//src/per/adc.h **** /**
  88:../DaisyExamples/libDaisy//src/per/adc.h ****    @brief Handler for analog to digital conversion
  89:../DaisyExamples/libDaisy//src/per/adc.h **** */
  90:../DaisyExamples/libDaisy//src/per/adc.h **** class AdcHandle
  91:../DaisyExamples/libDaisy//src/per/adc.h **** {
  92:../DaisyExamples/libDaisy//src/per/adc.h ****   public:
  93:../DaisyExamples/libDaisy//src/per/adc.h ****     /** Supported oversampling amounts */
  94:../DaisyExamples/libDaisy//src/per/adc.h ****     enum OverSampling
  95:../DaisyExamples/libDaisy//src/per/adc.h ****     {
  96:../DaisyExamples/libDaisy//src/per/adc.h ****         OVS_NONE, /**< & */
  97:../DaisyExamples/libDaisy//src/per/adc.h ****         OVS_4,    /**< & */
  98:../DaisyExamples/libDaisy//src/per/adc.h ****         OVS_8,    /**< & */
  99:../DaisyExamples/libDaisy//src/per/adc.h ****         OVS_16,   /**< & */
 100:../DaisyExamples/libDaisy//src/per/adc.h ****         OVS_32,   /**< & */
 101:../DaisyExamples/libDaisy//src/per/adc.h ****         OVS_64,   /**< & */
 102:../DaisyExamples/libDaisy//src/per/adc.h ****         OVS_128,  /**< & */
 103:../DaisyExamples/libDaisy//src/per/adc.h ****         OVS_256,  /**< & */
 104:../DaisyExamples/libDaisy//src/per/adc.h ****         OVS_512,  /**< & */
 105:../DaisyExamples/libDaisy//src/per/adc.h ****         OVS_1024, /**< & */
 106:../DaisyExamples/libDaisy//src/per/adc.h ****         OVS_LAST, /**< & */
 107:../DaisyExamples/libDaisy//src/per/adc.h ****     };
 108:../DaisyExamples/libDaisy//src/per/adc.h **** 
 109:../DaisyExamples/libDaisy//src/per/adc.h ****     AdcHandle() {}
 912              		.loc 12 109 5
 913              		.cfi_startproc
 914              		@ args = 0, pretend = 0, frame = 8
 915              		@ frame_needed = 1, uses_anonymous_args = 0
 916              		@ link register save eliminated.
 917 0000 80B4     		push	{r7}
 918              		.cfi_def_cfa_offset 4
 919              		.cfi_offset 7, -4
 920 0002 83B0     		sub	sp, sp, #12
 921              		.cfi_def_cfa_offset 16
 922 0004 00AF     		add	r7, sp, #0
 923              		.cfi_def_cfa_register 7
 924 0006 7860     		str	r0, [r7, #4]
 925              		.loc 12 109 18
ARM GAS  /var/folders/1_/rgbtf7293t93c5kflb58xcy40000gn/T//cchnO2o5.s 			page 47


 926 0008 7B68     		ldr	r3, [r7, #4]
 927 000a 1846     		mov	r0, r3
 928 000c 0C37     		adds	r7, r7, #12
 929              		.cfi_def_cfa_offset 4
 930 000e BD46     		mov	sp, r7
 931              		.cfi_def_cfa_register 13
 932              		@ sp needed
 933 0010 5DF8047B 		ldr	r7, [sp], #4
 934              		.cfi_restore 7
 935              		.cfi_def_cfa_offset 0
 936 0014 7047     		bx	lr
 937              		.cfi_endproc
 938              	.LFE3629:
 940              		.weak	_ZN5daisy9AdcHandleC1Ev
 941              		.thumb_set _ZN5daisy9AdcHandleC1Ev,_ZN5daisy9AdcHandleC2Ev
 942              		.section	.text._ZN5daisy9AdcHandleD2Ev,"axG",%progbits,_ZN5daisy9AdcHandleD5Ev,comdat
 943              		.align	1
 944              		.weak	_ZN5daisy9AdcHandleD2Ev
 945              		.syntax unified
 946              		.thumb
 947              		.thumb_func
 949              	_ZN5daisy9AdcHandleD2Ev:
 950              	.LFB3632:
 110:../DaisyExamples/libDaisy//src/per/adc.h ****     ~AdcHandle() {}
 951              		.loc 12 110 5
 952              		.cfi_startproc
 953              		@ args = 0, pretend = 0, frame = 8
 954              		@ frame_needed = 1, uses_anonymous_args = 0
 955              		@ link register save eliminated.
 956 0000 80B4     		push	{r7}
 957              		.cfi_def_cfa_offset 4
 958              		.cfi_offset 7, -4
 959 0002 83B0     		sub	sp, sp, #12
 960              		.cfi_def_cfa_offset 16
 961 0004 00AF     		add	r7, sp, #0
 962              		.cfi_def_cfa_register 7
 963 0006 7860     		str	r0, [r7, #4]
 964              		.loc 12 110 19
 965 0008 7B68     		ldr	r3, [r7, #4]
 966 000a 1846     		mov	r0, r3
 967 000c 0C37     		adds	r7, r7, #12
 968              		.cfi_def_cfa_offset 4
 969 000e BD46     		mov	sp, r7
 970              		.cfi_def_cfa_register 13
 971              		@ sp needed
 972 0010 5DF8047B 		ldr	r7, [sp], #4
 973              		.cfi_restore 7
 974              		.cfi_def_cfa_offset 0
 975 0014 7047     		bx	lr
 976              		.cfi_endproc
 977              	.LFE3632:
 979              		.weak	_ZN5daisy9AdcHandleD1Ev
 980              		.thumb_set _ZN5daisy9AdcHandleD1Ev,_ZN5daisy9AdcHandleD2Ev
 981              		.section	.text._ZN5daisy9UsbHandleC2Ev,"axG",%progbits,_ZN5daisy9UsbHandleC5Ev,comdat
 982              		.align	1
 983              		.weak	_ZN5daisy9UsbHandleC2Ev
 984              		.syntax unified
ARM GAS  /var/folders/1_/rgbtf7293t93c5kflb58xcy40000gn/T//cchnO2o5.s 			page 48


 985              		.thumb
 986              		.thumb_func
 988              	_ZN5daisy9UsbHandleC2Ev:
 989              	.LFB3724:
 990              		.file 13 "../DaisyExamples/libDaisy//src/hid/usb.h"
   1:../DaisyExamples/libDaisy//src/hid/usb.h **** #pragma once
   2:../DaisyExamples/libDaisy//src/hid/usb.h **** #ifndef DSY_HID_USB_H
   3:../DaisyExamples/libDaisy//src/hid/usb.h **** #define DSY_HID_USB_H
   4:../DaisyExamples/libDaisy//src/hid/usb.h **** #include <stdint.h>
   5:../DaisyExamples/libDaisy//src/hid/usb.h **** #include <stdlib.h>
   6:../DaisyExamples/libDaisy//src/hid/usb.h **** 
   7:../DaisyExamples/libDaisy//src/hid/usb.h **** namespace daisy
   8:../DaisyExamples/libDaisy//src/hid/usb.h **** /** @addtogroup human_interface
   9:../DaisyExamples/libDaisy//src/hid/usb.h ****     @{
  10:../DaisyExamples/libDaisy//src/hid/usb.h **** */
  11:../DaisyExamples/libDaisy//src/hid/usb.h **** 
  12:../DaisyExamples/libDaisy//src/hid/usb.h **** {
  13:../DaisyExamples/libDaisy//src/hid/usb.h **** /** 
  14:../DaisyExamples/libDaisy//src/hid/usb.h ****     @brief Interface for initializing and using the USB Peripherals on the daisy
  15:../DaisyExamples/libDaisy//src/hid/usb.h ****     @author Stephen Hensley
  16:../DaisyExamples/libDaisy//src/hid/usb.h ****     @date December 2019
  17:../DaisyExamples/libDaisy//src/hid/usb.h **** */
  18:../DaisyExamples/libDaisy//src/hid/usb.h **** class UsbHandle
  19:../DaisyExamples/libDaisy//src/hid/usb.h **** {
  20:../DaisyExamples/libDaisy//src/hid/usb.h ****   public:
  21:../DaisyExamples/libDaisy//src/hid/usb.h ****     /** Return values for USBHandle Functions */
  22:../DaisyExamples/libDaisy//src/hid/usb.h ****     enum class Result
  23:../DaisyExamples/libDaisy//src/hid/usb.h ****     {
  24:../DaisyExamples/libDaisy//src/hid/usb.h ****         OK,
  25:../DaisyExamples/libDaisy//src/hid/usb.h ****         ERR,
  26:../DaisyExamples/libDaisy//src/hid/usb.h ****     };
  27:../DaisyExamples/libDaisy//src/hid/usb.h **** 
  28:../DaisyExamples/libDaisy//src/hid/usb.h ****     /** Specified which of the two USB Peripherals to initialize. */
  29:../DaisyExamples/libDaisy//src/hid/usb.h ****     enum UsbPeriph
  30:../DaisyExamples/libDaisy//src/hid/usb.h ****     {
  31:../DaisyExamples/libDaisy//src/hid/usb.h ****         FS_INTERNAL, /**< Internal pin */
  32:../DaisyExamples/libDaisy//src/hid/usb.h ****         FS_EXTERNAL, /**< FS External D+ pin is Pin 38 (GPIO32). FS External D- pin is Pin 37 (GPIO
  33:../DaisyExamples/libDaisy//src/hid/usb.h ****         FS_BOTH,     /**< Both */
  34:../DaisyExamples/libDaisy//src/hid/usb.h ****     };
  35:../DaisyExamples/libDaisy//src/hid/usb.h **** 
  36:../DaisyExamples/libDaisy//src/hid/usb.h **** 
  37:../DaisyExamples/libDaisy//src/hid/usb.h ****     /** Function called upon reception of a buffer */
  38:../DaisyExamples/libDaisy//src/hid/usb.h ****     typedef void (*ReceiveCallback)(uint8_t* buff, uint32_t* len);
  39:../DaisyExamples/libDaisy//src/hid/usb.h **** 
  40:../DaisyExamples/libDaisy//src/hid/usb.h ****     UsbHandle() {}
 991              		.loc 13 40 5
 992              		.cfi_startproc
 993              		@ args = 0, pretend = 0, frame = 8
 994              		@ frame_needed = 1, uses_anonymous_args = 0
 995              		@ link register save eliminated.
 996 0000 80B4     		push	{r7}
 997              		.cfi_def_cfa_offset 4
 998              		.cfi_offset 7, -4
 999 0002 83B0     		sub	sp, sp, #12
 1000              		.cfi_def_cfa_offset 16
 1001 0004 00AF     		add	r7, sp, #0
 1002              		.cfi_def_cfa_register 7
ARM GAS  /var/folders/1_/rgbtf7293t93c5kflb58xcy40000gn/T//cchnO2o5.s 			page 49


 1003 0006 7860     		str	r0, [r7, #4]
 1004              		.loc 13 40 18
 1005 0008 7B68     		ldr	r3, [r7, #4]
 1006 000a 1846     		mov	r0, r3
 1007 000c 0C37     		adds	r7, r7, #12
 1008              		.cfi_def_cfa_offset 4
 1009 000e BD46     		mov	sp, r7
 1010              		.cfi_def_cfa_register 13
 1011              		@ sp needed
 1012 0010 5DF8047B 		ldr	r7, [sp], #4
 1013              		.cfi_restore 7
 1014              		.cfi_def_cfa_offset 0
 1015 0014 7047     		bx	lr
 1016              		.cfi_endproc
 1017              	.LFE3724:
 1019              		.weak	_ZN5daisy9UsbHandleC1Ev
 1020              		.thumb_set _ZN5daisy9UsbHandleC1Ev,_ZN5daisy9UsbHandleC2Ev
 1021              		.section	.text._ZN5daisy9UsbHandleD2Ev,"axG",%progbits,_ZN5daisy9UsbHandleD5Ev,comdat
 1022              		.align	1
 1023              		.weak	_ZN5daisy9UsbHandleD2Ev
 1024              		.syntax unified
 1025              		.thumb
 1026              		.thumb_func
 1028              	_ZN5daisy9UsbHandleD2Ev:
 1029              	.LFB3727:
  41:../DaisyExamples/libDaisy//src/hid/usb.h **** 
  42:../DaisyExamples/libDaisy//src/hid/usb.h ****     ~UsbHandle() {}
 1030              		.loc 13 42 5
 1031              		.cfi_startproc
 1032              		@ args = 0, pretend = 0, frame = 8
 1033              		@ frame_needed = 1, uses_anonymous_args = 0
 1034              		@ link register save eliminated.
 1035 0000 80B4     		push	{r7}
 1036              		.cfi_def_cfa_offset 4
 1037              		.cfi_offset 7, -4
 1038 0002 83B0     		sub	sp, sp, #12
 1039              		.cfi_def_cfa_offset 16
 1040 0004 00AF     		add	r7, sp, #0
 1041              		.cfi_def_cfa_register 7
 1042 0006 7860     		str	r0, [r7, #4]
 1043              		.loc 13 42 19
 1044 0008 7B68     		ldr	r3, [r7, #4]
 1045 000a 1846     		mov	r0, r3
 1046 000c 0C37     		adds	r7, r7, #12
 1047              		.cfi_def_cfa_offset 4
 1048 000e BD46     		mov	sp, r7
 1049              		.cfi_def_cfa_register 13
 1050              		@ sp needed
 1051 0010 5DF8047B 		ldr	r7, [sp], #4
 1052              		.cfi_restore 7
 1053              		.cfi_def_cfa_offset 0
 1054 0014 7047     		bx	lr
 1055              		.cfi_endproc
 1056              	.LFE3727:
 1058              		.weak	_ZN5daisy9UsbHandleD1Ev
 1059              		.thumb_set _ZN5daisy9UsbHandleD1Ev,_ZN5daisy9UsbHandleD2Ev
 1060              		.section	.text._ZN5daisy13AnalogControlC2Ev,"axG",%progbits,_ZN5daisy13AnalogControlC5Ev,comdat
ARM GAS  /var/folders/1_/rgbtf7293t93c5kflb58xcy40000gn/T//cchnO2o5.s 			page 50


 1061              		.align	1
 1062              		.weak	_ZN5daisy13AnalogControlC2Ev
 1063              		.syntax unified
 1064              		.thumb
 1065              		.thumb_func
 1067              	_ZN5daisy13AnalogControlC2Ev:
 1068              	.LFB3793:
 1069              		.file 14 "../DaisyExamples/libDaisy//src/hid/ctrl.h"
   1:../DaisyExamples/libDaisy//src/hid/ctrl.h **** #pragma once
   2:../DaisyExamples/libDaisy//src/hid/ctrl.h **** #ifndef DSY_KNOB_H
   3:../DaisyExamples/libDaisy//src/hid/ctrl.h **** #define DSY_KNOB_H /**< & */
   4:../DaisyExamples/libDaisy//src/hid/ctrl.h **** #include <stdint.h>
   5:../DaisyExamples/libDaisy//src/hid/ctrl.h **** 
   6:../DaisyExamples/libDaisy//src/hid/ctrl.h **** #ifdef __cplusplus
   7:../DaisyExamples/libDaisy//src/hid/ctrl.h **** namespace daisy
   8:../DaisyExamples/libDaisy//src/hid/ctrl.h **** {
   9:../DaisyExamples/libDaisy//src/hid/ctrl.h **** /**
  10:../DaisyExamples/libDaisy//src/hid/ctrl.h ****     @brief Hardware Interface for control inputs \n 
  11:../DaisyExamples/libDaisy//src/hid/ctrl.h ****     Primarily designed for ADC input controls such as \n 
  12:../DaisyExamples/libDaisy//src/hid/ctrl.h ****     potentiometers, and control voltage. \n 
  13:../DaisyExamples/libDaisy//src/hid/ctrl.h ****     @author Stephen Hensley
  14:../DaisyExamples/libDaisy//src/hid/ctrl.h ****     @date November 2019
  15:../DaisyExamples/libDaisy//src/hid/ctrl.h ****     @ingroup controls
  16:../DaisyExamples/libDaisy//src/hid/ctrl.h **** */
  17:../DaisyExamples/libDaisy//src/hid/ctrl.h **** class AnalogControl
  18:../DaisyExamples/libDaisy//src/hid/ctrl.h **** {
  19:../DaisyExamples/libDaisy//src/hid/ctrl.h ****   public:
  20:../DaisyExamples/libDaisy//src/hid/ctrl.h ****     /** Constructor */
  21:../DaisyExamples/libDaisy//src/hid/ctrl.h ****     AnalogControl() {}
 1070              		.loc 14 21 5
 1071              		.cfi_startproc
 1072              		@ args = 0, pretend = 0, frame = 8
 1073              		@ frame_needed = 1, uses_anonymous_args = 0
 1074              		@ link register save eliminated.
 1075 0000 80B4     		push	{r7}
 1076              		.cfi_def_cfa_offset 4
 1077              		.cfi_offset 7, -4
 1078 0002 83B0     		sub	sp, sp, #12
 1079              		.cfi_def_cfa_offset 16
 1080 0004 00AF     		add	r7, sp, #0
 1081              		.cfi_def_cfa_register 7
 1082 0006 7860     		str	r0, [r7, #4]
 1083              		.loc 14 21 22
 1084 0008 7B68     		ldr	r3, [r7, #4]
 1085 000a 1846     		mov	r0, r3
 1086 000c 0C37     		adds	r7, r7, #12
 1087              		.cfi_def_cfa_offset 4
 1088 000e BD46     		mov	sp, r7
 1089              		.cfi_def_cfa_register 13
 1090              		@ sp needed
 1091 0010 5DF8047B 		ldr	r7, [sp], #4
 1092              		.cfi_restore 7
 1093              		.cfi_def_cfa_offset 0
 1094 0014 7047     		bx	lr
 1095              		.cfi_endproc
 1096              	.LFE3793:
 1098              		.weak	_ZN5daisy13AnalogControlC1Ev
ARM GAS  /var/folders/1_/rgbtf7293t93c5kflb58xcy40000gn/T//cchnO2o5.s 			page 51


 1099              		.thumb_set _ZN5daisy13AnalogControlC1Ev,_ZN5daisy13AnalogControlC2Ev
 1100              		.section	.text._ZN5daisy13AnalogControlD2Ev,"axG",%progbits,_ZN5daisy13AnalogControlD5Ev,comdat
 1101              		.align	1
 1102              		.weak	_ZN5daisy13AnalogControlD2Ev
 1103              		.syntax unified
 1104              		.thumb
 1105              		.thumb_func
 1107              	_ZN5daisy13AnalogControlD2Ev:
 1108              	.LFB3796:
  22:../DaisyExamples/libDaisy//src/hid/ctrl.h ****     /** destructor */
  23:../DaisyExamples/libDaisy//src/hid/ctrl.h ****     ~AnalogControl() {}
 1109              		.loc 14 23 5
 1110              		.cfi_startproc
 1111              		@ args = 0, pretend = 0, frame = 8
 1112              		@ frame_needed = 1, uses_anonymous_args = 0
 1113              		@ link register save eliminated.
 1114 0000 80B4     		push	{r7}
 1115              		.cfi_def_cfa_offset 4
 1116              		.cfi_offset 7, -4
 1117 0002 83B0     		sub	sp, sp, #12
 1118              		.cfi_def_cfa_offset 16
 1119 0004 00AF     		add	r7, sp, #0
 1120              		.cfi_def_cfa_register 7
 1121 0006 7860     		str	r0, [r7, #4]
 1122              		.loc 14 23 23
 1123 0008 7B68     		ldr	r3, [r7, #4]
 1124 000a 1846     		mov	r0, r3
 1125 000c 0C37     		adds	r7, r7, #12
 1126              		.cfi_def_cfa_offset 4
 1127 000e BD46     		mov	sp, r7
 1128              		.cfi_def_cfa_register 13
 1129              		@ sp needed
 1130 0010 5DF8047B 		ldr	r7, [sp], #4
 1131              		.cfi_restore 7
 1132              		.cfi_def_cfa_offset 0
 1133 0014 7047     		bx	lr
 1134              		.cfi_endproc
 1135              	.LFE3796:
 1137              		.weak	_ZN5daisy13AnalogControlD1Ev
 1138              		.thumb_set _ZN5daisy13AnalogControlD1Ev,_ZN5daisy13AnalogControlD2Ev
 1139              		.section	.text._ZN5daisy6GateInC2Ev,"axG",%progbits,_ZN5daisy6GateInC5Ev,comdat
 1140              		.align	1
 1141              		.weak	_ZN5daisy6GateInC2Ev
 1142              		.syntax unified
 1143              		.thumb
 1144              		.thumb_func
 1146              	_ZN5daisy6GateInC2Ev:
 1147              	.LFB3803:
 1148              		.file 15 "../DaisyExamples/libDaisy//src/hid/gatein.h"
   1:../DaisyExamples/libDaisy//src/hid/gatein.h **** #pragma once
   2:../DaisyExamples/libDaisy//src/hid/gatein.h **** #ifndef DSY_GATEIN_H
   3:../DaisyExamples/libDaisy//src/hid/gatein.h **** #define DSY_GATEIN_H
   4:../DaisyExamples/libDaisy//src/hid/gatein.h **** #include "per/gpio.h"
   5:../DaisyExamples/libDaisy//src/hid/gatein.h **** 
   6:../DaisyExamples/libDaisy//src/hid/gatein.h **** namespace daisy
   7:../DaisyExamples/libDaisy//src/hid/gatein.h **** {
   8:../DaisyExamples/libDaisy//src/hid/gatein.h **** /**
ARM GAS  /var/folders/1_/rgbtf7293t93c5kflb58xcy40000gn/T//cchnO2o5.s 			page 52


   9:../DaisyExamples/libDaisy//src/hid/gatein.h ****    @brief Generic Class for handling gate inputs through GPIO.
  10:../DaisyExamples/libDaisy//src/hid/gatein.h ****    @author Stephen Hensley
  11:../DaisyExamples/libDaisy//src/hid/gatein.h ****    @date    March 2020
  12:../DaisyExamples/libDaisy//src/hid/gatein.h ****    @ingroup controls
  13:../DaisyExamples/libDaisy//src/hid/gatein.h **** */
  14:../DaisyExamples/libDaisy//src/hid/gatein.h **** class GateIn
  15:../DaisyExamples/libDaisy//src/hid/gatein.h **** {
  16:../DaisyExamples/libDaisy//src/hid/gatein.h ****   public:
  17:../DaisyExamples/libDaisy//src/hid/gatein.h ****     /** GateIn Constructor */
  18:../DaisyExamples/libDaisy//src/hid/gatein.h ****     GateIn() {}
 1149              		.loc 15 18 5
 1150              		.cfi_startproc
 1151              		@ args = 0, pretend = 0, frame = 8
 1152              		@ frame_needed = 1, uses_anonymous_args = 0
 1153 0000 80B5     		push	{r7, lr}
 1154              		.cfi_def_cfa_offset 8
 1155              		.cfi_offset 7, -8
 1156              		.cfi_offset 14, -4
 1157 0002 82B0     		sub	sp, sp, #8
 1158              		.cfi_def_cfa_offset 16
 1159 0004 00AF     		add	r7, sp, #0
 1160              		.cfi_def_cfa_register 7
 1161 0006 7860     		str	r0, [r7, #4]
 1162              	.LBB12:
 1163              		.loc 15 18 14
 1164 0008 7B68     		ldr	r3, [r7, #4]
 1165 000a 1846     		mov	r0, r3
 1166 000c FFF7FEFF 		bl	_ZN5daisy4GPIOC1Ev
 1167              	.LBE12:
 1168              		.loc 15 18 15
 1169 0010 7B68     		ldr	r3, [r7, #4]
 1170 0012 1846     		mov	r0, r3
 1171 0014 0837     		adds	r7, r7, #8
 1172              		.cfi_def_cfa_offset 8
 1173 0016 BD46     		mov	sp, r7
 1174              		.cfi_def_cfa_register 13
 1175              		@ sp needed
 1176 0018 80BD     		pop	{r7, pc}
 1177              		.cfi_endproc
 1178              	.LFE3803:
 1180              		.weak	_ZN5daisy6GateInC1Ev
 1181              		.thumb_set _ZN5daisy6GateInC1Ev,_ZN5daisy6GateInC2Ev
 1182              		.section	.text._ZN5daisy6GateInD2Ev,"axG",%progbits,_ZN5daisy6GateInD5Ev,comdat
 1183              		.align	1
 1184              		.weak	_ZN5daisy6GateInD2Ev
 1185              		.syntax unified
 1186              		.thumb
 1187              		.thumb_func
 1189              	_ZN5daisy6GateInD2Ev:
 1190              	.LFB3806:
  19:../DaisyExamples/libDaisy//src/hid/gatein.h **** 
  20:../DaisyExamples/libDaisy//src/hid/gatein.h ****     /** GateIn Destructor */
  21:../DaisyExamples/libDaisy//src/hid/gatein.h ****     ~GateIn() {}
 1191              		.loc 15 21 5
 1192              		.cfi_startproc
 1193              		@ args = 0, pretend = 0, frame = 8
 1194              		@ frame_needed = 1, uses_anonymous_args = 0
ARM GAS  /var/folders/1_/rgbtf7293t93c5kflb58xcy40000gn/T//cchnO2o5.s 			page 53


 1195              		@ link register save eliminated.
 1196 0000 80B4     		push	{r7}
 1197              		.cfi_def_cfa_offset 4
 1198              		.cfi_offset 7, -4
 1199 0002 83B0     		sub	sp, sp, #12
 1200              		.cfi_def_cfa_offset 16
 1201 0004 00AF     		add	r7, sp, #0
 1202              		.cfi_def_cfa_register 7
 1203 0006 7860     		str	r0, [r7, #4]
 1204              		.loc 15 21 16
 1205 0008 7B68     		ldr	r3, [r7, #4]
 1206 000a 1846     		mov	r0, r3
 1207 000c 0C37     		adds	r7, r7, #12
 1208              		.cfi_def_cfa_offset 4
 1209 000e BD46     		mov	sp, r7
 1210              		.cfi_def_cfa_register 13
 1211              		@ sp needed
 1212 0010 5DF8047B 		ldr	r7, [sp], #4
 1213              		.cfi_restore 7
 1214              		.cfi_def_cfa_offset 0
 1215 0014 7047     		bx	lr
 1216              		.cfi_endproc
 1217              	.LFE3806:
 1219              		.weak	_ZN5daisy6GateInD1Ev
 1220              		.thumb_set _ZN5daisy6GateInD1Ev,_ZN5daisy6GateInD2Ev
 1221              		.section	.rodata._ZN5daisyL15kWavFileChunkIdE,"a"
 1222              		.align	2
 1225              	_ZN5daisyL15kWavFileChunkIdE:
 1226 0000 52494646 		.word	1179011410
 1227              		.section	.rodata._ZN5daisyL14kWavFileWaveIdE,"a"
 1228              		.align	2
 1231              	_ZN5daisyL14kWavFileWaveIdE:
 1232 0000 57415645 		.word	1163280727
 1233              		.section	.rodata._ZN5daisyL19kWavFileSubChunk1IdE,"a"
 1234              		.align	2
 1237              	_ZN5daisyL19kWavFileSubChunk1IdE:
 1238 0000 666D7420 		.word	544501094
 1239              		.section	.rodata._ZN5daisyL19kWavFileSubChunk2IdE,"a"
 1240              		.align	2
 1243              	_ZN5daisyL19kWavFileSubChunk2IdE:
 1244 0000 64617461 		.word	1635017060
 1245              		.section	.rodata._ZL19kMaxSr595DaisyChain,"a"
 1246              		.align	2
 1249              	_ZL19kMaxSr595DaisyChain:
 1250 0000 10000000 		.word	16
 1251              		.section	.text._ZN5daisy7Pcm3060C2Ev,"axG",%progbits,_ZN5daisy7Pcm3060C5Ev,comdat
 1252              		.align	1
 1253              		.weak	_ZN5daisy7Pcm3060C2Ev
 1254              		.syntax unified
 1255              		.thumb
 1256              		.thumb_func
 1258              	_ZN5daisy7Pcm3060C2Ev:
 1259              	.LFB4061:
 1260              		.file 16 "../DaisyExamples/libDaisy//src/dev/codec_pcm3060.h"
   1:../DaisyExamples/libDaisy//src/dev/codec_pcm3060.h **** #pragma once
   2:../DaisyExamples/libDaisy//src/dev/codec_pcm3060.h **** #ifndef DSY_CODEC_PCM3060_H
   3:../DaisyExamples/libDaisy//src/dev/codec_pcm3060.h **** #define DSY_CODEC_PCM3060_H
ARM GAS  /var/folders/1_/rgbtf7293t93c5kflb58xcy40000gn/T//cchnO2o5.s 			page 54


   4:../DaisyExamples/libDaisy//src/dev/codec_pcm3060.h **** #include "per/i2c.h"
   5:../DaisyExamples/libDaisy//src/dev/codec_pcm3060.h **** namespace daisy
   6:../DaisyExamples/libDaisy//src/dev/codec_pcm3060.h **** {
   7:../DaisyExamples/libDaisy//src/dev/codec_pcm3060.h **** /**
   8:../DaisyExamples/libDaisy//src/dev/codec_pcm3060.h ****  * @brief Driver for the TI PCM3060 Audio Codec.
   9:../DaisyExamples/libDaisy//src/dev/codec_pcm3060.h ****  * @addtogroup codec
  10:../DaisyExamples/libDaisy//src/dev/codec_pcm3060.h ****  * 
  11:../DaisyExamples/libDaisy//src/dev/codec_pcm3060.h ****  * For now this is a limited interface that uses I2C to communicate with the PCM3060
  12:../DaisyExamples/libDaisy//src/dev/codec_pcm3060.h ****  * The device can also be accessed with SPI, which is not yet supported.
  13:../DaisyExamples/libDaisy//src/dev/codec_pcm3060.h ****  * 
  14:../DaisyExamples/libDaisy//src/dev/codec_pcm3060.h ****  * For now all registers are set to their defaults, and the Init function will 
  15:../DaisyExamples/libDaisy//src/dev/codec_pcm3060.h ****  * perform a MRST and SRST before setting the format to 24bit LJ, and disabling 
  16:../DaisyExamples/libDaisy//src/dev/codec_pcm3060.h ****  * power save for both the ADC and DAC.
  17:../DaisyExamples/libDaisy//src/dev/codec_pcm3060.h ****  *
  18:../DaisyExamples/libDaisy//src/dev/codec_pcm3060.h ****  */
  19:../DaisyExamples/libDaisy//src/dev/codec_pcm3060.h **** class Pcm3060
  20:../DaisyExamples/libDaisy//src/dev/codec_pcm3060.h **** {
  21:../DaisyExamples/libDaisy//src/dev/codec_pcm3060.h ****   public:
  22:../DaisyExamples/libDaisy//src/dev/codec_pcm3060.h ****     enum class Result
  23:../DaisyExamples/libDaisy//src/dev/codec_pcm3060.h ****     {
  24:../DaisyExamples/libDaisy//src/dev/codec_pcm3060.h ****         OK,
  25:../DaisyExamples/libDaisy//src/dev/codec_pcm3060.h ****         ERR,
  26:../DaisyExamples/libDaisy//src/dev/codec_pcm3060.h ****     };
  27:../DaisyExamples/libDaisy//src/dev/codec_pcm3060.h **** 
  28:../DaisyExamples/libDaisy//src/dev/codec_pcm3060.h ****     Pcm3060() {}
 1261              		.loc 16 28 5
 1262              		.cfi_startproc
 1263              		@ args = 0, pretend = 0, frame = 8
 1264              		@ frame_needed = 1, uses_anonymous_args = 0
 1265 0000 80B5     		push	{r7, lr}
 1266              		.cfi_def_cfa_offset 8
 1267              		.cfi_offset 7, -8
 1268              		.cfi_offset 14, -4
 1269 0002 82B0     		sub	sp, sp, #8
 1270              		.cfi_def_cfa_offset 16
 1271 0004 00AF     		add	r7, sp, #0
 1272              		.cfi_def_cfa_register 7
 1273 0006 7860     		str	r0, [r7, #4]
 1274              	.LBB13:
 1275              		.loc 16 28 15
 1276 0008 7B68     		ldr	r3, [r7, #4]
 1277 000a 1846     		mov	r0, r3
 1278 000c FFF7FEFF 		bl	_ZN5daisy9I2CHandleC1Ev
 1279              	.LBE13:
 1280              		.loc 16 28 16
 1281 0010 7B68     		ldr	r3, [r7, #4]
 1282 0012 1846     		mov	r0, r3
 1283 0014 0837     		adds	r7, r7, #8
 1284              		.cfi_def_cfa_offset 8
 1285 0016 BD46     		mov	sp, r7
 1286              		.cfi_def_cfa_register 13
 1287              		@ sp needed
 1288 0018 80BD     		pop	{r7, pc}
 1289              		.cfi_endproc
 1290              	.LFE4061:
 1292              		.weak	_ZN5daisy7Pcm3060C1Ev
 1293              		.thumb_set _ZN5daisy7Pcm3060C1Ev,_ZN5daisy7Pcm3060C2Ev
ARM GAS  /var/folders/1_/rgbtf7293t93c5kflb58xcy40000gn/T//cchnO2o5.s 			page 55


 1294              		.section	.text._ZN5daisy7Pcm3060D2Ev,"axG",%progbits,_ZN5daisy7Pcm3060D5Ev,comdat
 1295              		.align	1
 1296              		.weak	_ZN5daisy7Pcm3060D2Ev
 1297              		.syntax unified
 1298              		.thumb
 1299              		.thumb_func
 1301              	_ZN5daisy7Pcm3060D2Ev:
 1302              	.LFB4064:
  29:../DaisyExamples/libDaisy//src/dev/codec_pcm3060.h ****     ~Pcm3060() {}
 1303              		.loc 16 29 5
 1304              		.cfi_startproc
 1305              		@ args = 0, pretend = 0, frame = 8
 1306              		@ frame_needed = 1, uses_anonymous_args = 0
 1307              		@ link register save eliminated.
 1308 0000 80B4     		push	{r7}
 1309              		.cfi_def_cfa_offset 4
 1310              		.cfi_offset 7, -4
 1311 0002 83B0     		sub	sp, sp, #12
 1312              		.cfi_def_cfa_offset 16
 1313 0004 00AF     		add	r7, sp, #0
 1314              		.cfi_def_cfa_register 7
 1315 0006 7860     		str	r0, [r7, #4]
 1316              		.loc 16 29 17
 1317 0008 7B68     		ldr	r3, [r7, #4]
 1318 000a 1846     		mov	r0, r3
 1319 000c 0C37     		adds	r7, r7, #12
 1320              		.cfi_def_cfa_offset 4
 1321 000e BD46     		mov	sp, r7
 1322              		.cfi_def_cfa_register 13
 1323              		@ sp needed
 1324 0010 5DF8047B 		ldr	r7, [sp], #4
 1325              		.cfi_restore 7
 1326              		.cfi_def_cfa_offset 0
 1327 0014 7047     		bx	lr
 1328              		.cfi_endproc
 1329              	.LFE4064:
 1331              		.weak	_ZN5daisy7Pcm3060D1Ev
 1332              		.thumb_set _ZN5daisy7Pcm3060D1Ev,_ZN5daisy7Pcm3060D2Ev
 1333              		.section	.text._ZN5daisy8patch_sm12DaisyPatchSMC2Ev,"axG",%progbits,_ZN5daisy8patch_sm12DaisyPatch
 1334              		.align	1
 1335              		.weak	_ZN5daisy8patch_sm12DaisyPatchSMC2Ev
 1336              		.syntax unified
 1337              		.thumb
 1338              		.thumb_func
 1340              	_ZN5daisy8patch_sm12DaisyPatchSMC2Ev:
 1341              	.LFB4671:
 1342              		.file 17 "../DaisyExamples/libDaisy//src/daisy_patch_sm.h"
   1:../DaisyExamples/libDaisy//src/daisy_patch_sm.h **** #pragma once
   2:../DaisyExamples/libDaisy//src/daisy_patch_sm.h **** 
   3:../DaisyExamples/libDaisy//src/daisy_patch_sm.h **** #include "daisy.h"
   4:../DaisyExamples/libDaisy//src/daisy_patch_sm.h **** 
   5:../DaisyExamples/libDaisy//src/daisy_patch_sm.h **** namespace daisy
   6:../DaisyExamples/libDaisy//src/daisy_patch_sm.h **** {
   7:../DaisyExamples/libDaisy//src/daisy_patch_sm.h **** namespace patch_sm
   8:../DaisyExamples/libDaisy//src/daisy_patch_sm.h **** {
   9:../DaisyExamples/libDaisy//src/daisy_patch_sm.h ****     /** Accessors for the Analog Controls. 
  10:../DaisyExamples/libDaisy//src/daisy_patch_sm.h ****      *  These cover the 8x Bipolar CV inputs
ARM GAS  /var/folders/1_/rgbtf7293t93c5kflb58xcy40000gn/T//cchnO2o5.s 			page 56


  11:../DaisyExamples/libDaisy//src/daisy_patch_sm.h ****      *  as well as the 4x 0-3V3 ADC inputs on
  12:../DaisyExamples/libDaisy//src/daisy_patch_sm.h ****      *  the hardware 
  13:../DaisyExamples/libDaisy//src/daisy_patch_sm.h ****      * 
  14:../DaisyExamples/libDaisy//src/daisy_patch_sm.h ****      *  When reading a value with DaisyPatchSM::GetAdcValue()
  15:../DaisyExamples/libDaisy//src/daisy_patch_sm.h ****      * 
  16:../DaisyExamples/libDaisy//src/daisy_patch_sm.h ****      *  patch.GetAdcValue(patch_sm::CV_1);
  17:../DaisyExamples/libDaisy//src/daisy_patch_sm.h ****      */
  18:../DaisyExamples/libDaisy//src/daisy_patch_sm.h ****     enum
  19:../DaisyExamples/libDaisy//src/daisy_patch_sm.h ****     {
  20:../DaisyExamples/libDaisy//src/daisy_patch_sm.h ****         CV_1 = 0,
  21:../DaisyExamples/libDaisy//src/daisy_patch_sm.h ****         CV_2,
  22:../DaisyExamples/libDaisy//src/daisy_patch_sm.h ****         CV_3,
  23:../DaisyExamples/libDaisy//src/daisy_patch_sm.h ****         CV_4,
  24:../DaisyExamples/libDaisy//src/daisy_patch_sm.h ****         CV_5,
  25:../DaisyExamples/libDaisy//src/daisy_patch_sm.h ****         CV_6,
  26:../DaisyExamples/libDaisy//src/daisy_patch_sm.h ****         CV_7,
  27:../DaisyExamples/libDaisy//src/daisy_patch_sm.h ****         CV_8,
  28:../DaisyExamples/libDaisy//src/daisy_patch_sm.h ****         ADC_9,
  29:../DaisyExamples/libDaisy//src/daisy_patch_sm.h ****         ADC_10,
  30:../DaisyExamples/libDaisy//src/daisy_patch_sm.h ****         ADC_11,
  31:../DaisyExamples/libDaisy//src/daisy_patch_sm.h ****         ADC_12,
  32:../DaisyExamples/libDaisy//src/daisy_patch_sm.h ****         ADC_LAST,
  33:../DaisyExamples/libDaisy//src/daisy_patch_sm.h ****     };
  34:../DaisyExamples/libDaisy//src/daisy_patch_sm.h **** 
  35:../DaisyExamples/libDaisy//src/daisy_patch_sm.h ****     /** Enum for addressing the CV Outputs via the WriteCvOut function. */
  36:../DaisyExamples/libDaisy//src/daisy_patch_sm.h ****     enum
  37:../DaisyExamples/libDaisy//src/daisy_patch_sm.h ****     {
  38:../DaisyExamples/libDaisy//src/daisy_patch_sm.h ****         CV_OUT_BOTH = 0,
  39:../DaisyExamples/libDaisy//src/daisy_patch_sm.h ****         CV_OUT_1,
  40:../DaisyExamples/libDaisy//src/daisy_patch_sm.h ****         CV_OUT_2,
  41:../DaisyExamples/libDaisy//src/daisy_patch_sm.h ****     };
  42:../DaisyExamples/libDaisy//src/daisy_patch_sm.h **** 
  43:../DaisyExamples/libDaisy//src/daisy_patch_sm.h **** 
  44:../DaisyExamples/libDaisy//src/daisy_patch_sm.h ****     /** @brief Board support file for DaisyPatchSM hardware
  45:../DaisyExamples/libDaisy//src/daisy_patch_sm.h ****      *  @author shensley
  46:../DaisyExamples/libDaisy//src/daisy_patch_sm.h ****      *  @ingroup boards
  47:../DaisyExamples/libDaisy//src/daisy_patch_sm.h ****      * 
  48:../DaisyExamples/libDaisy//src/daisy_patch_sm.h ****      *  Daisy Patch SM is a complete Eurorack module DSP engine.
  49:../DaisyExamples/libDaisy//src/daisy_patch_sm.h ****      *  Based on the Daisy Seed, with circuits added for 
  50:../DaisyExamples/libDaisy//src/daisy_patch_sm.h ****      *  interfacing directly with eurorack modular synthesizers.
  51:../DaisyExamples/libDaisy//src/daisy_patch_sm.h ****      */
  52:../DaisyExamples/libDaisy//src/daisy_patch_sm.h ****     class DaisyPatchSM
  53:../DaisyExamples/libDaisy//src/daisy_patch_sm.h ****     {
  54:../DaisyExamples/libDaisy//src/daisy_patch_sm.h ****       public:
  55:../DaisyExamples/libDaisy//src/daisy_patch_sm.h ****         /** Helper for mapping pins, and accessing them using the `GetPin` function */
  56:../DaisyExamples/libDaisy//src/daisy_patch_sm.h ****         enum class PinBank
  57:../DaisyExamples/libDaisy//src/daisy_patch_sm.h ****         {
  58:../DaisyExamples/libDaisy//src/daisy_patch_sm.h ****             A,
  59:../DaisyExamples/libDaisy//src/daisy_patch_sm.h ****             B,
  60:../DaisyExamples/libDaisy//src/daisy_patch_sm.h ****             C,
  61:../DaisyExamples/libDaisy//src/daisy_patch_sm.h ****             D
  62:../DaisyExamples/libDaisy//src/daisy_patch_sm.h ****         };
  63:../DaisyExamples/libDaisy//src/daisy_patch_sm.h **** 
  64:../DaisyExamples/libDaisy//src/daisy_patch_sm.h ****         DaisyPatchSM() {}
 1343              		.loc 17 64 9
 1344              		.cfi_startproc
 1345              		@ args = 0, pretend = 0, frame = 8
ARM GAS  /var/folders/1_/rgbtf7293t93c5kflb58xcy40000gn/T//cchnO2o5.s 			page 57


 1346              		@ frame_needed = 1, uses_anonymous_args = 0
 1347 0000 B0B5     		push	{r4, r5, r7, lr}
 1348              		.cfi_def_cfa_offset 16
 1349              		.cfi_offset 4, -16
 1350              		.cfi_offset 5, -12
 1351              		.cfi_offset 7, -8
 1352              		.cfi_offset 14, -4
 1353 0002 82B0     		sub	sp, sp, #8
 1354              		.cfi_def_cfa_offset 24
 1355 0004 00AF     		add	r7, sp, #0
 1356              		.cfi_def_cfa_register 7
 1357 0006 7860     		str	r0, [r7, #4]
 1358              	.LBB14:
 1359              		.loc 17 64 24
 1360 0008 7B68     		ldr	r3, [r7, #4]
 1361 000a 1846     		mov	r0, r3
 1362 000c FFF7FEFF 		bl	_ZN5daisy6SystemC1Ev
 1363 0010 7B68     		ldr	r3, [r7, #4]
 1364 0012 0C33     		adds	r3, r3, #12
 1365 0014 1846     		mov	r0, r3
 1366 0016 FFF7FEFF 		bl	_ZN5daisy10QSPIHandleC1Ev
 1367 001a 7B68     		ldr	r3, [r7, #4]
 1368 001c 1033     		adds	r3, r3, #16
 1369 001e 1846     		mov	r0, r3
 1370 0020 FFF7FEFF 		bl	_ZN5daisy11AudioHandleC1Ev
 1371 0024 7B68     		ldr	r3, [r7, #4]
 1372 0026 1433     		adds	r3, r3, #20
 1373 0028 1846     		mov	r0, r3
 1374 002a FFF7FEFF 		bl	_ZN5daisy9AdcHandleC1Ev
 1375 002e 7B68     		ldr	r3, [r7, #4]
 1376 0030 1C33     		adds	r3, r3, #28
 1377 0032 1846     		mov	r0, r3
 1378 0034 FFF7FEFF 		bl	_ZN5daisy9UsbHandleC1Ev
 1379 0038 7B68     		ldr	r3, [r7, #4]
 1380 003a 2033     		adds	r3, r3, #32
 1381 003c 1846     		mov	r0, r3
 1382 003e FFF7FEFF 		bl	_ZN5daisy7Pcm3060C1Ev
 1383 0042 7B68     		ldr	r3, [r7, #4]
 1384 0044 2833     		adds	r3, r3, #40
 1385 0046 1846     		mov	r0, r3
 1386 0048 FFF7FEFF 		bl	_ZN5daisy9DacHandleC1Ev
 1387 004c 7B68     		ldr	r3, [r7, #4]
 1388 004e 3033     		adds	r3, r3, #48
 1389 0050 0B24     		movs	r4, #11
 1390 0052 1D46     		mov	r5, r3
 1391              	.L63:
 1392              		.loc 17 64 24 is_stmt 0 discriminator 4
 1393 0054 002C     		cmp	r4, #0
 1394 0056 05DB     		blt	.L62
 1395              		.loc 17 64 24 discriminator 3
 1396 0058 2846     		mov	r0, r5
 1397 005a FFF7FEFF 		bl	_ZN5daisy13AnalogControlC1Ev
 1398 005e 2035     		adds	r5, r5, #32
 1399 0060 013C     		subs	r4, r4, #1
 1400 0062 F7E7     		b	.L63
 1401              	.L62:
 1402              		.loc 17 64 24 discriminator 2
ARM GAS  /var/folders/1_/rgbtf7293t93c5kflb58xcy40000gn/T//cchnO2o5.s 			page 58


 1403 0064 7B68     		ldr	r3, [r7, #4]
 1404 0066 03F5D873 		add	r3, r3, #432
 1405 006a 1846     		mov	r0, r3
 1406 006c FFF7FEFF 		bl	_ZN5daisy6GateInC1Ev
 1407 0070 7B68     		ldr	r3, [r7, #4]
 1408 0072 03F5E473 		add	r3, r3, #456
 1409 0076 1846     		mov	r0, r3
 1410 0078 FFF7FEFF 		bl	_ZN5daisy6GateInC1Ev
 1411              	.LBE14:
 1412              		.loc 17 64 25 is_stmt 1 discriminator 2
 1413 007c 7B68     		ldr	r3, [r7, #4]
 1414 007e 1846     		mov	r0, r3
 1415 0080 0837     		adds	r7, r7, #8
 1416              		.cfi_def_cfa_offset 16
 1417 0082 BD46     		mov	sp, r7
 1418              		.cfi_def_cfa_register 13
 1419              		@ sp needed
 1420 0084 B0BD     		pop	{r4, r5, r7, pc}
 1421              		.cfi_endproc
 1422              	.LFE4671:
 1424              		.weak	_ZN5daisy8patch_sm12DaisyPatchSMC1Ev
 1425              		.thumb_set _ZN5daisy8patch_sm12DaisyPatchSMC1Ev,_ZN5daisy8patch_sm12DaisyPatchSMC2Ev
 1426              		.section	.text._ZN5daisy8patch_sm12DaisyPatchSMD2Ev,"axG",%progbits,_ZN5daisy8patch_sm12DaisyPatch
 1427              		.align	1
 1428              		.weak	_ZN5daisy8patch_sm12DaisyPatchSMD2Ev
 1429              		.syntax unified
 1430              		.thumb
 1431              		.thumb_func
 1433              	_ZN5daisy8patch_sm12DaisyPatchSMD2Ev:
 1434              	.LFB4674:
  65:../DaisyExamples/libDaisy//src/daisy_patch_sm.h ****         ~DaisyPatchSM() {}
 1435              		.loc 17 65 9
 1436              		.cfi_startproc
 1437              		@ args = 0, pretend = 0, frame = 8
 1438              		@ frame_needed = 1, uses_anonymous_args = 0
 1439 0000 90B5     		push	{r4, r7, lr}
 1440              		.cfi_def_cfa_offset 12
 1441              		.cfi_offset 4, -12
 1442              		.cfi_offset 7, -8
 1443              		.cfi_offset 14, -4
 1444 0002 83B0     		sub	sp, sp, #12
 1445              		.cfi_def_cfa_offset 24
 1446 0004 00AF     		add	r7, sp, #0
 1447              		.cfi_def_cfa_register 7
 1448 0006 7860     		str	r0, [r7, #4]
 1449              	.LBB15:
 1450              		.loc 17 65 25
 1451 0008 7B68     		ldr	r3, [r7, #4]
 1452 000a 03F5E473 		add	r3, r3, #456
 1453 000e 1846     		mov	r0, r3
 1454 0010 FFF7FEFF 		bl	_ZN5daisy6GateInD1Ev
 1455 0014 7B68     		ldr	r3, [r7, #4]
 1456 0016 03F5D873 		add	r3, r3, #432
 1457 001a 1846     		mov	r0, r3
 1458 001c FFF7FEFF 		bl	_ZN5daisy6GateInD1Ev
 1459 0020 7B68     		ldr	r3, [r7, #4]
 1460 0022 3033     		adds	r3, r3, #48
ARM GAS  /var/folders/1_/rgbtf7293t93c5kflb58xcy40000gn/T//cchnO2o5.s 			page 59


 1461 0024 002B     		cmp	r3, #0
 1462 0026 0CD0     		beq	.L66
 1463              		.loc 17 65 25 is_stmt 0 discriminator 1
 1464 0028 7B68     		ldr	r3, [r7, #4]
 1465 002a 3033     		adds	r3, r3, #48
 1466 002c 03F5C074 		add	r4, r3, #384
 1467              	.L67:
 1468              		.loc 17 65 25 discriminator 6
 1469 0030 7B68     		ldr	r3, [r7, #4]
 1470 0032 3033     		adds	r3, r3, #48
 1471 0034 9C42     		cmp	r4, r3
 1472 0036 04D0     		beq	.L66
 1473              		.loc 17 65 25 discriminator 5
 1474 0038 203C     		subs	r4, r4, #32
 1475 003a 2046     		mov	r0, r4
 1476 003c FFF7FEFF 		bl	_ZN5daisy13AnalogControlD1Ev
 1477 0040 F6E7     		b	.L67
 1478              	.L66:
 1479              		.loc 17 65 25 discriminator 7
 1480 0042 7B68     		ldr	r3, [r7, #4]
 1481 0044 2033     		adds	r3, r3, #32
 1482 0046 1846     		mov	r0, r3
 1483 0048 FFF7FEFF 		bl	_ZN5daisy7Pcm3060D1Ev
 1484 004c 7B68     		ldr	r3, [r7, #4]
 1485 004e 1C33     		adds	r3, r3, #28
 1486 0050 1846     		mov	r0, r3
 1487 0052 FFF7FEFF 		bl	_ZN5daisy9UsbHandleD1Ev
 1488 0056 7B68     		ldr	r3, [r7, #4]
 1489 0058 1433     		adds	r3, r3, #20
 1490 005a 1846     		mov	r0, r3
 1491 005c FFF7FEFF 		bl	_ZN5daisy9AdcHandleD1Ev
 1492 0060 7B68     		ldr	r3, [r7, #4]
 1493 0062 1033     		adds	r3, r3, #16
 1494 0064 1846     		mov	r0, r3
 1495 0066 FFF7FEFF 		bl	_ZN5daisy11AudioHandleD1Ev
 1496 006a 7B68     		ldr	r3, [r7, #4]
 1497 006c 1846     		mov	r0, r3
 1498 006e FFF7FEFF 		bl	_ZN5daisy6SystemD1Ev
 1499              	.LBE15:
 1500              		.loc 17 65 26 is_stmt 1 discriminator 7
 1501 0072 7B68     		ldr	r3, [r7, #4]
 1502 0074 1846     		mov	r0, r3
 1503 0076 0C37     		adds	r7, r7, #12
 1504              		.cfi_def_cfa_offset 12
 1505 0078 BD46     		mov	sp, r7
 1506              		.cfi_def_cfa_register 13
 1507              		@ sp needed
 1508 007a 90BD     		pop	{r4, r7, pc}
 1509              		.cfi_endproc
 1510              	.LFE4674:
 1512              		.weak	_ZN5daisy8patch_sm12DaisyPatchSMD1Ev
 1513              		.thumb_set _ZN5daisy8patch_sm12DaisyPatchSMD1Ev,_ZN5daisy8patch_sm12DaisyPatchSMD2Ev
 1514              		.global	patch
 1515              		.section	.bss.patch,"aw",%nobits
 1516              		.align	2
 1519              	patch:
 1520 0000 00000000 		.space	496
ARM GAS  /var/folders/1_/rgbtf7293t93c5kflb58xcy40000gn/T//cchnO2o5.s 			page 60


 1520      00000000 
 1520      00000000 
 1520      00000000 
 1520      00000000 
 1521              		.section	.bss._ZL9FDN_del_L,"aw",%nobits
 1522              		.align	2
 1525              	_ZL9FDN_del_L:
 1526 0000 00000000 		.space	80048
 1526      00000000 
 1526      00000000 
 1526      00000000 
 1526      00000000 
 1527              		.section	.bss._ZL9FDN_del_R,"aw",%nobits
 1528              		.align	2
 1531              	_ZL9FDN_del_R:
 1532 0000 00000000 		.space	80048
 1532      00000000 
 1532      00000000 
 1532      00000000 
 1532      00000000 
 1533              		.section	.bss._ZL9lpf_del_L,"aw",%nobits
 1534              		.align	2
 1537              	_ZL9lpf_del_L:
 1538 0000 00000000 		.space	64
 1538      00000000 
 1538      00000000 
 1538      00000000 
 1538      00000000 
 1539              		.section	.bss._ZL9lpf_del_R,"aw",%nobits
 1540              		.align	2
 1543              	_ZL9lpf_del_R:
 1544 0000 00000000 		.space	64
 1544      00000000 
 1544      00000000 
 1544      00000000 
 1544      00000000 
 1545              		.section	.bss._ZL7apf_del,"aw",%nobits
 1546              		.align	2
 1549              	_ZL7apf_del:
 1550 0000 00000000 		.space	8976
 1550      00000000 
 1550      00000000 
 1550      00000000 
 1550      00000000 
 1551              		.section	.rodata._ZL15hadamard_matrix,"a"
 1552              		.align	2
 1555              	_ZL15hadamard_matrix:
 1556 0000 01010101 		.ascii	"\001\001\001\001"
 1557 0004 FF01FF01 		.ascii	"\377\001\377\001"
 1558 0008 FFFF0101 		.ascii	"\377\377\001\001"
 1559 000c 01FFFF01 		.ascii	"\001\377\377\001"
 1560              		.section	.rodata._ZL6primes,"a"
 1561              		.align	2
 1564              	_ZL6primes:
 1565 0000 0200     		.short	2
 1566 0002 0300     		.short	3
 1567 0004 0500     		.short	5
ARM GAS  /var/folders/1_/rgbtf7293t93c5kflb58xcy40000gn/T//cchnO2o5.s 			page 61


 1568 0006 0700     		.short	7
 1569 0008 0B00     		.short	11
 1570 000a 0D00     		.short	13
 1571 000c 1100     		.short	17
 1572 000e 1300     		.short	19
 1573 0010 1700     		.short	23
 1574 0012 1D00     		.short	29
 1575 0014 1F00     		.short	31
 1576 0016 2500     		.short	37
 1577 0018 2900     		.short	41
 1578 001a 2B00     		.short	43
 1579 001c 2F00     		.short	47
 1580 001e 3500     		.short	53
 1581 0020 3B00     		.short	59
 1582 0022 3D00     		.short	61
 1583 0024 4300     		.short	67
 1584 0026 4700     		.short	71
 1585 0028 4900     		.short	73
 1586 002a 4F00     		.short	79
 1587 002c 5300     		.short	83
 1588 002e 5900     		.short	89
 1589 0030 6100     		.short	97
 1590 0032 6500     		.short	101
 1591 0034 6700     		.short	103
 1592 0036 6B00     		.short	107
 1593 0038 6D00     		.short	109
 1594 003a 7100     		.short	113
 1595 003c 7F00     		.short	127
 1596 003e 8300     		.short	131
 1597 0040 8900     		.short	137
 1598 0042 8B00     		.short	139
 1599 0044 9500     		.short	149
 1600 0046 9700     		.short	151
 1601 0048 9D00     		.short	157
 1602 004a A300     		.short	163
 1603 004c A700     		.short	167
 1604 004e AD00     		.short	173
 1605 0050 B300     		.short	179
 1606 0052 B500     		.short	181
 1607 0054 BF00     		.short	191
 1608 0056 C100     		.short	193
 1609 0058 C500     		.short	197
 1610 005a C700     		.short	199
 1611 005c D300     		.short	211
 1612 005e DF00     		.short	223
 1613 0060 E300     		.short	227
 1614 0062 E500     		.short	229
 1615 0064 E900     		.short	233
 1616 0066 EF00     		.short	239
 1617 0068 F100     		.short	241
 1618 006a FB00     		.short	251
 1619 006c 0101     		.short	257
 1620 006e 0701     		.short	263
 1621 0070 0D01     		.short	269
